SF:C:\Users\cires\OneDrive\Documents\projects\AuthFramework\src\analytics\compliance.rs
FN:70,_RNCNvMNtNtCsawKQoipWOme_14auth_framework9analytics10complianceNtB4_17ComplianceMonitor16check_compliance0B8_
FN:67,_RNvMNtNtCsawKQoipWOme_14auth_framework9analytics10complianceNtB2_17ComplianceMonitor16check_compliance
FN:62,_RNvMNtNtCsawKQoipWOme_14auth_framework9analytics10complianceNtB2_17ComplianceMonitor3new
FN:70,_RNCNvMNtNtCscyNIIr1ochp_14auth_framework9analytics10complianceNtB4_17ComplianceMonitor16check_compliance0B8_
FN:67,_RNvMNtNtCscyNIIr1ochp_14auth_framework9analytics10complianceNtB2_17ComplianceMonitor16check_compliance
FN:62,_RNvMNtNtCscyNIIr1ochp_14auth_framework9analytics10complianceNtB2_17ComplianceMonitor3new
FNDA:0,_RNCNvMNtNtCsawKQoipWOme_14auth_framework9analytics10complianceNtB4_17ComplianceMonitor16check_compliance0B8_
FNDA:0,_RNvMNtNtCsawKQoipWOme_14auth_framework9analytics10complianceNtB2_17ComplianceMonitor16check_compliance
FNDA:0,_RNvMNtNtCsawKQoipWOme_14auth_framework9analytics10complianceNtB2_17ComplianceMonitor3new
FNDA:0,_RNCNvMNtNtCscyNIIr1ochp_14auth_framework9analytics10complianceNtB4_17ComplianceMonitor16check_compliance0B8_
FNDA:0,_RNvMNtNtCscyNIIr1ochp_14auth_framework9analytics10complianceNtB2_17ComplianceMonitor16check_compliance
FNDA:0,_RNvMNtNtCscyNIIr1ochp_14auth_framework9analytics10complianceNtB2_17ComplianceMonitor3new
FNF:3
FNH:0
DA:62,0
DA:63,0
DA:64,0
DA:67,0
DA:68,0
DA:69,0
DA:70,0
DA:72,0
DA:73,0
DA:74,0
DA:75,0
DA:76,0
DA:77,0
DA:78,0
DA:79,0
DA:80,0
DA:81,0
DA:82,0
BRF:0
BRH:0
LF:19
LH:0
end_of_record
SF:C:\Users\cires\OneDrive\Documents\projects\AuthFramework\src\analytics\dashboard.rs
FN:314,_RNCNvMs_NtNtCsawKQoipWOme_14auth_framework9analytics9dashboardNtB6_16DashboardManager15get_widget_data0Ba_
FN:292,_RNCNvMs_NtNtCsawKQoipWOme_14auth_framework9analytics9dashboardNtB6_16DashboardManager15list_dashboards0Ba_
FN:306,_RNCNvMs_NtNtCsawKQoipWOme_14auth_framework9analytics9dashboardNtB6_16DashboardManager16delete_dashboard0Ba_
FN:297,_RNCNvMs_NtNtCsawKQoipWOme_14auth_framework9analytics9dashboardNtB6_16DashboardManager16update_dashboard0Ba_
FN:586,_RNCNvMs_NtNtCsawKQoipWOme_14auth_framework9analytics9dashboardNtB6_16DashboardManager17get_custom_series0Ba_
FN:537,_RNCNvMs_NtNtCsawKQoipWOme_14auth_framework9analytics9dashboardNtB6_16DashboardManager21get_compliance_series0Ba_
FN:495,_RNCNvMs_NtNtCsawKQoipWOme_14auth_framework9analytics9dashboardNtB6_16DashboardManager21get_role_usage_series0Ba_
FN:576,_RNCNvMs_NtNtCsawKQoipWOme_14auth_framework9analytics9dashboardNtB6_16DashboardManager22get_event_count_series0Ba_
FN:556,_RNCNvMs_NtNtCsawKQoipWOme_14auth_framework9analytics9dashboardNtB6_16DashboardManager22get_performance_series0Ba_
FN:594,_RNCNvMs_NtNtCsawKQoipWOme_14auth_framework9analytics9dashboardNtB6_16DashboardManager24calculate_widget_summary0Ba_
FN:528,_RNCNvMs_NtNtCsawKQoipWOme_14auth_framework9analytics9dashboardNtB6_16DashboardManager27get_permission_usage_series0Ba_
FN:311,_RNvMs_NtNtCsawKQoipWOme_14auth_framework9analytics9dashboardNtB4_16DashboardManager15get_widget_data
FN:292,_RNvMs_NtNtCsawKQoipWOme_14auth_framework9analytics9dashboardNtB4_16DashboardManager15list_dashboards
FN:306,_RNvMs_NtNtCsawKQoipWOme_14auth_framework9analytics9dashboardNtB4_16DashboardManager16delete_dashboard
FN:297,_RNvMs_NtNtCsawKQoipWOme_14auth_framework9analytics9dashboardNtB4_16DashboardManager16update_dashboard
FN:581,_RNvMs_NtNtCsawKQoipWOme_14auth_framework9analytics9dashboardNtB4_16DashboardManager17get_custom_series
FN:533,_RNvMs_NtNtCsawKQoipWOme_14auth_framework9analytics9dashboardNtB4_16DashboardManager21get_compliance_series
FN:490,_RNvMs_NtNtCsawKQoipWOme_14auth_framework9analytics9dashboardNtB4_16DashboardManager21get_role_usage_series
FN:571,_RNvMs_NtNtCsawKQoipWOme_14auth_framework9analytics9dashboardNtB4_16DashboardManager22get_event_count_series
FN:552,_RNvMs_NtNtCsawKQoipWOme_14auth_framework9analytics9dashboardNtB4_16DashboardManager22get_performance_series
FN:591,_RNvMs_NtNtCsawKQoipWOme_14auth_framework9analytics9dashboardNtB4_16DashboardManager24calculate_widget_summary
FN:523,_RNvMs_NtNtCsawKQoipWOme_14auth_framework9analytics9dashboardNtB4_16DashboardManager27get_permission_usage_series
FN:660,_RNCNvNtNtNtCsawKQoipWOme_14auth_framework9analytics9dashboard5testss_31test_dashboard_manager_creation0B9_
FN:667,_RNCNvNtNtNtCsawKQoipWOme_14auth_framework9analytics9dashboard5testss_35test_create_rbac_overview_dashboard0B9_
FN:680,_RNvNtNtNtCsawKQoipWOme_14auth_framework9analytics9dashboard5testss_26test_alert_status_checking
FN:652,_RNvNtNtNtCsawKQoipWOme_14auth_framework9analytics9dashboard5testss_29test_dashboard_config_default
FN:660,_RNvNtNtNtCsawKQoipWOme_14auth_framework9analytics9dashboard5testss_31test_dashboard_manager_creation
FN:667,_RNvNtNtNtCsawKQoipWOme_14auth_framework9analytics9dashboard5testss_35test_create_rbac_overview_dashboard
FN:287,_RNCNvMs_NtNtCsawKQoipWOme_14auth_framework9analytics9dashboardNtB6_16DashboardManager13get_dashboard0Ba_
FN:278,_RNCNvMs_NtNtCsawKQoipWOme_14auth_framework9analytics9dashboardNtB6_16DashboardManager16create_dashboard0Ba_
FN:369,_RNCNvMs_NtNtCsawKQoipWOme_14auth_framework9analytics9dashboardNtB6_16DashboardManager30create_rbac_overview_dashboard0Ba_
FN:284,_RNvMs_NtNtCsawKQoipWOme_14auth_framework9analytics9dashboardNtB4_16DashboardManager13get_dashboard
FN:278,_RNvMs_NtNtCsawKQoipWOme_14auth_framework9analytics9dashboardNtB4_16DashboardManager16create_dashboard
FN:612,_RNvMs_NtNtCsawKQoipWOme_14auth_framework9analytics9dashboardNtB4_16DashboardManager18check_alert_status
FN:369,_RNvMs_NtNtCsawKQoipWOme_14auth_framework9analytics9dashboardNtB4_16DashboardManager30create_rbac_overview_dashboard
FN:270,_RNvMs_NtNtCsawKQoipWOme_14auth_framework9analytics9dashboardNtB4_16DashboardManager3new
FN:30,_RNvXNtNtCsawKQoipWOme_14auth_framework9analytics9dashboardNtB2_15DashboardConfigNtNtCsf36jwlS2r7m_4core7default7Default7default
FN:284,_RNvMs_NtNtCscyNIIr1ochp_14auth_framework9analytics9dashboardNtB4_16DashboardManager13get_dashboard
FN:311,_RNvMs_NtNtCscyNIIr1ochp_14auth_framework9analytics9dashboardNtB4_16DashboardManager15get_widget_data
FN:292,_RNvMs_NtNtCscyNIIr1ochp_14auth_framework9analytics9dashboardNtB4_16DashboardManager15list_dashboards
FN:278,_RNvMs_NtNtCscyNIIr1ochp_14auth_framework9analytics9dashboardNtB4_16DashboardManager16create_dashboard
FN:306,_RNvMs_NtNtCscyNIIr1ochp_14auth_framework9analytics9dashboardNtB4_16DashboardManager16delete_dashboard
FN:297,_RNvMs_NtNtCscyNIIr1ochp_14auth_framework9analytics9dashboardNtB4_16DashboardManager16update_dashboard
FN:581,_RNvMs_NtNtCscyNIIr1ochp_14auth_framework9analytics9dashboardNtB4_16DashboardManager17get_custom_series
FN:612,_RNvMs_NtNtCscyNIIr1ochp_14auth_framework9analytics9dashboardNtB4_16DashboardManager18check_alert_status
FN:533,_RNvMs_NtNtCscyNIIr1ochp_14auth_framework9analytics9dashboardNtB4_16DashboardManager21get_compliance_series
FN:490,_RNvMs_NtNtCscyNIIr1ochp_14auth_framework9analytics9dashboardNtB4_16DashboardManager21get_role_usage_series
FN:571,_RNvMs_NtNtCscyNIIr1ochp_14auth_framework9analytics9dashboardNtB4_16DashboardManager22get_event_count_series
FN:552,_RNvMs_NtNtCscyNIIr1ochp_14auth_framework9analytics9dashboardNtB4_16DashboardManager22get_performance_series
FN:591,_RNvMs_NtNtCscyNIIr1ochp_14auth_framework9analytics9dashboardNtB4_16DashboardManager24calculate_widget_summary
FN:523,_RNvMs_NtNtCscyNIIr1ochp_14auth_framework9analytics9dashboardNtB4_16DashboardManager27get_permission_usage_series
FN:369,_RNvMs_NtNtCscyNIIr1ochp_14auth_framework9analytics9dashboardNtB4_16DashboardManager30create_rbac_overview_dashboard
FN:270,_RNvMs_NtNtCscyNIIr1ochp_14auth_framework9analytics9dashboardNtB4_16DashboardManager3new
FN:30,_RNvXNtNtCscyNIIr1ochp_14auth_framework9analytics9dashboardNtB2_15DashboardConfigNtNtCsf36jwlS2r7m_4core7default7Default7default
FN:287,_RNCNvMs_NtNtCscyNIIr1ochp_14auth_framework9analytics9dashboardNtB6_16DashboardManager13get_dashboard0Ba_
FN:314,_RNCNvMs_NtNtCscyNIIr1ochp_14auth_framework9analytics9dashboardNtB6_16DashboardManager15get_widget_data0Ba_
FN:292,_RNCNvMs_NtNtCscyNIIr1ochp_14auth_framework9analytics9dashboardNtB6_16DashboardManager15list_dashboards0Ba_
FN:278,_RNCNvMs_NtNtCscyNIIr1ochp_14auth_framework9analytics9dashboardNtB6_16DashboardManager16create_dashboard0Ba_
FN:306,_RNCNvMs_NtNtCscyNIIr1ochp_14auth_framework9analytics9dashboardNtB6_16DashboardManager16delete_dashboard0Ba_
FN:297,_RNCNvMs_NtNtCscyNIIr1ochp_14auth_framework9analytics9dashboardNtB6_16DashboardManager16update_dashboard0Ba_
FN:586,_RNCNvMs_NtNtCscyNIIr1ochp_14auth_framework9analytics9dashboardNtB6_16DashboardManager17get_custom_series0Ba_
FN:537,_RNCNvMs_NtNtCscyNIIr1ochp_14auth_framework9analytics9dashboardNtB6_16DashboardManager21get_compliance_series0Ba_
FN:495,_RNCNvMs_NtNtCscyNIIr1ochp_14auth_framework9analytics9dashboardNtB6_16DashboardManager21get_role_usage_series0Ba_
FN:576,_RNCNvMs_NtNtCscyNIIr1ochp_14auth_framework9analytics9dashboardNtB6_16DashboardManager22get_event_count_series0Ba_
FN:556,_RNCNvMs_NtNtCscyNIIr1ochp_14auth_framework9analytics9dashboardNtB6_16DashboardManager22get_performance_series0Ba_
FN:528,_RNCNvMs_NtNtCscyNIIr1ochp_14auth_framework9analytics9dashboardNtB6_16DashboardManager27get_permission_usage_series0Ba_
FN:369,_RNCNvMs_NtNtCscyNIIr1ochp_14auth_framework9analytics9dashboardNtB6_16DashboardManager30create_rbac_overview_dashboard0Ba_
FN:594,_RNCNvMs_NtNtCscyNIIr1ochp_14auth_framework9analytics9dashboardNtB6_16DashboardManager24calculate_widget_summary0Ba_
FNDA:0,_RNCNvMs_NtNtCsawKQoipWOme_14auth_framework9analytics9dashboardNtB6_16DashboardManager15get_widget_data0Ba_
FNDA:0,_RNCNvMs_NtNtCsawKQoipWOme_14auth_framework9analytics9dashboardNtB6_16DashboardManager15list_dashboards0Ba_
FNDA:0,_RNCNvMs_NtNtCsawKQoipWOme_14auth_framework9analytics9dashboardNtB6_16DashboardManager16delete_dashboard0Ba_
FNDA:0,_RNCNvMs_NtNtCsawKQoipWOme_14auth_framework9analytics9dashboardNtB6_16DashboardManager16update_dashboard0Ba_
FNDA:0,_RNCNvMs_NtNtCsawKQoipWOme_14auth_framework9analytics9dashboardNtB6_16DashboardManager17get_custom_series0Ba_
FNDA:0,_RNCNvMs_NtNtCsawKQoipWOme_14auth_framework9analytics9dashboardNtB6_16DashboardManager21get_compliance_series0Ba_
FNDA:0,_RNCNvMs_NtNtCsawKQoipWOme_14auth_framework9analytics9dashboardNtB6_16DashboardManager21get_role_usage_series0Ba_
FNDA:0,_RNCNvMs_NtNtCsawKQoipWOme_14auth_framework9analytics9dashboardNtB6_16DashboardManager22get_event_count_series0Ba_
FNDA:0,_RNCNvMs_NtNtCsawKQoipWOme_14auth_framework9analytics9dashboardNtB6_16DashboardManager22get_performance_series0Ba_
FNDA:0,_RNCNvMs_NtNtCsawKQoipWOme_14auth_framework9analytics9dashboardNtB6_16DashboardManager24calculate_widget_summary0Ba_
FNDA:0,_RNCNvMs_NtNtCsawKQoipWOme_14auth_framework9analytics9dashboardNtB6_16DashboardManager27get_permission_usage_series0Ba_
FNDA:0,_RNvMs_NtNtCsawKQoipWOme_14auth_framework9analytics9dashboardNtB4_16DashboardManager15get_widget_data
FNDA:0,_RNvMs_NtNtCsawKQoipWOme_14auth_framework9analytics9dashboardNtB4_16DashboardManager15list_dashboards
FNDA:0,_RNvMs_NtNtCsawKQoipWOme_14auth_framework9analytics9dashboardNtB4_16DashboardManager16delete_dashboard
FNDA:0,_RNvMs_NtNtCsawKQoipWOme_14auth_framework9analytics9dashboardNtB4_16DashboardManager16update_dashboard
FNDA:0,_RNvMs_NtNtCsawKQoipWOme_14auth_framework9analytics9dashboardNtB4_16DashboardManager17get_custom_series
FNDA:0,_RNvMs_NtNtCsawKQoipWOme_14auth_framework9analytics9dashboardNtB4_16DashboardManager21get_compliance_series
FNDA:0,_RNvMs_NtNtCsawKQoipWOme_14auth_framework9analytics9dashboardNtB4_16DashboardManager21get_role_usage_series
FNDA:0,_RNvMs_NtNtCsawKQoipWOme_14auth_framework9analytics9dashboardNtB4_16DashboardManager22get_event_count_series
FNDA:0,_RNvMs_NtNtCsawKQoipWOme_14auth_framework9analytics9dashboardNtB4_16DashboardManager22get_performance_series
FNDA:0,_RNvMs_NtNtCsawKQoipWOme_14auth_framework9analytics9dashboardNtB4_16DashboardManager24calculate_widget_summary
FNDA:0,_RNvMs_NtNtCsawKQoipWOme_14auth_framework9analytics9dashboardNtB4_16DashboardManager27get_permission_usage_series
FNDA:1,_RNCNvNtNtNtCsawKQoipWOme_14auth_framework9analytics9dashboard5testss_31test_dashboard_manager_creation0B9_
FNDA:1,_RNCNvNtNtNtCsawKQoipWOme_14auth_framework9analytics9dashboard5testss_35test_create_rbac_overview_dashboard0B9_
FNDA:1,_RNvNtNtNtCsawKQoipWOme_14auth_framework9analytics9dashboard5testss_26test_alert_status_checking
FNDA:1,_RNvNtNtNtCsawKQoipWOme_14auth_framework9analytics9dashboard5testss_29test_dashboard_config_default
FNDA:1,_RNvNtNtNtCsawKQoipWOme_14auth_framework9analytics9dashboard5testss_31test_dashboard_manager_creation
FNDA:1,_RNvNtNtNtCsawKQoipWOme_14auth_framework9analytics9dashboard5testss_35test_create_rbac_overview_dashboard
FNDA:1,_RNCNvMs_NtNtCsawKQoipWOme_14auth_framework9analytics9dashboardNtB6_16DashboardManager13get_dashboard0Ba_
FNDA:1,_RNCNvMs_NtNtCsawKQoipWOme_14auth_framework9analytics9dashboardNtB6_16DashboardManager16create_dashboard0Ba_
FNDA:1,_RNCNvMs_NtNtCsawKQoipWOme_14auth_framework9analytics9dashboardNtB6_16DashboardManager30create_rbac_overview_dashboard0Ba_
FNDA:1,_RNvMs_NtNtCsawKQoipWOme_14auth_framework9analytics9dashboardNtB4_16DashboardManager13get_dashboard
FNDA:1,_RNvMs_NtNtCsawKQoipWOme_14auth_framework9analytics9dashboardNtB4_16DashboardManager16create_dashboard
FNDA:1,_RNvMs_NtNtCsawKQoipWOme_14auth_framework9analytics9dashboardNtB4_16DashboardManager18check_alert_status
FNDA:1,_RNvMs_NtNtCsawKQoipWOme_14auth_framework9analytics9dashboardNtB4_16DashboardManager30create_rbac_overview_dashboard
FNDA:3,_RNvMs_NtNtCsawKQoipWOme_14auth_framework9analytics9dashboardNtB4_16DashboardManager3new
FNDA:4,_RNvXNtNtCsawKQoipWOme_14auth_framework9analytics9dashboardNtB2_15DashboardConfigNtNtCsf36jwlS2r7m_4core7default7Default7default
FNDA:0,_RNvMs_NtNtCscyNIIr1ochp_14auth_framework9analytics9dashboardNtB4_16DashboardManager13get_dashboard
FNDA:0,_RNvMs_NtNtCscyNIIr1ochp_14auth_framework9analytics9dashboardNtB4_16DashboardManager15get_widget_data
FNDA:0,_RNvMs_NtNtCscyNIIr1ochp_14auth_framework9analytics9dashboardNtB4_16DashboardManager15list_dashboards
FNDA:0,_RNvMs_NtNtCscyNIIr1ochp_14auth_framework9analytics9dashboardNtB4_16DashboardManager16create_dashboard
FNDA:0,_RNvMs_NtNtCscyNIIr1ochp_14auth_framework9analytics9dashboardNtB4_16DashboardManager16delete_dashboard
FNDA:0,_RNvMs_NtNtCscyNIIr1ochp_14auth_framework9analytics9dashboardNtB4_16DashboardManager16update_dashboard
FNDA:0,_RNvMs_NtNtCscyNIIr1ochp_14auth_framework9analytics9dashboardNtB4_16DashboardManager17get_custom_series
FNDA:0,_RNvMs_NtNtCscyNIIr1ochp_14auth_framework9analytics9dashboardNtB4_16DashboardManager18check_alert_status
FNDA:0,_RNvMs_NtNtCscyNIIr1ochp_14auth_framework9analytics9dashboardNtB4_16DashboardManager21get_compliance_series
FNDA:0,_RNvMs_NtNtCscyNIIr1ochp_14auth_framework9analytics9dashboardNtB4_16DashboardManager21get_role_usage_series
FNDA:0,_RNvMs_NtNtCscyNIIr1ochp_14auth_framework9analytics9dashboardNtB4_16DashboardManager22get_event_count_series
FNDA:0,_RNvMs_NtNtCscyNIIr1ochp_14auth_framework9analytics9dashboardNtB4_16DashboardManager22get_performance_series
FNDA:0,_RNvMs_NtNtCscyNIIr1ochp_14auth_framework9analytics9dashboardNtB4_16DashboardManager24calculate_widget_summary
FNDA:0,_RNvMs_NtNtCscyNIIr1ochp_14auth_framework9analytics9dashboardNtB4_16DashboardManager27get_permission_usage_series
FNDA:0,_RNvMs_NtNtCscyNIIr1ochp_14auth_framework9analytics9dashboardNtB4_16DashboardManager30create_rbac_overview_dashboard
FNDA:0,_RNvMs_NtNtCscyNIIr1ochp_14auth_framework9analytics9dashboardNtB4_16DashboardManager3new
FNDA:0,_RNvXNtNtCscyNIIr1ochp_14auth_framework9analytics9dashboardNtB2_15DashboardConfigNtNtCsf36jwlS2r7m_4core7default7Default7default
FNDA:0,_RNCNvMs_NtNtCscyNIIr1ochp_14auth_framework9analytics9dashboardNtB6_16DashboardManager13get_dashboard0Ba_
FNDA:0,_RNCNvMs_NtNtCscyNIIr1ochp_14auth_framework9analytics9dashboardNtB6_16DashboardManager15get_widget_data0Ba_
FNDA:0,_RNCNvMs_NtNtCscyNIIr1ochp_14auth_framework9analytics9dashboardNtB6_16DashboardManager15list_dashboards0Ba_
FNDA:0,_RNCNvMs_NtNtCscyNIIr1ochp_14auth_framework9analytics9dashboardNtB6_16DashboardManager16create_dashboard0Ba_
FNDA:0,_RNCNvMs_NtNtCscyNIIr1ochp_14auth_framework9analytics9dashboardNtB6_16DashboardManager16delete_dashboard0Ba_
FNDA:0,_RNCNvMs_NtNtCscyNIIr1ochp_14auth_framework9analytics9dashboardNtB6_16DashboardManager16update_dashboard0Ba_
FNDA:0,_RNCNvMs_NtNtCscyNIIr1ochp_14auth_framework9analytics9dashboardNtB6_16DashboardManager17get_custom_series0Ba_
FNDA:0,_RNCNvMs_NtNtCscyNIIr1ochp_14auth_framework9analytics9dashboardNtB6_16DashboardManager21get_compliance_series0Ba_
FNDA:0,_RNCNvMs_NtNtCscyNIIr1ochp_14auth_framework9analytics9dashboardNtB6_16DashboardManager21get_role_usage_series0Ba_
FNDA:0,_RNCNvMs_NtNtCscyNIIr1ochp_14auth_framework9analytics9dashboardNtB6_16DashboardManager22get_event_count_series0Ba_
FNDA:0,_RNCNvMs_NtNtCscyNIIr1ochp_14auth_framework9analytics9dashboardNtB6_16DashboardManager22get_performance_series0Ba_
FNDA:0,_RNCNvMs_NtNtCscyNIIr1ochp_14auth_framework9analytics9dashboardNtB6_16DashboardManager27get_permission_usage_series0Ba_
FNDA:0,_RNCNvMs_NtNtCscyNIIr1ochp_14auth_framework9analytics9dashboardNtB6_16DashboardManager30create_rbac_overview_dashboard0Ba_
FNDA:0,_RNCNvMs_NtNtCscyNIIr1ochp_14auth_framework9analytics9dashboardNtB6_16DashboardManager24calculate_widget_summary0Ba_
FNF:37
FNH:15
DA:30,4
DA:31,4
DA:32,4
DA:33,4
DA:34,4
DA:35,4
DA:36,4
DA:37,4
DA:38,4
DA:270,3
DA:271,3
DA:272,3
DA:273,3
DA:274,3
DA:275,3
DA:278,1
DA:279,1
DA:280,1
DA:281,1
DA:284,1
DA:285,1
DA:286,1
DA:287,1
DA:288,1
DA:289,1
DA:292,0
DA:293,0
DA:294,0
DA:297,0
DA:298,0
DA:299,0
DA:300,0
DA:301,0
DA:302,0
DA:303,0
DA:306,0
DA:307,0
DA:308,0
DA:311,0
DA:312,0
DA:313,0
DA:314,0
DA:315,0
DA:316,0
DA:317,0
DA:318,0
DA:319,0
DA:320,0
DA:321,0
DA:322,0
DA:325,0
DA:326,0
DA:328,0
DA:329,0
DA:330,0
DA:331,0
DA:332,0
DA:333,0
DA:335,0
DA:336,0
DA:337,0
DA:339,0
DA:340,0
DA:341,0
DA:344,0
DA:345,0
DA:347,0
DA:348,0
DA:350,0
DA:351,0
DA:352,0
DA:356,0
DA:357,0
DA:359,0
DA:360,0
DA:361,0
DA:362,0
DA:363,0
DA:364,0
DA:365,0
DA:366,0
DA:369,1
DA:370,1
DA:372,1
DA:373,1
DA:374,1
DA:375,1
DA:376,1
DA:377,1
DA:378,1
DA:379,1
DA:380,1
DA:381,1
DA:382,1
DA:383,1
DA:384,1
DA:385,1
DA:386,1
DA:387,1
DA:388,1
DA:389,1
DA:390,1
DA:391,1
DA:392,1
DA:393,1
DA:394,1
DA:395,1
DA:396,1
DA:397,1
DA:398,1
DA:399,1
DA:400,1
DA:401,1
DA:402,1
DA:403,1
DA:404,1
DA:405,1
DA:406,1
DA:407,1
DA:408,1
DA:409,1
DA:410,1
DA:411,1
DA:412,1
DA:413,1
DA:414,1
DA:415,1
DA:416,1
DA:417,1
DA:418,1
DA:419,1
DA:420,1
DA:421,1
DA:422,1
DA:423,1
DA:424,1
DA:425,1
DA:426,1
DA:427,1
DA:428,1
DA:429,1
DA:430,1
DA:431,1
DA:432,1
DA:433,1
DA:434,1
DA:435,1
DA:436,1
DA:437,1
DA:438,1
DA:439,1
DA:440,1
DA:441,1
DA:442,1
DA:443,1
DA:444,1
DA:445,1
DA:446,1
DA:447,1
DA:448,1
DA:449,1
DA:450,1
DA:451,1
DA:452,1
DA:453,1
DA:454,1
DA:455,1
DA:456,1
DA:457,1
DA:458,1
DA:459,1
DA:460,1
DA:461,1
DA:462,1
DA:463,1
DA:464,1
DA:465,1
DA:466,1
DA:467,1
DA:468,1
DA:469,1
DA:470,1
DA:471,1
DA:472,1
DA:473,1
DA:474,1
DA:475,1
DA:476,1
DA:477,1
DA:478,1
DA:479,1
DA:480,1
DA:481,1
DA:482,1
DA:483,1
DA:485,1
DA:486,1
DA:487,1
DA:490,0
DA:491,0
DA:492,0
DA:493,0
DA:494,0
DA:495,0
DA:497,0
DA:498,0
DA:499,0
DA:500,0
DA:501,0
DA:502,0
DA:503,0
DA:504,0
DA:505,0
DA:506,0
DA:507,0
DA:508,0
DA:509,0
DA:510,0
DA:511,0
DA:512,0
DA:513,0
DA:514,0
DA:515,0
DA:516,0
DA:517,0
DA:518,0
DA:519,0
DA:520,0
DA:521,0
DA:523,0
DA:524,0
DA:525,0
DA:526,0
DA:527,0
DA:528,0
DA:530,0
DA:531,0
DA:533,0
DA:534,0
DA:535,0
DA:536,0
DA:537,0
DA:539,0
DA:540,0
DA:541,0
DA:542,0
DA:543,0
DA:544,0
DA:545,0
DA:546,0
DA:547,0
DA:548,0
DA:549,0
DA:550,0
DA:552,0
DA:553,0
DA:554,0
DA:555,0
DA:556,0
DA:558,0
DA:559,0
DA:560,0
DA:561,0
DA:562,0
DA:563,0
DA:564,0
DA:565,0
DA:566,0
DA:567,0
DA:568,0
DA:569,0
DA:571,0
DA:572,0
DA:573,0
DA:574,0
DA:575,0
DA:576,0
DA:578,0
DA:579,0
DA:581,0
DA:582,0
DA:583,0
DA:584,0
DA:585,0
DA:586,0
DA:588,0
DA:589,0
DA:591,0
DA:592,0
DA:593,0
DA:594,0
DA:595,0
DA:597,0
DA:598,0
DA:599,0
DA:600,0
DA:601,0
DA:604,0
DA:605,0
DA:606,0
DA:607,0
DA:608,0
DA:610,0
DA:612,1
DA:613,1
DA:614,1
DA:615,1
DA:616,1
DA:617,1
DA:618,0
DA:621,1
DA:623,1
DA:624,1
DA:625,0
DA:626,0
DA:627,0
DA:630,1
DA:631,1
DA:632,0
DA:633,0
DA:634,0
DA:637,1
DA:638,0
DA:639,1
DA:640,1
DA:642,0
DA:644,1
DA:652,1
DA:653,1
DA:654,1
DA:655,1
DA:656,1
DA:657,1
DA:660,1
DA:661,1
DA:662,1
DA:663,1
DA:664,1
DA:667,1
DA:668,1
DA:669,1
DA:671,1
DA:672,1
DA:674,1
DA:675,1
DA:676,1
DA:677,1
DA:680,1
DA:681,1
DA:682,1
DA:684,1
DA:685,1
DA:686,1
DA:687,1
DA:688,1
DA:689,1
DA:690,1
DA:692,1
DA:693,1
DA:694,1
DA:695,1
DA:696,1
DA:698,1
DA:699,1
DA:700,1
BRF:0
BRH:0
LF:383
LH:202
end_of_record
SF:C:\Users\cires\OneDrive\Documents\projects\AuthFramework\src\analytics\metrics.rs
FN:57,_RNCNvMs_NtNtCsawKQoipWOme_14auth_framework9analytics7metricsNtB6_16MetricsCollector15collect_metrics0Ba_
FN:54,_RNvMs_NtNtCsawKQoipWOme_14auth_framework9analytics7metricsNtB4_16MetricsCollector15collect_metrics
FN:63,_RNvMs_NtNtCsawKQoipWOme_14auth_framework9analytics7metricsNtB4_16MetricsCollector19get_current_metrics
FN:46,_RNvMs_NtNtCsawKQoipWOme_14auth_framework9analytics7metricsNtB4_16MetricsCollector3new
FN:27,_RNvXNtNtCsawKQoipWOme_14auth_framework9analytics7metricsNtB2_13MetricsConfigNtNtCsf36jwlS2r7m_4core7default7Default7default
FN:54,_RNvMs_NtNtCscyNIIr1ochp_14auth_framework9analytics7metricsNtB4_16MetricsCollector15collect_metrics
FN:63,_RNvMs_NtNtCscyNIIr1ochp_14auth_framework9analytics7metricsNtB4_16MetricsCollector19get_current_metrics
FN:46,_RNvMs_NtNtCscyNIIr1ochp_14auth_framework9analytics7metricsNtB4_16MetricsCollector3new
FN:27,_RNvXNtNtCscyNIIr1ochp_14auth_framework9analytics7metricsNtB2_13MetricsConfigNtNtCsf36jwlS2r7m_4core7default7Default7default
FN:57,_RNCNvMs_NtNtCscyNIIr1ochp_14auth_framework9analytics7metricsNtB6_16MetricsCollector15collect_metrics0Ba_
FNDA:0,_RNCNvMs_NtNtCsawKQoipWOme_14auth_framework9analytics7metricsNtB6_16MetricsCollector15collect_metrics0Ba_
FNDA:0,_RNvMs_NtNtCsawKQoipWOme_14auth_framework9analytics7metricsNtB4_16MetricsCollector15collect_metrics
FNDA:0,_RNvMs_NtNtCsawKQoipWOme_14auth_framework9analytics7metricsNtB4_16MetricsCollector19get_current_metrics
FNDA:0,_RNvMs_NtNtCsawKQoipWOme_14auth_framework9analytics7metricsNtB4_16MetricsCollector3new
FNDA:0,_RNvXNtNtCsawKQoipWOme_14auth_framework9analytics7metricsNtB2_13MetricsConfigNtNtCsf36jwlS2r7m_4core7default7Default7default
FNDA:0,_RNvMs_NtNtCscyNIIr1ochp_14auth_framework9analytics7metricsNtB4_16MetricsCollector15collect_metrics
FNDA:0,_RNvMs_NtNtCscyNIIr1ochp_14auth_framework9analytics7metricsNtB4_16MetricsCollector19get_current_metrics
FNDA:0,_RNvMs_NtNtCscyNIIr1ochp_14auth_framework9analytics7metricsNtB4_16MetricsCollector3new
FNDA:0,_RNvXNtNtCscyNIIr1ochp_14auth_framework9analytics7metricsNtB2_13MetricsConfigNtNtCsf36jwlS2r7m_4core7default7Default7default
FNDA:0,_RNCNvMs_NtNtCscyNIIr1ochp_14auth_framework9analytics7metricsNtB6_16MetricsCollector15collect_metrics0Ba_
FNF:5
FNH:0
DA:27,0
DA:28,0
DA:29,0
DA:30,0
DA:31,0
DA:32,0
DA:33,0
DA:34,0
DA:46,0
DA:47,0
DA:48,0
DA:49,0
DA:50,0
DA:51,0
DA:54,0
DA:55,0
DA:56,0
DA:57,0
DA:59,0
DA:60,0
DA:63,0
DA:64,0
DA:65,0
BRF:0
BRH:0
LF:24
LH:0
end_of_record
SF:C:\Users\cires\OneDrive\Documents\projects\AuthFramework\src\analytics\mod.rs
FN:438,_RNCNvMs_NtCsawKQoipWOme_14auth_framework9analyticsNtB6_16AnalyticsManager12flush_events0B8_
FN:317,_RNCNvMs_NtCsawKQoipWOme_14auth_framework9analyticsNtB6_16AnalyticsManager12record_event0B8_
FN:452,_RNCNvMs_NtCsawKQoipWOme_14auth_framework9analyticsNtB6_16AnalyticsManager23process_real_time_event0B8_
FN:411,_RNCNvMs_NtCsawKQoipWOme_14auth_framework9analyticsNtB6_16AnalyticsManager15generate_report0B8_
FN:394,_RNCNvMs_NtCsawKQoipWOme_14auth_framework9analyticsNtB6_16AnalyticsManager18get_trend_analysis0B8_
FN:338,_RNCNvMs_NtCsawKQoipWOme_14auth_framework9analyticsNtB6_16AnalyticsManager20get_role_usage_stats0B8_
FN:357,_RNCNvMs_NtCsawKQoipWOme_14auth_framework9analyticsNtB6_16AnalyticsManager22get_compliance_metrics0B8_
FN:375,_RNCNvMs_NtCsawKQoipWOme_14auth_framework9analyticsNtB6_16AnalyticsManager23get_performance_metrics0B8_
FN:348,_RNCNvMs_NtCsawKQoipWOme_14auth_framework9analyticsNtB6_16AnalyticsManager26get_permission_usage_stats0B8_
FN:488,_RNvMs0_NtCsawKQoipWOme_14auth_framework9analyticsNtB5_9TimeRange9last_days
FN:407,_RNvMs_NtCsawKQoipWOme_14auth_framework9analyticsNtB4_16AnalyticsManager15generate_report
FN:390,_RNvMs_NtCsawKQoipWOme_14auth_framework9analyticsNtB4_16AnalyticsManager18get_trend_analysis
FN:334,_RNvMs_NtCsawKQoipWOme_14auth_framework9analyticsNtB4_16AnalyticsManager20get_role_usage_stats
FN:354,_RNvMs_NtCsawKQoipWOme_14auth_framework9analyticsNtB4_16AnalyticsManager22get_compliance_metrics
FN:458,_RNvMs_NtCsawKQoipWOme_14auth_framework9analyticsNtB4_16AnalyticsManager23generate_report_summary
FN:372,_RNvMs_NtCsawKQoipWOme_14auth_framework9analyticsNtB4_16AnalyticsManager23get_performance_metrics
FN:344,_RNvMs_NtCsawKQoipWOme_14auth_framework9analyticsNtB4_16AnalyticsManager26get_permission_usage_stats
FN:584,_RNvNtNtCsawKQoipWOme_14auth_framework9analytics5testss_17test_record_event
FN:568,_RNvNtNtCsawKQoipWOme_14auth_framework9analytics5testss_24test_time_range_creation
FN:560,_RNvNtNtCsawKQoipWOme_14auth_framework9analytics5testss_29test_analytics_config_default
FN:577,_RNvNtNtCsawKQoipWOme_14auth_framework9analytics5testss_31test_analytics_manager_creation
FN:481,_RNvMs0_NtCsawKQoipWOme_14auth_framework9analyticsNtB5_9TimeRange10last_hours
FN:495,_RNvMs0_NtCsawKQoipWOme_14auth_framework9analyticsNtB5_9TimeRange5today
FN:438,_RNvMs_NtCsawKQoipWOme_14auth_framework9analyticsNtB4_16AnalyticsManager12flush_events
FN:317,_RNvMs_NtCsawKQoipWOme_14auth_framework9analyticsNtB4_16AnalyticsManager12record_event
FN:452,_RNvMs_NtCsawKQoipWOme_14auth_framework9analyticsNtB4_16AnalyticsManager23process_real_time_event
FN:308,_RNvMs_NtCsawKQoipWOme_14auth_framework9analyticsNtB4_16AnalyticsManager3new
FN:38,_RNvXNtCsawKQoipWOme_14auth_framework9analyticsNtB2_15AnalyticsConfigNtNtCsf36jwlS2r7m_4core7default7Default7default
FN:584,_RNCNvNtNtCsawKQoipWOme_14auth_framework9analytics5testss_17test_record_event0B7_
FN:577,_RNCNvNtNtCsawKQoipWOme_14auth_framework9analytics5testss_31test_analytics_manager_creation0B7_
FN:481,_RNvMs0_NtCscyNIIr1ochp_14auth_framework9analyticsNtB5_9TimeRange10last_hours
FN:495,_RNvMs0_NtCscyNIIr1ochp_14auth_framework9analyticsNtB5_9TimeRange5today
FN:488,_RNvMs0_NtCscyNIIr1ochp_14auth_framework9analyticsNtB5_9TimeRange9last_days
FN:438,_RNvMs_NtCscyNIIr1ochp_14auth_framework9analyticsNtB4_16AnalyticsManager12flush_events
FN:317,_RNvMs_NtCscyNIIr1ochp_14auth_framework9analyticsNtB4_16AnalyticsManager12record_event
FN:407,_RNvMs_NtCscyNIIr1ochp_14auth_framework9analyticsNtB4_16AnalyticsManager15generate_report
FN:390,_RNvMs_NtCscyNIIr1ochp_14auth_framework9analyticsNtB4_16AnalyticsManager18get_trend_analysis
FN:334,_RNvMs_NtCscyNIIr1ochp_14auth_framework9analyticsNtB4_16AnalyticsManager20get_role_usage_stats
FN:354,_RNvMs_NtCscyNIIr1ochp_14auth_framework9analyticsNtB4_16AnalyticsManager22get_compliance_metrics
FN:458,_RNvMs_NtCscyNIIr1ochp_14auth_framework9analyticsNtB4_16AnalyticsManager23generate_report_summary
FN:372,_RNvMs_NtCscyNIIr1ochp_14auth_framework9analyticsNtB4_16AnalyticsManager23get_performance_metrics
FN:452,_RNvMs_NtCscyNIIr1ochp_14auth_framework9analyticsNtB4_16AnalyticsManager23process_real_time_event
FN:344,_RNvMs_NtCscyNIIr1ochp_14auth_framework9analyticsNtB4_16AnalyticsManager26get_permission_usage_stats
FN:308,_RNvMs_NtCscyNIIr1ochp_14auth_framework9analyticsNtB4_16AnalyticsManager3new
FN:38,_RNvXNtCscyNIIr1ochp_14auth_framework9analyticsNtB2_15AnalyticsConfigNtNtCsf36jwlS2r7m_4core7default7Default7default
FN:438,_RNCNvMs_NtCscyNIIr1ochp_14auth_framework9analyticsNtB6_16AnalyticsManager12flush_events0B8_
FN:317,_RNCNvMs_NtCscyNIIr1ochp_14auth_framework9analyticsNtB6_16AnalyticsManager12record_event0B8_
FN:411,_RNCNvMs_NtCscyNIIr1ochp_14auth_framework9analyticsNtB6_16AnalyticsManager15generate_report0B8_
FN:394,_RNCNvMs_NtCscyNIIr1ochp_14auth_framework9analyticsNtB6_16AnalyticsManager18get_trend_analysis0B8_
FN:338,_RNCNvMs_NtCscyNIIr1ochp_14auth_framework9analyticsNtB6_16AnalyticsManager20get_role_usage_stats0B8_
FN:357,_RNCNvMs_NtCscyNIIr1ochp_14auth_framework9analyticsNtB6_16AnalyticsManager22get_compliance_metrics0B8_
FN:375,_RNCNvMs_NtCscyNIIr1ochp_14auth_framework9analyticsNtB6_16AnalyticsManager23get_performance_metrics0B8_
FN:452,_RNCNvMs_NtCscyNIIr1ochp_14auth_framework9analyticsNtB6_16AnalyticsManager23process_real_time_event0B8_
FN:348,_RNCNvMs_NtCscyNIIr1ochp_14auth_framework9analyticsNtB6_16AnalyticsManager26get_permission_usage_stats0B8_
FNDA:0,_RNCNvMs_NtCsawKQoipWOme_14auth_framework9analyticsNtB6_16AnalyticsManager12flush_events0B8_
FNDA:1,_RNCNvMs_NtCsawKQoipWOme_14auth_framework9analyticsNtB6_16AnalyticsManager12record_event0B8_
FNDA:1,_RNCNvMs_NtCsawKQoipWOme_14auth_framework9analyticsNtB6_16AnalyticsManager23process_real_time_event0B8_
FNDA:0,_RNCNvMs_NtCsawKQoipWOme_14auth_framework9analyticsNtB6_16AnalyticsManager15generate_report0B8_
FNDA:0,_RNCNvMs_NtCsawKQoipWOme_14auth_framework9analyticsNtB6_16AnalyticsManager18get_trend_analysis0B8_
FNDA:0,_RNCNvMs_NtCsawKQoipWOme_14auth_framework9analyticsNtB6_16AnalyticsManager20get_role_usage_stats0B8_
FNDA:0,_RNCNvMs_NtCsawKQoipWOme_14auth_framework9analyticsNtB6_16AnalyticsManager22get_compliance_metrics0B8_
FNDA:0,_RNCNvMs_NtCsawKQoipWOme_14auth_framework9analyticsNtB6_16AnalyticsManager23get_performance_metrics0B8_
FNDA:0,_RNCNvMs_NtCsawKQoipWOme_14auth_framework9analyticsNtB6_16AnalyticsManager26get_permission_usage_stats0B8_
FNDA:0,_RNvMs0_NtCsawKQoipWOme_14auth_framework9analyticsNtB5_9TimeRange9last_days
FNDA:0,_RNvMs_NtCsawKQoipWOme_14auth_framework9analyticsNtB4_16AnalyticsManager15generate_report
FNDA:0,_RNvMs_NtCsawKQoipWOme_14auth_framework9analyticsNtB4_16AnalyticsManager18get_trend_analysis
FNDA:0,_RNvMs_NtCsawKQoipWOme_14auth_framework9analyticsNtB4_16AnalyticsManager20get_role_usage_stats
FNDA:0,_RNvMs_NtCsawKQoipWOme_14auth_framework9analyticsNtB4_16AnalyticsManager22get_compliance_metrics
FNDA:0,_RNvMs_NtCsawKQoipWOme_14auth_framework9analyticsNtB4_16AnalyticsManager23generate_report_summary
FNDA:0,_RNvMs_NtCsawKQoipWOme_14auth_framework9analyticsNtB4_16AnalyticsManager23get_performance_metrics
FNDA:0,_RNvMs_NtCsawKQoipWOme_14auth_framework9analyticsNtB4_16AnalyticsManager26get_permission_usage_stats
FNDA:1,_RNvNtNtCsawKQoipWOme_14auth_framework9analytics5testss_17test_record_event
FNDA:1,_RNvNtNtCsawKQoipWOme_14auth_framework9analytics5testss_24test_time_range_creation
FNDA:1,_RNvNtNtCsawKQoipWOme_14auth_framework9analytics5testss_29test_analytics_config_default
FNDA:1,_RNvNtNtCsawKQoipWOme_14auth_framework9analytics5testss_31test_analytics_manager_creation
FNDA:6,_RNvMs0_NtCsawKQoipWOme_14auth_framework9analyticsNtB5_9TimeRange10last_hours
FNDA:1,_RNvMs0_NtCsawKQoipWOme_14auth_framework9analyticsNtB5_9TimeRange5today
FNDA:0,_RNvMs_NtCsawKQoipWOme_14auth_framework9analyticsNtB4_16AnalyticsManager12flush_events
FNDA:1,_RNvMs_NtCsawKQoipWOme_14auth_framework9analyticsNtB4_16AnalyticsManager12record_event
FNDA:1,_RNvMs_NtCsawKQoipWOme_14auth_framework9analyticsNtB4_16AnalyticsManager23process_real_time_event
FNDA:2,_RNvMs_NtCsawKQoipWOme_14auth_framework9analyticsNtB4_16AnalyticsManager3new
FNDA:3,_RNvXNtCsawKQoipWOme_14auth_framework9analyticsNtB2_15AnalyticsConfigNtNtCsf36jwlS2r7m_4core7default7Default7default
FNDA:1,_RNCNvNtNtCsawKQoipWOme_14auth_framework9analytics5testss_17test_record_event0B7_
FNDA:1,_RNCNvNtNtCsawKQoipWOme_14auth_framework9analytics5testss_31test_analytics_manager_creation0B7_
FNDA:0,_RNvMs0_NtCscyNIIr1ochp_14auth_framework9analyticsNtB5_9TimeRange10last_hours
FNDA:0,_RNvMs0_NtCscyNIIr1ochp_14auth_framework9analyticsNtB5_9TimeRange5today
FNDA:0,_RNvMs0_NtCscyNIIr1ochp_14auth_framework9analyticsNtB5_9TimeRange9last_days
FNDA:0,_RNvMs_NtCscyNIIr1ochp_14auth_framework9analyticsNtB4_16AnalyticsManager12flush_events
FNDA:0,_RNvMs_NtCscyNIIr1ochp_14auth_framework9analyticsNtB4_16AnalyticsManager12record_event
FNDA:0,_RNvMs_NtCscyNIIr1ochp_14auth_framework9analyticsNtB4_16AnalyticsManager15generate_report
FNDA:0,_RNvMs_NtCscyNIIr1ochp_14auth_framework9analyticsNtB4_16AnalyticsManager18get_trend_analysis
FNDA:0,_RNvMs_NtCscyNIIr1ochp_14auth_framework9analyticsNtB4_16AnalyticsManager20get_role_usage_stats
FNDA:0,_RNvMs_NtCscyNIIr1ochp_14auth_framework9analyticsNtB4_16AnalyticsManager22get_compliance_metrics
FNDA:0,_RNvMs_NtCscyNIIr1ochp_14auth_framework9analyticsNtB4_16AnalyticsManager23generate_report_summary
FNDA:0,_RNvMs_NtCscyNIIr1ochp_14auth_framework9analyticsNtB4_16AnalyticsManager23get_performance_metrics
FNDA:0,_RNvMs_NtCscyNIIr1ochp_14auth_framework9analyticsNtB4_16AnalyticsManager23process_real_time_event
FNDA:0,_RNvMs_NtCscyNIIr1ochp_14auth_framework9analyticsNtB4_16AnalyticsManager26get_permission_usage_stats
FNDA:0,_RNvMs_NtCscyNIIr1ochp_14auth_framework9analyticsNtB4_16AnalyticsManager3new
FNDA:0,_RNvXNtCscyNIIr1ochp_14auth_framework9analyticsNtB2_15AnalyticsConfigNtNtCsf36jwlS2r7m_4core7default7Default7default
FNDA:0,_RNCNvMs_NtCscyNIIr1ochp_14auth_framework9analyticsNtB6_16AnalyticsManager12flush_events0B8_
FNDA:0,_RNCNvMs_NtCscyNIIr1ochp_14auth_framework9analyticsNtB6_16AnalyticsManager12record_event0B8_
FNDA:0,_RNCNvMs_NtCscyNIIr1ochp_14auth_framework9analyticsNtB6_16AnalyticsManager15generate_report0B8_
FNDA:0,_RNCNvMs_NtCscyNIIr1ochp_14auth_framework9analyticsNtB6_16AnalyticsManager18get_trend_analysis0B8_
FNDA:0,_RNCNvMs_NtCscyNIIr1ochp_14auth_framework9analyticsNtB6_16AnalyticsManager20get_role_usage_stats0B8_
FNDA:0,_RNCNvMs_NtCscyNIIr1ochp_14auth_framework9analyticsNtB6_16AnalyticsManager22get_compliance_metrics0B8_
FNDA:0,_RNCNvMs_NtCscyNIIr1ochp_14auth_framework9analyticsNtB6_16AnalyticsManager23get_performance_metrics0B8_
FNDA:0,_RNCNvMs_NtCscyNIIr1ochp_14auth_framework9analyticsNtB6_16AnalyticsManager23process_real_time_event0B8_
FNDA:0,_RNCNvMs_NtCscyNIIr1ochp_14auth_framework9analyticsNtB6_16AnalyticsManager26get_permission_usage_stats0B8_
FNF:30
FNH:14
DA:38,3
DA:39,3
DA:40,3
DA:41,3
DA:42,3
DA:43,3
DA:44,3
DA:45,3
DA:46,3
DA:47,3
DA:308,2
DA:309,2
DA:310,2
DA:311,2
DA:312,2
DA:313,2
DA:314,2
DA:317,1
DA:318,1
DA:319,0
DA:320,1
DA:322,1
DA:324,1
DA:326,1
DA:327,1
DA:328,0
DA:330,1
DA:331,1
DA:334,0
DA:335,0
DA:336,0
DA:337,0
DA:338,0
DA:340,0
DA:341,0
DA:344,0
DA:345,0
DA:346,0
DA:347,0
DA:348,0
DA:350,0
DA:351,0
DA:354,0
DA:355,0
DA:356,0
DA:357,0
DA:359,0
DA:360,0
DA:361,0
DA:362,0
DA:363,0
DA:364,0
DA:365,0
DA:366,0
DA:367,0
DA:368,0
DA:369,0
DA:372,0
DA:373,0
DA:374,0
DA:375,0
DA:377,0
DA:378,0
DA:379,0
DA:380,0
DA:381,0
DA:382,0
DA:383,0
DA:384,0
DA:385,0
DA:386,0
DA:387,0
DA:390,0
DA:391,0
DA:392,0
DA:393,0
DA:394,0
DA:396,0
DA:397,0
DA:398,0
DA:399,0
DA:400,0
DA:401,0
DA:402,0
DA:403,0
DA:404,0
DA:407,0
DA:408,0
DA:409,0
DA:410,0
DA:411,0
DA:412,0
DA:413,0
DA:414,0
DA:415,0
DA:416,0
DA:417,0
DA:418,0
DA:419,0
DA:420,0
DA:421,0
DA:422,0
DA:423,0
DA:425,0
DA:426,0
DA:427,0
DA:428,0
DA:429,0
DA:430,0
DA:431,0
DA:432,0
DA:433,0
DA:434,0
DA:435,0
DA:438,0
DA:439,0
DA:440,0
DA:441,0
DA:445,0
DA:446,0
DA:448,0
DA:449,0
DA:452,1
DA:454,1
DA:455,1
DA:458,0
DA:459,0
DA:460,0
DA:461,0
DA:462,0
DA:463,0
DA:464,0
DA:467,0
DA:469,0
DA:481,6
DA:482,6
DA:483,6
DA:484,6
DA:485,6
DA:488,0
DA:489,0
DA:490,0
DA:491,0
DA:492,0
DA:495,1
DA:496,1
DA:497,1
DA:498,1
DA:499,1
DA:500,1
DA:560,1
DA:561,1
DA:562,1
DA:563,1
DA:564,1
DA:565,1
DA:568,1
DA:569,1
DA:570,1
DA:572,1
DA:573,1
DA:574,1
DA:577,1
DA:578,1
DA:579,1
DA:580,1
DA:581,1
DA:584,1
DA:585,1
DA:586,1
DA:588,1
DA:589,1
DA:590,1
DA:591,1
DA:592,1
DA:593,1
DA:594,1
DA:595,1
DA:596,1
DA:597,1
DA:598,1
DA:599,1
DA:600,1
DA:601,1
DA:603,1
DA:604,1
DA:605,1
DA:606,1
BRF:0
BRH:0
LF:201
LH:84
end_of_record
SF:C:\Users\cires\OneDrive\Documents\projects\AuthFramework\src\analytics\reports.rs
FN:58,_RNCNvMs_NtNtCsawKQoipWOme_14auth_framework9analytics7reportsNtB6_15ReportGenerator15generate_report0Ba_
FN:54,_RNvMs_NtNtCsawKQoipWOme_14auth_framework9analytics7reportsNtB4_15ReportGenerator15generate_report
FN:49,_RNvMs_NtNtCsawKQoipWOme_14auth_framework9analytics7reportsNtB4_15ReportGenerator3new
FN:32,_RNvXNtNtCsawKQoipWOme_14auth_framework9analytics7reportsNtB2_12ReportConfigNtNtCsf36jwlS2r7m_4core7default7Default7default
FN:58,_RNCNvMs_NtNtCscyNIIr1ochp_14auth_framework9analytics7reportsNtB6_15ReportGenerator15generate_report0Ba_
FN:54,_RNvMs_NtNtCscyNIIr1ochp_14auth_framework9analytics7reportsNtB4_15ReportGenerator15generate_report
FN:49,_RNvMs_NtNtCscyNIIr1ochp_14auth_framework9analytics7reportsNtB4_15ReportGenerator3new
FN:32,_RNvXNtNtCscyNIIr1ochp_14auth_framework9analytics7reportsNtB2_12ReportConfigNtNtCsf36jwlS2r7m_4core7default7Default7default
FNDA:0,_RNCNvMs_NtNtCsawKQoipWOme_14auth_framework9analytics7reportsNtB6_15ReportGenerator15generate_report0Ba_
FNDA:0,_RNvMs_NtNtCsawKQoipWOme_14auth_framework9analytics7reportsNtB4_15ReportGenerator15generate_report
FNDA:0,_RNvMs_NtNtCsawKQoipWOme_14auth_framework9analytics7reportsNtB4_15ReportGenerator3new
FNDA:0,_RNvXNtNtCsawKQoipWOme_14auth_framework9analytics7reportsNtB2_12ReportConfigNtNtCsf36jwlS2r7m_4core7default7Default7default
FNDA:0,_RNCNvMs_NtNtCscyNIIr1ochp_14auth_framework9analytics7reportsNtB6_15ReportGenerator15generate_report0Ba_
FNDA:0,_RNvMs_NtNtCscyNIIr1ochp_14auth_framework9analytics7reportsNtB4_15ReportGenerator15generate_report
FNDA:0,_RNvMs_NtNtCscyNIIr1ochp_14auth_framework9analytics7reportsNtB4_15ReportGenerator3new
FNDA:0,_RNvXNtNtCscyNIIr1ochp_14auth_framework9analytics7reportsNtB2_12ReportConfigNtNtCsf36jwlS2r7m_4core7default7Default7default
FNF:4
FNH:0
DA:32,0
DA:33,0
DA:34,0
DA:35,0
DA:36,0
DA:37,0
DA:38,0
DA:49,0
DA:50,0
DA:51,0
DA:54,0
DA:55,0
DA:56,0
DA:57,0
DA:58,0
DA:60,0
DA:61,0
BRF:0
BRH:0
LF:18
LH:0
end_of_record
SF:C:\Users\cires\OneDrive\Documents\projects\AuthFramework\src\api\admin.rs
FN:96,_RNvNtNtCsawKQoipWOme_14auth_framework3api5admin10list_users
FN:176,_RNvNtNtCsawKQoipWOme_14auth_framework3api5admin11create_user
FN:273,_RNvNtNtCsawKQoipWOme_14auth_framework3api5admin11delete_user
FN:49,_RNvNtNtCsawKQoipWOme_14auth_framework3api5admin12default_page
FN:315,_RNvNtNtCsawKQoipWOme_14auth_framework3api5admin13activate_user
FN:52,_RNvNtNtCsawKQoipWOme_14auth_framework3api5admin13default_limit
FN:72,_RNvNtNtCsawKQoipWOme_14auth_framework3api5admin14default_active
FN:421,_RNvNtNtCsawKQoipWOme_14auth_framework3api5admin14get_audit_logs
FN:352,_RNvNtNtCsawKQoipWOme_14auth_framework3api5admin16get_system_stats
FN:240,_RNvNtNtCsawKQoipWOme_14auth_framework3api5admin17update_user_roles
FN:100,_RNCNvNtNtCsawKQoipWOme_14auth_framework3api5admin10list_users0B7_
FN:180,_RNCNvNtNtCsawKQoipWOme_14auth_framework3api5admin11create_user0B7_
FN:277,_RNCNvNtNtCsawKQoipWOme_14auth_framework3api5admin11delete_user0B7_
FN:320,_RNCNvNtNtCsawKQoipWOme_14auth_framework3api5admin13activate_user0B7_
FN:425,_RNCNvNtNtCsawKQoipWOme_14auth_framework3api5admin14get_audit_logs0B7_
FN:355,_RNCNvNtNtCsawKQoipWOme_14auth_framework3api5admin16get_system_stats0B7_
FN:245,_RNCNvNtNtCsawKQoipWOme_14auth_framework3api5admin17update_user_roles0B7_
FN:96,_RNvNtNtCscyNIIr1ochp_14auth_framework3api5admin10list_users
FN:176,_RNvNtNtCscyNIIr1ochp_14auth_framework3api5admin11create_user
FN:273,_RNvNtNtCscyNIIr1ochp_14auth_framework3api5admin11delete_user
FN:49,_RNvNtNtCscyNIIr1ochp_14auth_framework3api5admin12default_page
FN:315,_RNvNtNtCscyNIIr1ochp_14auth_framework3api5admin13activate_user
FN:52,_RNvNtNtCscyNIIr1ochp_14auth_framework3api5admin13default_limit
FN:72,_RNvNtNtCscyNIIr1ochp_14auth_framework3api5admin14default_active
FN:421,_RNvNtNtCscyNIIr1ochp_14auth_framework3api5admin14get_audit_logs
FN:352,_RNvNtNtCscyNIIr1ochp_14auth_framework3api5admin16get_system_stats
FN:240,_RNvNtNtCscyNIIr1ochp_14auth_framework3api5admin17update_user_roles
FNDA:0,_RNvNtNtCsawKQoipWOme_14auth_framework3api5admin10list_users
FNDA:0,_RNvNtNtCsawKQoipWOme_14auth_framework3api5admin11create_user
FNDA:0,_RNvNtNtCsawKQoipWOme_14auth_framework3api5admin11delete_user
FNDA:0,_RNvNtNtCsawKQoipWOme_14auth_framework3api5admin12default_page
FNDA:0,_RNvNtNtCsawKQoipWOme_14auth_framework3api5admin13activate_user
FNDA:0,_RNvNtNtCsawKQoipWOme_14auth_framework3api5admin13default_limit
FNDA:0,_RNvNtNtCsawKQoipWOme_14auth_framework3api5admin14default_active
FNDA:0,_RNvNtNtCsawKQoipWOme_14auth_framework3api5admin14get_audit_logs
FNDA:0,_RNvNtNtCsawKQoipWOme_14auth_framework3api5admin16get_system_stats
FNDA:0,_RNvNtNtCsawKQoipWOme_14auth_framework3api5admin17update_user_roles
FNDA:0,_RNCNvNtNtCsawKQoipWOme_14auth_framework3api5admin10list_users0B7_
FNDA:0,_RNCNvNtNtCsawKQoipWOme_14auth_framework3api5admin11create_user0B7_
FNDA:0,_RNCNvNtNtCsawKQoipWOme_14auth_framework3api5admin11delete_user0B7_
FNDA:0,_RNCNvNtNtCsawKQoipWOme_14auth_framework3api5admin13activate_user0B7_
FNDA:0,_RNCNvNtNtCsawKQoipWOme_14auth_framework3api5admin14get_audit_logs0B7_
FNDA:0,_RNCNvNtNtCsawKQoipWOme_14auth_framework3api5admin16get_system_stats0B7_
FNDA:0,_RNCNvNtNtCsawKQoipWOme_14auth_framework3api5admin17update_user_roles0B7_
FNDA:0,_RNvNtNtCscyNIIr1ochp_14auth_framework3api5admin10list_users
FNDA:0,_RNvNtNtCscyNIIr1ochp_14auth_framework3api5admin11create_user
FNDA:0,_RNvNtNtCscyNIIr1ochp_14auth_framework3api5admin11delete_user
FNDA:0,_RNvNtNtCscyNIIr1ochp_14auth_framework3api5admin12default_page
FNDA:0,_RNvNtNtCscyNIIr1ochp_14auth_framework3api5admin13activate_user
FNDA:0,_RNvNtNtCscyNIIr1ochp_14auth_framework3api5admin13default_limit
FNDA:0,_RNvNtNtCscyNIIr1ochp_14auth_framework3api5admin14default_active
FNDA:0,_RNvNtNtCscyNIIr1ochp_14auth_framework3api5admin14get_audit_logs
FNDA:0,_RNvNtNtCscyNIIr1ochp_14auth_framework3api5admin16get_system_stats
FNDA:0,_RNvNtNtCscyNIIr1ochp_14auth_framework3api5admin17update_user_roles
FNF:17
FNH:0
DA:49,0
DA:50,0
DA:51,0
DA:52,0
DA:53,0
DA:54,0
DA:72,0
DA:73,0
DA:74,0
DA:96,0
DA:97,0
DA:98,0
DA:99,0
DA:100,0
DA:101,0
DA:102,0
DA:103,0
DA:104,0
DA:106,0
DA:107,0
DA:108,0
DA:111,0
DA:112,0
DA:115,0
DA:116,0
DA:117,0
DA:119,0
DA:123,0
DA:124,0
DA:126,0
DA:127,0
DA:128,0
DA:129,0
DA:130,0
DA:131,0
DA:132,0
DA:133,0
DA:134,0
DA:135,0
DA:136,0
DA:137,0
DA:138,0
DA:139,0
DA:140,0
DA:141,0
DA:142,0
DA:143,0
DA:144,0
DA:147,0
DA:148,0
DA:149,0
DA:150,0
DA:151,0
DA:152,0
DA:154,0
DA:156,0
DA:158,0
DA:160,0
DA:161,0
DA:162,0
DA:163,0
DA:164,0
DA:165,0
DA:166,0
DA:170,0
DA:172,0
DA:176,0
DA:177,0
DA:178,0
DA:179,0
DA:180,0
DA:182,0
DA:183,0
DA:186,0
DA:188,0
DA:189,0
DA:192,0
DA:194,0
DA:195,0
DA:196,0
DA:197,0
DA:199,0
DA:200,0
DA:201,0
DA:209,0
DA:210,0
DA:211,0
DA:212,0
DA:213,0
DA:214,0
DA:215,0
DA:216,0
DA:217,0
DA:219,0
DA:220,0
DA:222,0
DA:224,0
DA:225,0
DA:226,0
DA:227,0
DA:228,0
DA:229,0
DA:230,0
DA:234,0
DA:236,0
DA:240,0
DA:241,0
DA:242,0
DA:243,0
DA:244,0
DA:245,0
DA:246,0
DA:247,0
DA:248,0
DA:249,0
DA:251,0
DA:252,0
DA:253,0
DA:261,0
DA:262,0
DA:264,0
DA:267,0
DA:269,0
DA:273,0
DA:274,0
DA:275,0
DA:276,0
DA:277,0
DA:278,0
DA:279,0
DA:280,0
DA:281,0
DA:283,0
DA:284,0
DA:285,0
DA:288,0
DA:289,0
DA:290,0
DA:298,0
DA:299,0
DA:301,0
DA:304,0
DA:306,0
DA:315,0
DA:316,0
DA:317,0
DA:318,0
DA:319,0
DA:320,0
DA:321,0
DA:322,0
DA:323,0
DA:324,0
DA:326,0
DA:327,0
DA:328,0
DA:335,0
DA:336,0
DA:338,0
DA:340,0
DA:341,0
DA:343,0
DA:346,0
DA:348,0
DA:352,0
DA:353,0
DA:354,0
DA:355,0
DA:356,0
DA:357,0
DA:358,0
DA:359,0
DA:361,0
DA:362,0
DA:363,0
DA:366,0
DA:367,0
DA:368,0
DA:369,0
DA:370,0
DA:371,0
DA:372,0
DA:373,0
DA:374,0
DA:376,0
DA:378,0
DA:381,0
DA:383,0
DA:421,0
DA:422,0
DA:423,0
DA:424,0
DA:425,0
DA:426,0
DA:427,0
DA:428,0
DA:429,0
DA:431,0
DA:432,0
DA:433,0
DA:436,0
DA:437,0
DA:440,0
DA:441,0
DA:442,0
DA:444,0
DA:448,0
DA:449,0
DA:451,0
DA:452,0
DA:453,0
DA:454,0
DA:455,0
DA:456,0
DA:457,0
DA:458,0
DA:459,0
DA:460,0
DA:461,0
DA:462,0
DA:463,0
DA:464,0
DA:465,0
DA:466,0
DA:467,0
DA:468,0
DA:469,0
DA:470,0
DA:471,0
DA:474,0
DA:475,0
DA:476,0
DA:477,0
DA:478,0
DA:479,0
DA:481,0
DA:483,0
DA:485,0
DA:488,0
DA:490,0
BRF:0
BRH:0
LF:247
LH:0
end_of_record
SF:C:\Users\cires\OneDrive\Documents\projects\AuthFramework\src\api\auth.rs
FN:246,_RNCNCNvNtNtCsawKQoipWOme_14auth_framework3api4auth14validate_token00B9_
FN:159,_RNCNvNtNtCsawKQoipWOme_14auth_framework3api4auth13refresh_token0B7_
FN:267,_RNCNvNtNtCsawKQoipWOme_14auth_framework3api4auth14list_providers0B7_
FN:233,_RNCNvNtNtCsawKQoipWOme_14auth_framework3api4auth14validate_token0B7_
FN:64,_RNCNvNtNtCsawKQoipWOme_14auth_framework3api4auth5login0B7_
FN:213,_RNCNvNtNtCsawKQoipWOme_14auth_framework3api4auth6logout0B7_
FN:156,_RNvNtNtCsawKQoipWOme_14auth_framework3api4auth13refresh_token
FN:267,_RNvNtNtCsawKQoipWOme_14auth_framework3api4auth14list_providers
FN:230,_RNvNtNtCsawKQoipWOme_14auth_framework3api4auth14validate_token
FN:61,_RNvNtNtCsawKQoipWOme_14auth_framework3api4auth5login
FN:209,_RNvNtNtCsawKQoipWOme_14auth_framework3api4auth6logout
FN:246,_RNCNCNvNtNtCscyNIIr1ochp_14auth_framework3api4auth14validate_token00B9_
FN:159,_RNCNvNtNtCscyNIIr1ochp_14auth_framework3api4auth13refresh_token0B7_
FN:267,_RNCNvNtNtCscyNIIr1ochp_14auth_framework3api4auth14list_providers0B7_
FN:233,_RNCNvNtNtCscyNIIr1ochp_14auth_framework3api4auth14validate_token0B7_
FN:64,_RNCNvNtNtCscyNIIr1ochp_14auth_framework3api4auth5login0B7_
FN:213,_RNCNvNtNtCscyNIIr1ochp_14auth_framework3api4auth6logout0B7_
FN:156,_RNvNtNtCscyNIIr1ochp_14auth_framework3api4auth13refresh_token
FN:267,_RNvNtNtCscyNIIr1ochp_14auth_framework3api4auth14list_providers
FN:230,_RNvNtNtCscyNIIr1ochp_14auth_framework3api4auth14validate_token
FN:61,_RNvNtNtCscyNIIr1ochp_14auth_framework3api4auth5login
FN:209,_RNvNtNtCscyNIIr1ochp_14auth_framework3api4auth6logout
FNDA:0,_RNCNCNvNtNtCsawKQoipWOme_14auth_framework3api4auth14validate_token00B9_
FNDA:0,_RNCNvNtNtCsawKQoipWOme_14auth_framework3api4auth13refresh_token0B7_
FNDA:0,_RNCNvNtNtCsawKQoipWOme_14auth_framework3api4auth14list_providers0B7_
FNDA:0,_RNCNvNtNtCsawKQoipWOme_14auth_framework3api4auth14validate_token0B7_
FNDA:0,_RNCNvNtNtCsawKQoipWOme_14auth_framework3api4auth5login0B7_
FNDA:0,_RNCNvNtNtCsawKQoipWOme_14auth_framework3api4auth6logout0B7_
FNDA:0,_RNvNtNtCsawKQoipWOme_14auth_framework3api4auth13refresh_token
FNDA:0,_RNvNtNtCsawKQoipWOme_14auth_framework3api4auth14list_providers
FNDA:0,_RNvNtNtCsawKQoipWOme_14auth_framework3api4auth14validate_token
FNDA:0,_RNvNtNtCsawKQoipWOme_14auth_framework3api4auth5login
FNDA:0,_RNvNtNtCsawKQoipWOme_14auth_framework3api4auth6logout
FNDA:0,_RNCNCNvNtNtCscyNIIr1ochp_14auth_framework3api4auth14validate_token00B9_
FNDA:0,_RNCNvNtNtCscyNIIr1ochp_14auth_framework3api4auth13refresh_token0B7_
FNDA:0,_RNCNvNtNtCscyNIIr1ochp_14auth_framework3api4auth14list_providers0B7_
FNDA:0,_RNCNvNtNtCscyNIIr1ochp_14auth_framework3api4auth14validate_token0B7_
FNDA:0,_RNCNvNtNtCscyNIIr1ochp_14auth_framework3api4auth5login0B7_
FNDA:0,_RNCNvNtNtCscyNIIr1ochp_14auth_framework3api4auth6logout0B7_
FNDA:0,_RNvNtNtCscyNIIr1ochp_14auth_framework3api4auth13refresh_token
FNDA:0,_RNvNtNtCscyNIIr1ochp_14auth_framework3api4auth14list_providers
FNDA:0,_RNvNtNtCscyNIIr1ochp_14auth_framework3api4auth14validate_token
FNDA:0,_RNvNtNtCscyNIIr1ochp_14auth_framework3api4auth5login
FNDA:0,_RNvNtNtCscyNIIr1ochp_14auth_framework3api4auth6logout
FNF:11
FNH:0
DA:61,0
DA:62,0
DA:63,0
DA:64,0
DA:66,0
DA:67,0
DA:68,0
DA:71,0
DA:72,0
DA:73,0
DA:74,0
DA:77,0
DA:78,0
DA:79,0
DA:80,0
DA:82,0
DA:83,0
DA:85,0
DA:86,0
DA:87,0
DA:88,0
DA:89,0
DA:90,0
DA:93,0
DA:94,0
DA:95,0
DA:96,0
DA:97,0
DA:98,0
DA:99,0
DA:100,0
DA:101,0
DA:102,0
DA:103,0
DA:110,0
DA:111,0
DA:112,0
DA:113,0
DA:114,0
DA:115,0
DA:116,0
DA:117,0
DA:118,0
DA:119,0
DA:120,0
DA:126,0
DA:127,0
DA:128,0
DA:129,0
DA:130,0
DA:131,0
DA:132,0
DA:134,0
DA:136,0
DA:138,0
DA:140,0
DA:141,0
DA:144,0
DA:146,0
DA:147,0
DA:149,0
DA:153,0
DA:156,0
DA:157,0
DA:158,0
DA:159,0
DA:160,0
DA:161,0
DA:162,0
DA:165,0
DA:166,0
DA:167,0
DA:168,0
DA:170,0
DA:172,0
DA:173,0
DA:174,0
DA:177,0
DA:178,0
DA:179,0
DA:180,0
DA:181,0
DA:182,0
DA:183,0
DA:184,0
DA:185,0
DA:186,0
DA:187,0
DA:193,0
DA:194,0
DA:195,0
DA:196,0
DA:197,0
DA:199,0
DA:201,0
DA:202,0
DA:203,0
DA:206,0
DA:209,0
DA:210,0
DA:211,0
DA:212,0
DA:213,0
DA:215,0
DA:217,0
DA:218,0
DA:221,0
DA:222,0
DA:223,0
DA:225,0
DA:226,0
DA:230,0
DA:231,0
DA:232,0
DA:233,0
DA:234,0
DA:235,0
DA:236,0
DA:237,0
DA:239,0
DA:240,0
DA:241,0
DA:242,0
DA:244,0
DA:245,0
DA:246,0
DA:247,0
DA:250,0
DA:251,0
DA:252,0
DA:253,0
DA:254,0
DA:255,0
DA:256,0
DA:258,0
DA:261,0
DA:263,0
DA:267,0
DA:268,0
DA:269,0
DA:270,0
DA:271,0
DA:272,0
DA:273,0
DA:274,0
DA:275,0
DA:276,0
DA:277,0
DA:278,0
DA:279,0
DA:280,0
DA:281,0
DA:282,0
DA:283,0
DA:286,0
DA:287,0
BRF:0
BRH:0
LF:162
LH:0
end_of_record
SF:C:\Users\cires\OneDrive\Documents\projects\AuthFramework\src\api\error_codes.rs
FN:61,_RNvMs_NtNtCsawKQoipWOme_14auth_framework3api11error_codesNtB4_10ErrorCodes11description
FN:50,_RNvMs_NtNtCsawKQoipWOme_14auth_framework3api11error_codesNtB4_10ErrorCodes12is_retryable
FN:61,_RNvMs_NtNtCscyNIIr1ochp_14auth_framework3api11error_codesNtB4_10ErrorCodes11description
FN:50,_RNvMs_NtNtCscyNIIr1ochp_14auth_framework3api11error_codesNtB4_10ErrorCodes12is_retryable
FNDA:0,_RNvMs_NtNtCsawKQoipWOme_14auth_framework3api11error_codesNtB4_10ErrorCodes11description
FNDA:0,_RNvMs_NtNtCsawKQoipWOme_14auth_framework3api11error_codesNtB4_10ErrorCodes12is_retryable
FNDA:0,_RNvMs_NtNtCscyNIIr1ochp_14auth_framework3api11error_codesNtB4_10ErrorCodes11description
FNDA:0,_RNvMs_NtNtCscyNIIr1ochp_14auth_framework3api11error_codesNtB4_10ErrorCodes12is_retryable
FNF:2
FNH:0
DA:50,0
DA:51,0
DA:52,0
DA:53,0
DA:54,0
DA:55,0
DA:56,0
DA:58,0
DA:61,0
DA:62,0
DA:63,0
DA:64,0
DA:65,0
DA:66,0
DA:67,0
DA:68,0
DA:69,0
DA:70,0
DA:71,0
DA:72,0
DA:73,0
DA:74,0
DA:75,0
DA:76,0
DA:77,0
DA:78,0
DA:79,0
DA:80,0
DA:81,0
DA:82,0
DA:83,0
DA:84,0
DA:85,0
DA:86,0
DA:88,0
BRF:0
BRH:0
LF:35
LH:0
end_of_record
SF:C:\Users\cires\OneDrive\Documents\projects\AuthFramework\src\api\health.rs
FN:434,_RNCNvNtNtCsawKQoipWOme_14auth_framework3api6health10get_uptime0B7_
FN:101,_RNCNvNtNtCsawKQoipWOme_14auth_framework3api6health12health_check0B7_
FN:472,_RNCNvNtNtCsawKQoipWOme_14auth_framework3api6health13get_cpu_usage0B7_
FN:478,_RNCNvNtNtCsawKQoipWOme_14auth_framework3api6health13get_disk_info0B7_
FN:324,_RNCNvNtNtCsawKQoipWOme_14auth_framework3api6health14liveness_check0B7_
FN:461,_RNCNvNtNtCsawKQoipWOme_14auth_framework3api6health15get_memory_info0B7_
FN:307,_RNCNvNtNtCsawKQoipWOme_14auth_framework3api6health15readiness_check0B7_
FN:488,_RNCNvNtNtCsawKQoipWOme_14auth_framework3api6health16get_network_info0B7_
FN:417,_RNCNvNtNtCsawKQoipWOme_14auth_framework3api6health19check_memory_health0B7_
FN:362,_RNCNvNtNtCsawKQoipWOme_14auth_framework3api6health20check_storage_health0B7_
FN:152,_RNCNvNtNtCsawKQoipWOme_14auth_framework3api6health21detailed_health_check0B7_
FN:383,_RNCNvNtNtCsawKQoipWOme_14auth_framework3api6health26check_token_manager_health0B7_
FN:342,_RNCNvNtNtCsawKQoipWOme_14auth_framework3api6health27check_auth_framework_health0B7_
FN:246,_RNCNvNtNtCsawKQoipWOme_14auth_framework3api6health7metrics0B7_
FN:434,_RNvNtNtCsawKQoipWOme_14auth_framework3api6health10get_uptime
FN:101,_RNvNtNtCsawKQoipWOme_14auth_framework3api6health12health_check
FN:472,_RNvNtNtCsawKQoipWOme_14auth_framework3api6health13get_cpu_usage
FN:478,_RNvNtNtCsawKQoipWOme_14auth_framework3api6health13get_disk_info
FN:324,_RNvNtNtCsawKQoipWOme_14auth_framework3api6health14liveness_check
FN:461,_RNvNtNtCsawKQoipWOme_14auth_framework3api6health15get_memory_info
FN:307,_RNvNtNtCsawKQoipWOme_14auth_framework3api6health15readiness_check
FN:488,_RNvNtNtCsawKQoipWOme_14auth_framework3api6health16get_network_info
FN:417,_RNvNtNtCsawKQoipWOme_14auth_framework3api6health19check_memory_health
FN:360,_RNvNtNtCsawKQoipWOme_14auth_framework3api6health20check_storage_health
FN:150,_RNvNtNtCsawKQoipWOme_14auth_framework3api6health21detailed_health_check
FN:381,_RNvNtNtCsawKQoipWOme_14auth_framework3api6health26check_token_manager_health
FN:340,_RNvNtNtCsawKQoipWOme_14auth_framework3api6health27check_auth_framework_health
FN:246,_RNvNtNtCsawKQoipWOme_14auth_framework3api6health7metrics
FN:434,_RNvNtNtCscyNIIr1ochp_14auth_framework3api6health10get_uptime
FN:101,_RNvNtNtCscyNIIr1ochp_14auth_framework3api6health12health_check
FN:472,_RNvNtNtCscyNIIr1ochp_14auth_framework3api6health13get_cpu_usage
FN:478,_RNvNtNtCscyNIIr1ochp_14auth_framework3api6health13get_disk_info
FN:324,_RNvNtNtCscyNIIr1ochp_14auth_framework3api6health14liveness_check
FN:461,_RNvNtNtCscyNIIr1ochp_14auth_framework3api6health15get_memory_info
FN:307,_RNvNtNtCscyNIIr1ochp_14auth_framework3api6health15readiness_check
FN:488,_RNvNtNtCscyNIIr1ochp_14auth_framework3api6health16get_network_info
FN:417,_RNvNtNtCscyNIIr1ochp_14auth_framework3api6health19check_memory_health
FN:360,_RNvNtNtCscyNIIr1ochp_14auth_framework3api6health20check_storage_health
FN:150,_RNvNtNtCscyNIIr1ochp_14auth_framework3api6health21detailed_health_check
FN:381,_RNvNtNtCscyNIIr1ochp_14auth_framework3api6health26check_token_manager_health
FN:340,_RNvNtNtCscyNIIr1ochp_14auth_framework3api6health27check_auth_framework_health
FN:246,_RNvNtNtCscyNIIr1ochp_14auth_framework3api6health7metrics
FNDA:0,_RNCNvNtNtCsawKQoipWOme_14auth_framework3api6health10get_uptime0B7_
FNDA:0,_RNCNvNtNtCsawKQoipWOme_14auth_framework3api6health12health_check0B7_
FNDA:0,_RNCNvNtNtCsawKQoipWOme_14auth_framework3api6health13get_cpu_usage0B7_
FNDA:0,_RNCNvNtNtCsawKQoipWOme_14auth_framework3api6health13get_disk_info0B7_
FNDA:0,_RNCNvNtNtCsawKQoipWOme_14auth_framework3api6health14liveness_check0B7_
FNDA:0,_RNCNvNtNtCsawKQoipWOme_14auth_framework3api6health15get_memory_info0B7_
FNDA:0,_RNCNvNtNtCsawKQoipWOme_14auth_framework3api6health15readiness_check0B7_
FNDA:0,_RNCNvNtNtCsawKQoipWOme_14auth_framework3api6health16get_network_info0B7_
FNDA:0,_RNCNvNtNtCsawKQoipWOme_14auth_framework3api6health19check_memory_health0B7_
FNDA:0,_RNCNvNtNtCsawKQoipWOme_14auth_framework3api6health20check_storage_health0B7_
FNDA:0,_RNCNvNtNtCsawKQoipWOme_14auth_framework3api6health21detailed_health_check0B7_
FNDA:0,_RNCNvNtNtCsawKQoipWOme_14auth_framework3api6health26check_token_manager_health0B7_
FNDA:0,_RNCNvNtNtCsawKQoipWOme_14auth_framework3api6health27check_auth_framework_health0B7_
FNDA:0,_RNCNvNtNtCsawKQoipWOme_14auth_framework3api6health7metrics0B7_
FNDA:0,_RNvNtNtCsawKQoipWOme_14auth_framework3api6health10get_uptime
FNDA:0,_RNvNtNtCsawKQoipWOme_14auth_framework3api6health12health_check
FNDA:0,_RNvNtNtCsawKQoipWOme_14auth_framework3api6health13get_cpu_usage
FNDA:0,_RNvNtNtCsawKQoipWOme_14auth_framework3api6health13get_disk_info
FNDA:0,_RNvNtNtCsawKQoipWOme_14auth_framework3api6health14liveness_check
FNDA:0,_RNvNtNtCsawKQoipWOme_14auth_framework3api6health15get_memory_info
FNDA:0,_RNvNtNtCsawKQoipWOme_14auth_framework3api6health15readiness_check
FNDA:0,_RNvNtNtCsawKQoipWOme_14auth_framework3api6health16get_network_info
FNDA:0,_RNvNtNtCsawKQoipWOme_14auth_framework3api6health19check_memory_health
FNDA:0,_RNvNtNtCsawKQoipWOme_14auth_framework3api6health20check_storage_health
FNDA:0,_RNvNtNtCsawKQoipWOme_14auth_framework3api6health21detailed_health_check
FNDA:0,_RNvNtNtCsawKQoipWOme_14auth_framework3api6health26check_token_manager_health
FNDA:0,_RNvNtNtCsawKQoipWOme_14auth_framework3api6health27check_auth_framework_health
FNDA:0,_RNvNtNtCsawKQoipWOme_14auth_framework3api6health7metrics
FNDA:0,_RNvNtNtCscyNIIr1ochp_14auth_framework3api6health10get_uptime
FNDA:0,_RNvNtNtCscyNIIr1ochp_14auth_framework3api6health12health_check
FNDA:0,_RNvNtNtCscyNIIr1ochp_14auth_framework3api6health13get_cpu_usage
FNDA:0,_RNvNtNtCscyNIIr1ochp_14auth_framework3api6health13get_disk_info
FNDA:0,_RNvNtNtCscyNIIr1ochp_14auth_framework3api6health14liveness_check
FNDA:0,_RNvNtNtCscyNIIr1ochp_14auth_framework3api6health15get_memory_info
FNDA:0,_RNvNtNtCscyNIIr1ochp_14auth_framework3api6health15readiness_check
FNDA:0,_RNvNtNtCscyNIIr1ochp_14auth_framework3api6health16get_network_info
FNDA:0,_RNvNtNtCscyNIIr1ochp_14auth_framework3api6health19check_memory_health
FNDA:0,_RNvNtNtCscyNIIr1ochp_14auth_framework3api6health20check_storage_health
FNDA:0,_RNvNtNtCscyNIIr1ochp_14auth_framework3api6health21detailed_health_check
FNDA:0,_RNvNtNtCscyNIIr1ochp_14auth_framework3api6health26check_token_manager_health
FNDA:0,_RNvNtNtCscyNIIr1ochp_14auth_framework3api6health27check_auth_framework_health
FNDA:0,_RNvNtNtCscyNIIr1ochp_14auth_framework3api6health7metrics
FNF:28
FNH:0
DA:101,0
DA:102,0
DA:103,0
DA:106,0
DA:107,0
DA:108,0
DA:109,0
DA:110,0
DA:113,0
DA:114,0
DA:115,0
DA:116,0
DA:117,0
DA:120,0
DA:121,0
DA:122,0
DA:123,0
DA:124,0
DA:127,0
DA:128,0
DA:129,0
DA:130,0
DA:131,0
DA:133,0
DA:134,0
DA:135,0
DA:137,0
DA:139,0
DA:140,0
DA:141,0
DA:142,0
DA:145,0
DA:146,0
DA:150,0
DA:151,0
DA:152,0
DA:153,0
DA:154,0
DA:157,0
DA:158,0
DA:159,0
DA:161,0
DA:162,0
DA:163,0
DA:164,0
DA:166,0
DA:167,0
DA:168,0
DA:169,0
DA:170,0
DA:171,0
DA:172,0
DA:173,0
DA:174,0
DA:175,0
DA:176,0
DA:177,0
DA:178,0
DA:179,0
DA:180,0
DA:181,0
DA:185,0
DA:186,0
DA:187,0
DA:190,0
DA:191,0
DA:192,0
DA:193,0
DA:194,0
DA:195,0
DA:196,0
DA:197,0
DA:198,0
DA:199,0
DA:201,0
DA:202,0
DA:203,0
DA:206,0
DA:207,0
DA:208,0
DA:209,0
DA:210,0
DA:211,0
DA:212,0
DA:213,0
DA:214,0
DA:215,0
DA:217,0
DA:218,0
DA:219,0
DA:221,0
DA:222,0
DA:223,0
DA:224,0
DA:225,0
DA:228,0
DA:229,0
DA:230,0
DA:232,0
DA:234,0
DA:235,0
DA:236,0
DA:237,0
DA:238,0
DA:241,0
DA:242,0
DA:246,0
DA:248,0
DA:249,0
DA:250,0
DA:251,0
DA:252,0
DA:253,0
DA:254,0
DA:255,0
DA:256,0
DA:257,0
DA:258,0
DA:259,0
DA:260,0
DA:261,0
DA:262,0
DA:263,0
DA:264,0
DA:265,0
DA:266,0
DA:267,0
DA:268,0
DA:269,0
DA:270,0
DA:271,0
DA:272,0
DA:273,0
DA:274,0
DA:275,0
DA:276,0
DA:277,0
DA:278,0
DA:279,0
DA:280,0
DA:281,0
DA:282,0
DA:283,0
DA:284,0
DA:285,0
DA:286,0
DA:287,0
DA:288,0
DA:289,0
DA:290,0
DA:291,0
DA:292,0
DA:293,0
DA:294,0
DA:295,0
DA:298,0
DA:299,0
DA:300,0
DA:301,0
DA:302,0
DA:303,0
DA:307,0
DA:313,0
DA:315,0
DA:316,0
DA:318,0
DA:320,0
DA:324,0
DA:330,0
DA:332,0
DA:333,0
DA:335,0
DA:337,0
DA:340,0
DA:341,0
DA:342,0
DA:343,0
DA:346,0
DA:347,0
DA:348,0
DA:349,0
DA:350,0
DA:351,0
DA:352,0
DA:353,0
DA:354,0
DA:355,0
DA:356,0
DA:358,0
DA:360,0
DA:361,0
DA:362,0
DA:363,0
DA:367,0
DA:368,0
DA:369,0
DA:370,0
DA:371,0
DA:372,0
DA:373,0
DA:374,0
DA:375,0
DA:376,0
DA:377,0
DA:379,0
DA:381,0
DA:382,0
DA:383,0
DA:384,0
DA:387,0
DA:389,0
DA:390,0
DA:393,0
DA:394,0
DA:396,0
DA:397,0
DA:398,0
DA:399,0
DA:400,0
DA:401,0
DA:402,0
DA:403,0
DA:404,0
DA:405,0
DA:406,0
DA:409,0
DA:410,0
DA:411,0
DA:412,0
DA:413,0
DA:415,0
DA:417,0
DA:418,0
DA:421,0
DA:424,0
DA:425,0
DA:427,0
DA:429,0
DA:430,0
DA:432,0
DA:434,0
DA:440,0
DA:442,0
DA:443,0
DA:444,0
DA:445,0
DA:446,0
DA:447,0
DA:449,0
DA:450,0
DA:451,0
DA:452,0
DA:454,0
DA:457,0
DA:459,0
DA:461,0
DA:464,0
DA:465,0
DA:466,0
DA:467,0
DA:468,0
DA:469,0
DA:470,0
DA:472,0
DA:475,0
DA:476,0
DA:478,0
DA:480,0
DA:481,0
DA:482,0
DA:483,0
DA:484,0
DA:485,0
DA:486,0
DA:488,0
DA:490,0
DA:491,0
DA:492,0
DA:493,0
DA:494,0
DA:495,0
DA:496,0
BRF:0
BRH:0
LF:296
LH:0
end_of_record
SF:C:\Users\cires\OneDrive\Documents\projects\AuthFramework\src\api\metrics.rs
FN:103,_RNvMNtNtCsawKQoipWOme_14auth_framework3api7metricsNtB2_10ApiMetrics5reset
FN:150,_RNvNtNtCsawKQoipWOme_14auth_framework3api7metrics18metrics_middleware
FN:247,_RNvNtNtNtCsawKQoipWOme_14auth_framework3api7metrics5testss_19test_error_tracking
FN:277,_RNvNtNtNtCsawKQoipWOme_14auth_framework3api7metrics5testss_22test_prometheus_format
FN:234,_RNvNtNtNtCsawKQoipWOme_14auth_framework3api7metrics5testss_23test_metrics_collection
FN:263,_RNvNtNtNtCsawKQoipWOme_14auth_framework3api7metrics5testss_27test_percentile_calculation
FN:150,_RNCNvNtNtCsawKQoipWOme_14auth_framework3api7metrics18metrics_middleware0B7_
FN:61,_RNvMNtNtCsawKQoipWOme_14auth_framework3api7metricsNtB2_10ApiMetrics11get_metrics
FN:40,_RNvMNtNtCsawKQoipWOme_14auth_framework3api7metricsNtB2_10ApiMetrics14record_request
FN:46,_RNvMNtNtCsawKQoipWOme_14auth_framework3api7metricsNtB2_10ApiMetrics15record_response
FN:28,_RNvMNtNtCsawKQoipWOme_14auth_framework3api7metricsNtB2_10ApiMetrics3new
FN:173,_RNvMs0_NtNtCsawKQoipWOme_14auth_framework3api7metricsNtB5_15MetricsSnapshot20to_prometheus_format
FN:137,_RNvNtNtCsawKQoipWOme_14auth_framework3api7metrics20calculate_percentile
FN:113,_RNvXs_NtNtCsawKQoipWOme_14auth_framework3api7metricsNtB4_10ApiMetricsNtNtCsf36jwlS2r7m_4core7default7Default7default
FN:150,_RNCNvNtNtCscyNIIr1ochp_14auth_framework3api7metrics18metrics_middleware0B7_
FN:61,_RNvMNtNtCscyNIIr1ochp_14auth_framework3api7metricsNtB2_10ApiMetrics11get_metrics
FN:40,_RNvMNtNtCscyNIIr1ochp_14auth_framework3api7metricsNtB2_10ApiMetrics14record_request
FN:46,_RNvMNtNtCscyNIIr1ochp_14auth_framework3api7metricsNtB2_10ApiMetrics15record_response
FN:28,_RNvMNtNtCscyNIIr1ochp_14auth_framework3api7metricsNtB2_10ApiMetrics3new
FN:103,_RNvMNtNtCscyNIIr1ochp_14auth_framework3api7metricsNtB2_10ApiMetrics5reset
FN:173,_RNvMs0_NtNtCscyNIIr1ochp_14auth_framework3api7metricsNtB5_15MetricsSnapshot20to_prometheus_format
FN:150,_RNvNtNtCscyNIIr1ochp_14auth_framework3api7metrics18metrics_middleware
FN:137,_RNvNtNtCscyNIIr1ochp_14auth_framework3api7metrics20calculate_percentile
FN:113,_RNvXs_NtNtCscyNIIr1ochp_14auth_framework3api7metricsNtB4_10ApiMetricsNtNtCsf36jwlS2r7m_4core7default7Default7default
FNDA:0,_RNvMNtNtCsawKQoipWOme_14auth_framework3api7metricsNtB2_10ApiMetrics5reset
FNDA:0,_RNvNtNtCsawKQoipWOme_14auth_framework3api7metrics18metrics_middleware
FNDA:1,_RNvNtNtNtCsawKQoipWOme_14auth_framework3api7metrics5testss_19test_error_tracking
FNDA:1,_RNvNtNtNtCsawKQoipWOme_14auth_framework3api7metrics5testss_22test_prometheus_format
FNDA:1,_RNvNtNtNtCsawKQoipWOme_14auth_framework3api7metrics5testss_23test_metrics_collection
FNDA:1,_RNvNtNtNtCsawKQoipWOme_14auth_framework3api7metrics5testss_27test_percentile_calculation
FNDA:0,_RNCNvNtNtCsawKQoipWOme_14auth_framework3api7metrics18metrics_middleware0B7_
FNDA:3,_RNvMNtNtCsawKQoipWOme_14auth_framework3api7metricsNtB2_10ApiMetrics11get_metrics
FNDA:3,_RNvMNtNtCsawKQoipWOme_14auth_framework3api7metricsNtB2_10ApiMetrics14record_request
FNDA:3,_RNvMNtNtCsawKQoipWOme_14auth_framework3api7metricsNtB2_10ApiMetrics15record_response
FNDA:3,_RNvMNtNtCsawKQoipWOme_14auth_framework3api7metricsNtB2_10ApiMetrics3new
FNDA:1,_RNvMs0_NtNtCsawKQoipWOme_14auth_framework3api7metricsNtB5_15MetricsSnapshot20to_prometheus_format
FNDA:7,_RNvNtNtCsawKQoipWOme_14auth_framework3api7metrics20calculate_percentile
FNDA:0,_RNvXs_NtNtCsawKQoipWOme_14auth_framework3api7metricsNtB4_10ApiMetricsNtNtCsf36jwlS2r7m_4core7default7Default7default
FNDA:0,_RNCNvNtNtCscyNIIr1ochp_14auth_framework3api7metrics18metrics_middleware0B7_
FNDA:0,_RNvMNtNtCscyNIIr1ochp_14auth_framework3api7metricsNtB2_10ApiMetrics11get_metrics
FNDA:0,_RNvMNtNtCscyNIIr1ochp_14auth_framework3api7metricsNtB2_10ApiMetrics14record_request
FNDA:0,_RNvMNtNtCscyNIIr1ochp_14auth_framework3api7metricsNtB2_10ApiMetrics15record_response
FNDA:0,_RNvMNtNtCscyNIIr1ochp_14auth_framework3api7metricsNtB2_10ApiMetrics3new
FNDA:0,_RNvMNtNtCscyNIIr1ochp_14auth_framework3api7metricsNtB2_10ApiMetrics5reset
FNDA:0,_RNvMs0_NtNtCscyNIIr1ochp_14auth_framework3api7metricsNtB5_15MetricsSnapshot20to_prometheus_format
FNDA:0,_RNvNtNtCscyNIIr1ochp_14auth_framework3api7metrics18metrics_middleware
FNDA:0,_RNvNtNtCscyNIIr1ochp_14auth_framework3api7metrics20calculate_percentile
FNDA:0,_RNvXs_NtNtCscyNIIr1ochp_14auth_framework3api7metricsNtB4_10ApiMetricsNtNtCsf36jwlS2r7m_4core7default7Default7default
FNF:14
FNH:10
DA:28,3
DA:29,3
DA:30,3
DA:31,3
DA:32,3
DA:33,3
DA:34,3
DA:35,3
DA:36,3
DA:37,3
DA:38,3
DA:40,3
DA:41,3
DA:42,3
DA:43,3
DA:44,3
DA:46,3
DA:47,3
DA:48,3
DA:49,3
DA:50,3
DA:51,3
DA:52,3
DA:54,3
DA:55,1
DA:56,2
DA:58,3
DA:59,3
DA:61,3
DA:62,3
DA:63,3
DA:65,3
DA:66,3
DA:67,3
DA:69,3
DA:70,3
DA:72,0
DA:75,3
DA:76,3
DA:78,3
DA:79,3
DA:81,3
DA:82,3
DA:83,3
DA:84,3
DA:86,0
DA:88,3
DA:89,3
DA:90,3
DA:95,3
DA:96,3
DA:97,3
DA:98,3
DA:99,3
DA:100,3
DA:101,3
DA:103,0
DA:104,0
DA:105,0
DA:106,0
DA:107,0
DA:108,0
DA:109,0
DA:113,0
DA:114,0
DA:115,0
DA:137,7
DA:138,7
DA:139,0
DA:140,7
DA:142,7
DA:143,7
DA:145,7
DA:146,7
DA:147,7
DA:150,0
DA:151,0
DA:152,0
DA:155,0
DA:156,0
DA:157,0
DA:158,0
DA:159,0
DA:161,0
DA:163,0
DA:164,0
DA:166,0
DA:168,0
DA:169,0
DA:173,1
DA:174,1
DA:177,1
DA:178,1
DA:179,1
DA:180,1
DA:181,1
DA:182,1
DA:184,1
DA:185,1
DA:186,1
DA:187,1
DA:188,1
DA:189,1
DA:191,1
DA:192,1
DA:193,1
DA:194,1
DA:195,1
DA:196,1
DA:199,2
DA:200,1
DA:201,1
DA:202,1
DA:203,1
DA:204,1
DA:205,1
DA:206,1
DA:207,1
DA:208,1
DA:209,1
DA:210,1
DA:211,1
DA:212,1
DA:213,1
DA:214,1
DA:215,1
DA:216,1
DA:217,1
DA:218,1
DA:219,1
DA:220,1
DA:221,1
DA:222,1
DA:223,1
DA:225,1
DA:226,1
DA:234,1
DA:235,1
DA:237,1
DA:238,1
DA:240,1
DA:241,1
DA:242,1
DA:243,1
DA:244,1
DA:247,1
DA:248,1
DA:250,1
DA:251,1
DA:252,1
DA:253,1
DA:257,1
DA:258,1
DA:259,1
DA:260,1
DA:263,1
DA:264,1
DA:265,1
DA:266,1
DA:267,1
DA:268,1
DA:269,1
DA:272,1
DA:273,1
DA:274,1
DA:277,1
DA:278,1
DA:279,1
DA:280,1
DA:282,1
DA:283,1
DA:285,1
DA:286,1
DA:287,1
DA:288,1
BRF:0
BRH:0
LF:176
LH:148
end_of_record
SF:C:\Users\cires\OneDrive\Documents\projects\AuthFramework\src\api\mfa.rs
FN:86,_RNvNtNtCsawKQoipWOme_14auth_framework3api3mfa10verify_mfa
FN:121,_RNvNtNtCsawKQoipWOme_14auth_framework3api3mfa11disable_mfa
FN:152,_RNvNtNtCsawKQoipWOme_14auth_framework3api3mfa14get_mfa_status
FN:228,_RNvNtNtCsawKQoipWOme_14auth_framework3api3mfa18verify_backup_code
FN:246,_RNvNtNtCsawKQoipWOme_14auth_framework3api3mfa21check_user_mfa_status
FN:265,_RNvNtNtCsawKQoipWOme_14auth_framework3api3mfa22get_backup_codes_count
FN:187,_RNvNtNtCsawKQoipWOme_14auth_framework3api3mfa23regenerate_backup_codes
FN:40,_RNvNtNtCsawKQoipWOme_14auth_framework3api3mfa9setup_mfa
FN:95,_RNCNCNvNtNtCsawKQoipWOme_14auth_framework3api3mfa10verify_mfa00B9_
FN:258,_RNCNCNvNtNtCsawKQoipWOme_14auth_framework3api3mfa21check_user_mfa_status00B9_
FN:275,_RNCNCNvNtNtCsawKQoipWOme_14auth_framework3api3mfa22get_backup_codes_count00B9_
FN:276,_RNCNCNvNtNtCsawKQoipWOme_14auth_framework3api3mfa22get_backup_codes_count0s_0B9_
FN:90,_RNCNvNtNtCsawKQoipWOme_14auth_framework3api3mfa10verify_mfa0B7_
FN:125,_RNCNvNtNtCsawKQoipWOme_14auth_framework3api3mfa11disable_mfa0B7_
FN:155,_RNCNvNtNtCsawKQoipWOme_14auth_framework3api3mfa14get_mfa_status0B7_
FN:231,_RNCNvNtNtCsawKQoipWOme_14auth_framework3api3mfa18verify_backup_code0B7_
FN:249,_RNCNvNtNtCsawKQoipWOme_14auth_framework3api3mfa21check_user_mfa_status0B7_
FN:268,_RNCNvNtNtCsawKQoipWOme_14auth_framework3api3mfa22get_backup_codes_count0B7_
FN:190,_RNCNvNtNtCsawKQoipWOme_14auth_framework3api3mfa23regenerate_backup_codes0B7_
FN:43,_RNCNvNtNtCsawKQoipWOme_14auth_framework3api3mfa9setup_mfa0B7_
FN:95,_RNCNCNvNtNtCscyNIIr1ochp_14auth_framework3api3mfa10verify_mfa00B9_
FN:258,_RNCNCNvNtNtCscyNIIr1ochp_14auth_framework3api3mfa21check_user_mfa_status00B9_
FN:275,_RNCNCNvNtNtCscyNIIr1ochp_14auth_framework3api3mfa22get_backup_codes_count00B9_
FN:276,_RNCNCNvNtNtCscyNIIr1ochp_14auth_framework3api3mfa22get_backup_codes_count0s_0B9_
FN:90,_RNCNvNtNtCscyNIIr1ochp_14auth_framework3api3mfa10verify_mfa0B7_
FN:125,_RNCNvNtNtCscyNIIr1ochp_14auth_framework3api3mfa11disable_mfa0B7_
FN:155,_RNCNvNtNtCscyNIIr1ochp_14auth_framework3api3mfa14get_mfa_status0B7_
FN:231,_RNCNvNtNtCscyNIIr1ochp_14auth_framework3api3mfa18verify_backup_code0B7_
FN:249,_RNCNvNtNtCscyNIIr1ochp_14auth_framework3api3mfa21check_user_mfa_status0B7_
FN:268,_RNCNvNtNtCscyNIIr1ochp_14auth_framework3api3mfa22get_backup_codes_count0B7_
FN:190,_RNCNvNtNtCscyNIIr1ochp_14auth_framework3api3mfa23regenerate_backup_codes0B7_
FN:43,_RNCNvNtNtCscyNIIr1ochp_14auth_framework3api3mfa9setup_mfa0B7_
FN:86,_RNvNtNtCscyNIIr1ochp_14auth_framework3api3mfa10verify_mfa
FN:121,_RNvNtNtCscyNIIr1ochp_14auth_framework3api3mfa11disable_mfa
FN:152,_RNvNtNtCscyNIIr1ochp_14auth_framework3api3mfa14get_mfa_status
FN:228,_RNvNtNtCscyNIIr1ochp_14auth_framework3api3mfa18verify_backup_code
FN:246,_RNvNtNtCscyNIIr1ochp_14auth_framework3api3mfa21check_user_mfa_status
FN:265,_RNvNtNtCscyNIIr1ochp_14auth_framework3api3mfa22get_backup_codes_count
FN:187,_RNvNtNtCscyNIIr1ochp_14auth_framework3api3mfa23regenerate_backup_codes
FN:40,_RNvNtNtCscyNIIr1ochp_14auth_framework3api3mfa9setup_mfa
FNDA:0,_RNvNtNtCsawKQoipWOme_14auth_framework3api3mfa10verify_mfa
FNDA:0,_RNvNtNtCsawKQoipWOme_14auth_framework3api3mfa11disable_mfa
FNDA:0,_RNvNtNtCsawKQoipWOme_14auth_framework3api3mfa14get_mfa_status
FNDA:0,_RNvNtNtCsawKQoipWOme_14auth_framework3api3mfa18verify_backup_code
FNDA:0,_RNvNtNtCsawKQoipWOme_14auth_framework3api3mfa21check_user_mfa_status
FNDA:0,_RNvNtNtCsawKQoipWOme_14auth_framework3api3mfa22get_backup_codes_count
FNDA:0,_RNvNtNtCsawKQoipWOme_14auth_framework3api3mfa23regenerate_backup_codes
FNDA:0,_RNvNtNtCsawKQoipWOme_14auth_framework3api3mfa9setup_mfa
FNDA:0,_RNCNCNvNtNtCsawKQoipWOme_14auth_framework3api3mfa10verify_mfa00B9_
FNDA:0,_RNCNCNvNtNtCsawKQoipWOme_14auth_framework3api3mfa21check_user_mfa_status00B9_
FNDA:0,_RNCNCNvNtNtCsawKQoipWOme_14auth_framework3api3mfa22get_backup_codes_count00B9_
FNDA:0,_RNCNCNvNtNtCsawKQoipWOme_14auth_framework3api3mfa22get_backup_codes_count0s_0B9_
FNDA:0,_RNCNvNtNtCsawKQoipWOme_14auth_framework3api3mfa10verify_mfa0B7_
FNDA:0,_RNCNvNtNtCsawKQoipWOme_14auth_framework3api3mfa11disable_mfa0B7_
FNDA:0,_RNCNvNtNtCsawKQoipWOme_14auth_framework3api3mfa14get_mfa_status0B7_
FNDA:0,_RNCNvNtNtCsawKQoipWOme_14auth_framework3api3mfa18verify_backup_code0B7_
FNDA:0,_RNCNvNtNtCsawKQoipWOme_14auth_framework3api3mfa21check_user_mfa_status0B7_
FNDA:0,_RNCNvNtNtCsawKQoipWOme_14auth_framework3api3mfa22get_backup_codes_count0B7_
FNDA:0,_RNCNvNtNtCsawKQoipWOme_14auth_framework3api3mfa23regenerate_backup_codes0B7_
FNDA:0,_RNCNvNtNtCsawKQoipWOme_14auth_framework3api3mfa9setup_mfa0B7_
FNDA:0,_RNCNCNvNtNtCscyNIIr1ochp_14auth_framework3api3mfa10verify_mfa00B9_
FNDA:0,_RNCNCNvNtNtCscyNIIr1ochp_14auth_framework3api3mfa21check_user_mfa_status00B9_
FNDA:0,_RNCNCNvNtNtCscyNIIr1ochp_14auth_framework3api3mfa22get_backup_codes_count00B9_
FNDA:0,_RNCNCNvNtNtCscyNIIr1ochp_14auth_framework3api3mfa22get_backup_codes_count0s_0B9_
FNDA:0,_RNCNvNtNtCscyNIIr1ochp_14auth_framework3api3mfa10verify_mfa0B7_
FNDA:0,_RNCNvNtNtCscyNIIr1ochp_14auth_framework3api3mfa11disable_mfa0B7_
FNDA:0,_RNCNvNtNtCscyNIIr1ochp_14auth_framework3api3mfa14get_mfa_status0B7_
FNDA:0,_RNCNvNtNtCscyNIIr1ochp_14auth_framework3api3mfa18verify_backup_code0B7_
FNDA:0,_RNCNvNtNtCscyNIIr1ochp_14auth_framework3api3mfa21check_user_mfa_status0B7_
FNDA:0,_RNCNvNtNtCscyNIIr1ochp_14auth_framework3api3mfa22get_backup_codes_count0B7_
FNDA:0,_RNCNvNtNtCscyNIIr1ochp_14auth_framework3api3mfa23regenerate_backup_codes0B7_
FNDA:0,_RNCNvNtNtCscyNIIr1ochp_14auth_framework3api3mfa9setup_mfa0B7_
FNDA:0,_RNvNtNtCscyNIIr1ochp_14auth_framework3api3mfa10verify_mfa
FNDA:0,_RNvNtNtCscyNIIr1ochp_14auth_framework3api3mfa11disable_mfa
FNDA:0,_RNvNtNtCscyNIIr1ochp_14auth_framework3api3mfa14get_mfa_status
FNDA:0,_RNvNtNtCscyNIIr1ochp_14auth_framework3api3mfa18verify_backup_code
FNDA:0,_RNvNtNtCscyNIIr1ochp_14auth_framework3api3mfa21check_user_mfa_status
FNDA:0,_RNvNtNtCscyNIIr1ochp_14auth_framework3api3mfa22get_backup_codes_count
FNDA:0,_RNvNtNtCscyNIIr1ochp_14auth_framework3api3mfa23regenerate_backup_codes
FNDA:0,_RNvNtNtCscyNIIr1ochp_14auth_framework3api3mfa9setup_mfa
FNF:20
FNH:0
DA:40,0
DA:41,0
DA:42,0
DA:43,0
DA:44,0
DA:45,0
DA:46,0
DA:47,0
DA:54,0
DA:55,0
DA:56,0
DA:60,0
DA:61,0
DA:62,0
DA:63,0
DA:64,0
DA:65,0
DA:68,0
DA:69,0
DA:70,0
DA:71,0
DA:72,0
DA:74,0
DA:75,0
DA:77,0
DA:80,0
DA:82,0
DA:86,0
DA:87,0
DA:88,0
DA:89,0
DA:90,0
DA:91,0
DA:92,0
DA:93,0
DA:95,0
DA:96,0
DA:97,0
DA:99,0
DA:100,0
DA:101,0
DA:102,0
DA:109,0
DA:110,0
DA:112,0
DA:115,0
DA:117,0
DA:121,0
DA:122,0
DA:123,0
DA:124,0
DA:125,0
DA:126,0
DA:127,0
DA:128,0
DA:130,0
DA:131,0
DA:132,0
DA:133,0
DA:140,0
DA:141,0
DA:143,0
DA:146,0
DA:148,0
DA:152,0
DA:153,0
DA:154,0
DA:155,0
DA:156,0
DA:157,0
DA:158,0
DA:159,0
DA:161,0
DA:162,0
DA:163,0
DA:164,0
DA:166,0
DA:167,0
DA:168,0
DA:169,0
DA:171,0
DA:173,0
DA:176,0
DA:178,0
DA:181,0
DA:183,0
DA:187,0
DA:188,0
DA:189,0
DA:190,0
DA:191,0
DA:192,0
DA:193,0
DA:194,0
DA:201,0
DA:202,0
DA:203,0
DA:204,0
DA:205,0
DA:206,0
DA:209,0
DA:210,0
DA:212,0
DA:213,0
DA:217,0
DA:219,0
DA:228,0
DA:229,0
DA:230,0
DA:231,0
DA:232,0
DA:233,0
DA:234,0
DA:241,0
DA:242,0
DA:243,0
DA:246,0
DA:247,0
DA:248,0
DA:249,0
DA:252,0
DA:253,0
DA:255,0
DA:256,0
DA:257,0
DA:258,0
DA:259,0
DA:261,0
DA:263,0
DA:265,0
DA:266,0
DA:267,0
DA:268,0
DA:271,0
DA:272,0
DA:273,0
DA:274,0
DA:275,0
DA:276,0
DA:277,0
DA:278,0
DA:280,0
BRF:0
BRH:0
LF:154
LH:0
end_of_record
SF:C:\Users\cires\OneDrive\Documents\projects\AuthFramework\src\api\middleware.rs
FN:204,_RNCNvNtNtCsawKQoipWOme_14auth_framework3api10middleware16check_permission0B7_
FN:212,_RNvNtNtCsawKQoipWOme_14auth_framework3api10middleware10check_role
FN:14,_RNvNtNtCsawKQoipWOme_14auth_framework3api10middleware15auth_middleware
FN:90,_RNvNtNtCsawKQoipWOme_14auth_framework3api10middleware15cors_middleware
FN:50,_RNvNtNtCsawKQoipWOme_14auth_framework3api10middleware16admin_middleware
FN:203,_RNvNtNtCsawKQoipWOme_14auth_framework3api10middleware16check_permission
FN:192,_RNvNtNtCsawKQoipWOme_14auth_framework3api10middleware18is_public_endpoint
FN:111,_RNvNtNtCsawKQoipWOme_14auth_framework3api10middleware18logging_middleware
FN:179,_RNvNtNtCsawKQoipWOme_14auth_framework3api10middleware18timeout_middleware
FN:74,_RNvNtNtCsawKQoipWOme_14auth_framework3api10middleware21rate_limit_middleware
FN:152,_RNvNtNtCsawKQoipWOme_14auth_framework3api10middleware27security_headers_middleware
FN:120,_RNCNCNvNtNtCsawKQoipWOme_14auth_framework3api10middleware18logging_middleware00B9_
FN:125,_RNCNCNvNtNtCsawKQoipWOme_14auth_framework3api10middleware18logging_middleware0s_0B9_
FN:18,_RNCNvNtNtCsawKQoipWOme_14auth_framework3api10middleware15auth_middleware0B7_
FN:90,_RNCNvNtNtCsawKQoipWOme_14auth_framework3api10middleware15cors_middleware0B7_
FN:54,_RNCNvNtNtCsawKQoipWOme_14auth_framework3api10middleware16admin_middleware0B7_
FN:111,_RNCNvNtNtCsawKQoipWOme_14auth_framework3api10middleware18logging_middleware0B7_
FN:179,_RNCNvNtNtCsawKQoipWOme_14auth_framework3api10middleware18timeout_middleware0B7_
FN:74,_RNCNvNtNtCsawKQoipWOme_14auth_framework3api10middleware21rate_limit_middleware0B7_
FN:152,_RNCNvNtNtCsawKQoipWOme_14auth_framework3api10middleware27security_headers_middleware0B7_
FN:212,_RNvNtNtCscyNIIr1ochp_14auth_framework3api10middleware10check_role
FN:14,_RNvNtNtCscyNIIr1ochp_14auth_framework3api10middleware15auth_middleware
FN:90,_RNvNtNtCscyNIIr1ochp_14auth_framework3api10middleware15cors_middleware
FN:50,_RNvNtNtCscyNIIr1ochp_14auth_framework3api10middleware16admin_middleware
FN:203,_RNvNtNtCscyNIIr1ochp_14auth_framework3api10middleware16check_permission
FN:192,_RNvNtNtCscyNIIr1ochp_14auth_framework3api10middleware18is_public_endpoint
FN:111,_RNvNtNtCscyNIIr1ochp_14auth_framework3api10middleware18logging_middleware
FN:179,_RNvNtNtCscyNIIr1ochp_14auth_framework3api10middleware18timeout_middleware
FN:74,_RNvNtNtCscyNIIr1ochp_14auth_framework3api10middleware21rate_limit_middleware
FN:152,_RNvNtNtCscyNIIr1ochp_14auth_framework3api10middleware27security_headers_middleware
FN:120,_RNCNCNvNtNtCscyNIIr1ochp_14auth_framework3api10middleware18logging_middleware00B9_
FN:125,_RNCNCNvNtNtCscyNIIr1ochp_14auth_framework3api10middleware18logging_middleware0s_0B9_
FN:18,_RNCNvNtNtCscyNIIr1ochp_14auth_framework3api10middleware15auth_middleware0B7_
FN:90,_RNCNvNtNtCscyNIIr1ochp_14auth_framework3api10middleware15cors_middleware0B7_
FN:54,_RNCNvNtNtCscyNIIr1ochp_14auth_framework3api10middleware16admin_middleware0B7_
FN:204,_RNCNvNtNtCscyNIIr1ochp_14auth_framework3api10middleware16check_permission0B7_
FN:111,_RNCNvNtNtCscyNIIr1ochp_14auth_framework3api10middleware18logging_middleware0B7_
FN:179,_RNCNvNtNtCscyNIIr1ochp_14auth_framework3api10middleware18timeout_middleware0B7_
FN:74,_RNCNvNtNtCscyNIIr1ochp_14auth_framework3api10middleware21rate_limit_middleware0B7_
FN:152,_RNCNvNtNtCscyNIIr1ochp_14auth_framework3api10middleware27security_headers_middleware0B7_
FNDA:0,_RNCNvNtNtCsawKQoipWOme_14auth_framework3api10middleware16check_permission0B7_
FNDA:0,_RNvNtNtCsawKQoipWOme_14auth_framework3api10middleware10check_role
FNDA:0,_RNvNtNtCsawKQoipWOme_14auth_framework3api10middleware15auth_middleware
FNDA:0,_RNvNtNtCsawKQoipWOme_14auth_framework3api10middleware15cors_middleware
FNDA:0,_RNvNtNtCsawKQoipWOme_14auth_framework3api10middleware16admin_middleware
FNDA:0,_RNvNtNtCsawKQoipWOme_14auth_framework3api10middleware16check_permission
FNDA:0,_RNvNtNtCsawKQoipWOme_14auth_framework3api10middleware18is_public_endpoint
FNDA:0,_RNvNtNtCsawKQoipWOme_14auth_framework3api10middleware18logging_middleware
FNDA:0,_RNvNtNtCsawKQoipWOme_14auth_framework3api10middleware18timeout_middleware
FNDA:0,_RNvNtNtCsawKQoipWOme_14auth_framework3api10middleware21rate_limit_middleware
FNDA:0,_RNvNtNtCsawKQoipWOme_14auth_framework3api10middleware27security_headers_middleware
FNDA:0,_RNCNCNvNtNtCsawKQoipWOme_14auth_framework3api10middleware18logging_middleware00B9_
FNDA:0,_RNCNCNvNtNtCsawKQoipWOme_14auth_framework3api10middleware18logging_middleware0s_0B9_
FNDA:0,_RNCNvNtNtCsawKQoipWOme_14auth_framework3api10middleware15auth_middleware0B7_
FNDA:0,_RNCNvNtNtCsawKQoipWOme_14auth_framework3api10middleware15cors_middleware0B7_
FNDA:0,_RNCNvNtNtCsawKQoipWOme_14auth_framework3api10middleware16admin_middleware0B7_
FNDA:0,_RNCNvNtNtCsawKQoipWOme_14auth_framework3api10middleware18logging_middleware0B7_
FNDA:0,_RNCNvNtNtCsawKQoipWOme_14auth_framework3api10middleware18timeout_middleware0B7_
FNDA:0,_RNCNvNtNtCsawKQoipWOme_14auth_framework3api10middleware21rate_limit_middleware0B7_
FNDA:0,_RNCNvNtNtCsawKQoipWOme_14auth_framework3api10middleware27security_headers_middleware0B7_
FNDA:0,_RNvNtNtCscyNIIr1ochp_14auth_framework3api10middleware10check_role
FNDA:0,_RNvNtNtCscyNIIr1ochp_14auth_framework3api10middleware15auth_middleware
FNDA:0,_RNvNtNtCscyNIIr1ochp_14auth_framework3api10middleware15cors_middleware
FNDA:0,_RNvNtNtCscyNIIr1ochp_14auth_framework3api10middleware16admin_middleware
FNDA:0,_RNvNtNtCscyNIIr1ochp_14auth_framework3api10middleware16check_permission
FNDA:0,_RNvNtNtCscyNIIr1ochp_14auth_framework3api10middleware18is_public_endpoint
FNDA:0,_RNvNtNtCscyNIIr1ochp_14auth_framework3api10middleware18logging_middleware
FNDA:0,_RNvNtNtCscyNIIr1ochp_14auth_framework3api10middleware18timeout_middleware
FNDA:0,_RNvNtNtCscyNIIr1ochp_14auth_framework3api10middleware21rate_limit_middleware
FNDA:0,_RNvNtNtCscyNIIr1ochp_14auth_framework3api10middleware27security_headers_middleware
FNDA:0,_RNCNCNvNtNtCscyNIIr1ochp_14auth_framework3api10middleware18logging_middleware00B9_
FNDA:0,_RNCNCNvNtNtCscyNIIr1ochp_14auth_framework3api10middleware18logging_middleware0s_0B9_
FNDA:0,_RNCNvNtNtCscyNIIr1ochp_14auth_framework3api10middleware15auth_middleware0B7_
FNDA:0,_RNCNvNtNtCscyNIIr1ochp_14auth_framework3api10middleware15cors_middleware0B7_
FNDA:0,_RNCNvNtNtCscyNIIr1ochp_14auth_framework3api10middleware16admin_middleware0B7_
FNDA:0,_RNCNvNtNtCscyNIIr1ochp_14auth_framework3api10middleware16check_permission0B7_
FNDA:0,_RNCNvNtNtCscyNIIr1ochp_14auth_framework3api10middleware18logging_middleware0B7_
FNDA:0,_RNCNvNtNtCscyNIIr1ochp_14auth_framework3api10middleware18timeout_middleware0B7_
FNDA:0,_RNCNvNtNtCscyNIIr1ochp_14auth_framework3api10middleware21rate_limit_middleware0B7_
FNDA:0,_RNCNvNtNtCscyNIIr1ochp_14auth_framework3api10middleware27security_headers_middleware0B7_
FNF:20
FNH:0
DA:14,0
DA:15,0
DA:16,0
DA:17,0
DA:18,0
DA:20,0
DA:21,0
DA:22,0
DA:23,0
DA:26,0
DA:27,0
DA:28,0
DA:30,0
DA:31,0
DA:33,0
DA:34,0
DA:37,0
DA:38,0
DA:43,0
DA:44,0
DA:47,0
DA:50,0
DA:51,0
DA:52,0
DA:53,0
DA:54,0
DA:56,0
DA:57,0
DA:58,0
DA:59,0
DA:61,0
DA:62,0
DA:67,0
DA:68,0
DA:71,0
DA:74,0
DA:78,0
DA:81,0
DA:82,0
DA:83,0
DA:84,0
DA:86,0
DA:87,0
DA:90,0
DA:91,0
DA:93,0
DA:94,0
DA:96,0
DA:97,0
DA:99,0
DA:101,0
DA:103,0
DA:105,0
DA:107,0
DA:108,0
DA:111,0
DA:112,0
DA:113,0
DA:114,0
DA:115,0
DA:118,0
DA:119,0
DA:120,0
DA:121,0
DA:123,0
DA:124,0
DA:125,0
DA:126,0
DA:128,0
DA:129,0
DA:136,0
DA:137,0
DA:138,0
DA:140,0
DA:141,0
DA:148,0
DA:149,0
DA:152,0
DA:153,0
DA:155,0
DA:156,0
DA:159,0
DA:160,0
DA:161,0
DA:162,0
DA:164,0
DA:166,0
DA:168,0
DA:170,0
DA:172,0
DA:175,0
DA:176,0
DA:179,0
DA:181,0
DA:182,0
DA:184,0
DA:185,0
DA:186,0
DA:189,0
DA:192,0
DA:193,0
DA:194,0
DA:195,0
DA:196,0
DA:197,0
DA:198,0
DA:200,0
DA:203,0
DA:204,0
DA:205,0
DA:206,0
DA:207,0
DA:208,0
DA:209,0
DA:212,0
DA:213,0
DA:214,0
DA:215,0
BRF:0
BRH:0
LF:128
LH:0
end_of_record
SF:C:\Users\cires\OneDrive\Documents\projects\AuthFramework\src\api\mod.rs
FN:52,_RNvMNtCsawKQoipWOme_14auth_framework3apiNtB2_8ApiState26with_authorization_service
FN:96,_RNCNCNvNtCsawKQoipWOme_14auth_framework3api18validate_api_token00B7_
FN:41,_RNCNvMNtCsawKQoipWOme_14auth_framework3apiNtB4_8ApiState3new0B6_
FN:76,_RNCNvNtCsawKQoipWOme_14auth_framework3api18validate_api_token0B5_
FN:67,_RNCNvNtCsawKQoipWOme_14auth_framework3api20extract_bearer_token0B5_
FN:69,_RNCNvNtCsawKQoipWOme_14auth_framework3api20extract_bearer_tokens0_0B5_
FN:68,_RNCNvNtCsawKQoipWOme_14auth_framework3api20extract_bearer_tokens_0B5_
FN:41,_RNvMNtCsawKQoipWOme_14auth_framework3apiNtB2_8ApiState3new
FN:73,_RNvNtCsawKQoipWOme_14auth_framework3api18validate_api_token
FN:64,_RNvNtCsawKQoipWOme_14auth_framework3api20extract_bearer_token
FN:41,_RNCNvMNtCscyNIIr1ochp_14auth_framework3apiNtB4_8ApiState3new0B6_
FN:96,_RNCNCNvNtCscyNIIr1ochp_14auth_framework3api18validate_api_token00B7_
FN:76,_RNCNvNtCscyNIIr1ochp_14auth_framework3api18validate_api_token0B5_
FN:67,_RNCNvNtCscyNIIr1ochp_14auth_framework3api20extract_bearer_token0B5_
FN:69,_RNCNvNtCscyNIIr1ochp_14auth_framework3api20extract_bearer_tokens0_0B5_
FN:68,_RNCNvNtCscyNIIr1ochp_14auth_framework3api20extract_bearer_tokens_0B5_
FN:52,_RNvMNtCscyNIIr1ochp_14auth_framework3apiNtB2_8ApiState26with_authorization_service
FN:41,_RNvMNtCscyNIIr1ochp_14auth_framework3apiNtB2_8ApiState3new
FN:73,_RNvNtCscyNIIr1ochp_14auth_framework3api18validate_api_token
FN:64,_RNvNtCscyNIIr1ochp_14auth_framework3api20extract_bearer_token
FNDA:0,_RNvMNtCsawKQoipWOme_14auth_framework3apiNtB2_8ApiState26with_authorization_service
FNDA:0,_RNCNCNvNtCsawKQoipWOme_14auth_framework3api18validate_api_token00B7_
FNDA:0,_RNCNvMNtCsawKQoipWOme_14auth_framework3apiNtB4_8ApiState3new0B6_
FNDA:0,_RNCNvNtCsawKQoipWOme_14auth_framework3api18validate_api_token0B5_
FNDA:0,_RNCNvNtCsawKQoipWOme_14auth_framework3api20extract_bearer_token0B5_
FNDA:0,_RNCNvNtCsawKQoipWOme_14auth_framework3api20extract_bearer_tokens0_0B5_
FNDA:0,_RNCNvNtCsawKQoipWOme_14auth_framework3api20extract_bearer_tokens_0B5_
FNDA:0,_RNvMNtCsawKQoipWOme_14auth_framework3apiNtB2_8ApiState3new
FNDA:0,_RNvNtCsawKQoipWOme_14auth_framework3api18validate_api_token
FNDA:0,_RNvNtCsawKQoipWOme_14auth_framework3api20extract_bearer_token
FNDA:0,_RNCNvMNtCscyNIIr1ochp_14auth_framework3apiNtB4_8ApiState3new0B6_
FNDA:0,_RNCNCNvNtCscyNIIr1ochp_14auth_framework3api18validate_api_token00B7_
FNDA:0,_RNCNvNtCscyNIIr1ochp_14auth_framework3api18validate_api_token0B5_
FNDA:0,_RNCNvNtCscyNIIr1ochp_14auth_framework3api20extract_bearer_token0B5_
FNDA:0,_RNCNvNtCscyNIIr1ochp_14auth_framework3api20extract_bearer_tokens0_0B5_
FNDA:0,_RNCNvNtCscyNIIr1ochp_14auth_framework3api20extract_bearer_tokens_0B5_
FNDA:0,_RNvMNtCscyNIIr1ochp_14auth_framework3apiNtB2_8ApiState26with_authorization_service
FNDA:0,_RNvMNtCscyNIIr1ochp_14auth_framework3apiNtB2_8ApiState3new
FNDA:0,_RNvNtCscyNIIr1ochp_14auth_framework3api18validate_api_token
FNDA:0,_RNvNtCscyNIIr1ochp_14auth_framework3api20extract_bearer_token
FNF:10
FNH:0
DA:41,0
DA:43,0
DA:45,0
DA:46,0
DA:49,0
DA:52,0
DA:53,0
DA:54,0
DA:55,0
DA:56,0
DA:57,0
DA:58,0
DA:59,0
DA:60,0
DA:64,0
DA:65,0
DA:66,0
DA:67,0
DA:68,0
DA:69,0
DA:70,0
DA:73,0
DA:74,0
DA:75,0
DA:76,0
DA:78,0
DA:82,0
DA:83,0
DA:84,0
DA:85,0
DA:86,0
DA:87,0
DA:88,0
DA:89,0
DA:90,0
DA:91,0
DA:92,0
DA:93,0
DA:94,0
DA:95,0
DA:96,0
DA:97,0
DA:98,0
DA:99,0
DA:100,0
DA:101,0
DA:102,0
DA:103,0
DA:104,0
DA:105,0
DA:106,0
DA:108,0
BRF:0
BRH:0
LF:58
LH:0
end_of_record
SF:C:\Users\cires\OneDrive\Documents\projects\AuthFramework\src\api\oauth.rs
FN:244,_RNCNvNtNtCsawKQoipWOme_14auth_framework3api5oauth12revoke_token0B7_
FN:320,_RNCNvNtNtCsawKQoipWOme_14auth_framework3api5oauth15get_client_info0B7_
FN:289,_RNCNvNtNtCsawKQoipWOme_14auth_framework3api5oauth16introspect_token0B7_
FN:187,_RNCNvNtNtCsawKQoipWOme_14auth_framework3api5oauth26handle_refresh_token_grant0B7_
FN:154,_RNCNvNtNtCsawKQoipWOme_14auth_framework3api5oauth31handle_authorization_code_grant0B7_
FN:214,_RNCNvNtNtCsawKQoipWOme_14auth_framework3api5oauth31handle_client_credentials_grant0B7_
FN:138,_RNCNvNtNtCsawKQoipWOme_14auth_framework3api5oauth5token0B7_
FN:79,_RNCNvNtNtCsawKQoipWOme_14auth_framework3api5oauth9authorize0B7_
FN:241,_RNvNtNtCsawKQoipWOme_14auth_framework3api5oauth12revoke_token
FN:317,_RNvNtNtCsawKQoipWOme_14auth_framework3api5oauth15get_client_info
FN:286,_RNvNtNtCsawKQoipWOme_14auth_framework3api5oauth16introspect_token
FN:184,_RNvNtNtCsawKQoipWOme_14auth_framework3api5oauth26handle_refresh_token_grant
FN:151,_RNvNtNtCsawKQoipWOme_14auth_framework3api5oauth31handle_authorization_code_grant
FN:211,_RNvNtNtCsawKQoipWOme_14auth_framework3api5oauth31handle_client_credentials_grant
FN:134,_RNvNtNtCsawKQoipWOme_14auth_framework3api5oauth5token
FN:76,_RNvNtNtCsawKQoipWOme_14auth_framework3api5oauth9authorize
FN:241,_RNvNtNtCscyNIIr1ochp_14auth_framework3api5oauth12revoke_token
FN:317,_RNvNtNtCscyNIIr1ochp_14auth_framework3api5oauth15get_client_info
FN:286,_RNvNtNtCscyNIIr1ochp_14auth_framework3api5oauth16introspect_token
FN:184,_RNvNtNtCscyNIIr1ochp_14auth_framework3api5oauth26handle_refresh_token_grant
FN:151,_RNvNtNtCscyNIIr1ochp_14auth_framework3api5oauth31handle_authorization_code_grant
FN:211,_RNvNtNtCscyNIIr1ochp_14auth_framework3api5oauth31handle_client_credentials_grant
FN:134,_RNvNtNtCscyNIIr1ochp_14auth_framework3api5oauth5token
FN:76,_RNvNtNtCscyNIIr1ochp_14auth_framework3api5oauth9authorize
FN:244,_RNCNvNtNtCscyNIIr1ochp_14auth_framework3api5oauth12revoke_token0B7_
FN:320,_RNCNvNtNtCscyNIIr1ochp_14auth_framework3api5oauth15get_client_info0B7_
FN:289,_RNCNvNtNtCscyNIIr1ochp_14auth_framework3api5oauth16introspect_token0B7_
FN:187,_RNCNvNtNtCscyNIIr1ochp_14auth_framework3api5oauth26handle_refresh_token_grant0B7_
FN:154,_RNCNvNtNtCscyNIIr1ochp_14auth_framework3api5oauth31handle_authorization_code_grant0B7_
FN:214,_RNCNvNtNtCscyNIIr1ochp_14auth_framework3api5oauth31handle_client_credentials_grant0B7_
FN:138,_RNCNvNtNtCscyNIIr1ochp_14auth_framework3api5oauth5token0B7_
FN:79,_RNCNvNtNtCscyNIIr1ochp_14auth_framework3api5oauth9authorize0B7_
FNDA:0,_RNCNvNtNtCsawKQoipWOme_14auth_framework3api5oauth12revoke_token0B7_
FNDA:0,_RNCNvNtNtCsawKQoipWOme_14auth_framework3api5oauth15get_client_info0B7_
FNDA:0,_RNCNvNtNtCsawKQoipWOme_14auth_framework3api5oauth16introspect_token0B7_
FNDA:0,_RNCNvNtNtCsawKQoipWOme_14auth_framework3api5oauth26handle_refresh_token_grant0B7_
FNDA:0,_RNCNvNtNtCsawKQoipWOme_14auth_framework3api5oauth31handle_authorization_code_grant0B7_
FNDA:0,_RNCNvNtNtCsawKQoipWOme_14auth_framework3api5oauth31handle_client_credentials_grant0B7_
FNDA:0,_RNCNvNtNtCsawKQoipWOme_14auth_framework3api5oauth5token0B7_
FNDA:0,_RNCNvNtNtCsawKQoipWOme_14auth_framework3api5oauth9authorize0B7_
FNDA:0,_RNvNtNtCsawKQoipWOme_14auth_framework3api5oauth12revoke_token
FNDA:0,_RNvNtNtCsawKQoipWOme_14auth_framework3api5oauth15get_client_info
FNDA:0,_RNvNtNtCsawKQoipWOme_14auth_framework3api5oauth16introspect_token
FNDA:0,_RNvNtNtCsawKQoipWOme_14auth_framework3api5oauth26handle_refresh_token_grant
FNDA:0,_RNvNtNtCsawKQoipWOme_14auth_framework3api5oauth31handle_authorization_code_grant
FNDA:0,_RNvNtNtCsawKQoipWOme_14auth_framework3api5oauth31handle_client_credentials_grant
FNDA:0,_RNvNtNtCsawKQoipWOme_14auth_framework3api5oauth5token
FNDA:0,_RNvNtNtCsawKQoipWOme_14auth_framework3api5oauth9authorize
FNDA:0,_RNvNtNtCscyNIIr1ochp_14auth_framework3api5oauth12revoke_token
FNDA:0,_RNvNtNtCscyNIIr1ochp_14auth_framework3api5oauth15get_client_info
FNDA:0,_RNvNtNtCscyNIIr1ochp_14auth_framework3api5oauth16introspect_token
FNDA:0,_RNvNtNtCscyNIIr1ochp_14auth_framework3api5oauth26handle_refresh_token_grant
FNDA:0,_RNvNtNtCscyNIIr1ochp_14auth_framework3api5oauth31handle_authorization_code_grant
FNDA:0,_RNvNtNtCscyNIIr1ochp_14auth_framework3api5oauth31handle_client_credentials_grant
FNDA:0,_RNvNtNtCscyNIIr1ochp_14auth_framework3api5oauth5token
FNDA:0,_RNvNtNtCscyNIIr1ochp_14auth_framework3api5oauth9authorize
FNDA:0,_RNCNvNtNtCscyNIIr1ochp_14auth_framework3api5oauth12revoke_token0B7_
FNDA:0,_RNCNvNtNtCscyNIIr1ochp_14auth_framework3api5oauth15get_client_info0B7_
FNDA:0,_RNCNvNtNtCscyNIIr1ochp_14auth_framework3api5oauth16introspect_token0B7_
FNDA:0,_RNCNvNtNtCscyNIIr1ochp_14auth_framework3api5oauth26handle_refresh_token_grant0B7_
FNDA:0,_RNCNvNtNtCscyNIIr1ochp_14auth_framework3api5oauth31handle_authorization_code_grant0B7_
FNDA:0,_RNCNvNtNtCscyNIIr1ochp_14auth_framework3api5oauth31handle_client_credentials_grant0B7_
FNDA:0,_RNCNvNtNtCscyNIIr1ochp_14auth_framework3api5oauth5token0B7_
FNDA:0,_RNCNvNtNtCscyNIIr1ochp_14auth_framework3api5oauth9authorize0B7_
FNF:16
FNH:0
DA:76,0
DA:77,0
DA:78,0
DA:79,0
DA:81,0
DA:82,0
DA:83,0
DA:84,0
DA:85,0
DA:86,0
DA:87,0
DA:88,0
DA:89,0
DA:91,0
DA:92,0
DA:93,0
DA:94,0
DA:95,0
DA:96,0
DA:97,0
DA:98,0
DA:99,0
DA:101,0
DA:102,0
DA:103,0
DA:104,0
DA:105,0
DA:106,0
DA:107,0
DA:108,0
DA:109,0
DA:120,0
DA:121,0
DA:123,0
DA:124,0
DA:125,0
DA:126,0
DA:128,0
DA:129,0
DA:130,0
DA:134,0
DA:135,0
DA:136,0
DA:137,0
DA:138,0
DA:140,0
DA:141,0
DA:142,0
DA:143,0
DA:144,0
DA:145,0
DA:146,0
DA:149,0
DA:151,0
DA:152,0
DA:153,0
DA:154,0
DA:156,0
DA:157,0
DA:158,0
DA:160,0
DA:161,0
DA:162,0
DA:171,0
DA:172,0
DA:173,0
DA:174,0
DA:175,0
DA:176,0
DA:177,0
DA:178,0
DA:180,0
DA:181,0
DA:182,0
DA:184,0
DA:185,0
DA:186,0
DA:187,0
DA:188,0
DA:189,0
DA:190,0
DA:198,0
DA:199,0
DA:200,0
DA:201,0
DA:202,0
DA:203,0
DA:204,0
DA:205,0
DA:207,0
DA:208,0
DA:209,0
DA:211,0
DA:212,0
DA:213,0
DA:214,0
DA:220,0
DA:221,0
DA:222,0
DA:223,0
DA:224,0
DA:225,0
DA:226,0
DA:227,0
DA:229,0
DA:230,0
DA:231,0
DA:241,0
DA:242,0
DA:243,0
DA:244,0
DA:245,0
DA:246,0
DA:247,0
DA:255,0
DA:256,0
DA:257,0
DA:286,0
DA:287,0
DA:288,0
DA:289,0
DA:290,0
DA:291,0
DA:292,0
DA:300,0
DA:301,0
DA:302,0
DA:303,0
DA:304,0
DA:305,0
DA:306,0
DA:307,0
DA:308,0
DA:309,0
DA:311,0
DA:312,0
DA:313,0
DA:317,0
DA:318,0
DA:319,0
DA:320,0
DA:322,0
DA:323,0
DA:324,0
DA:325,0
DA:326,0
DA:327,0
DA:328,0
DA:329,0
DA:330,0
DA:331,0
DA:332,0
DA:333,0
DA:334,0
DA:335,0
DA:337,0
DA:338,0
BRF:0
BRH:0
LF:165
LH:0
end_of_record
SF:C:\Users\cires\OneDrive\Documents\projects\AuthFramework\src\api\openapi.rs
FN:253,_RNvNtNtCsawKQoipWOme_14auth_framework3api7openapi18serve_openapi_json
FN:311,_RNvNtNtNtCsawKQoipWOme_14auth_framework3api7openapi5testss_26test_swagger_ui_generation
FN:302,_RNvNtNtNtCsawKQoipWOme_14auth_framework3api7openapi5testss_28test_openapi_spec_generation
FN:56,_RNvNtNtCsawKQoipWOme_14auth_framework3api7openapi14generate_paths
FN:154,_RNvNtNtCsawKQoipWOme_14auth_framework3api7openapi16generate_schemas
FN:258,_RNvNtNtCsawKQoipWOme_14auth_framework3api7openapi19generate_swagger_ui
FN:8,_RNvNtNtCsawKQoipWOme_14auth_framework3api7openapi21generate_openapi_spec
FN:253,_RNCNvNtNtCsawKQoipWOme_14auth_framework3api7openapi18serve_openapi_json0B7_
FN:253,_RNCNvNtNtCscyNIIr1ochp_14auth_framework3api7openapi18serve_openapi_json0B7_
FN:56,_RNvNtNtCscyNIIr1ochp_14auth_framework3api7openapi14generate_paths
FN:154,_RNvNtNtCscyNIIr1ochp_14auth_framework3api7openapi16generate_schemas
FN:253,_RNvNtNtCscyNIIr1ochp_14auth_framework3api7openapi18serve_openapi_json
FN:258,_RNvNtNtCscyNIIr1ochp_14auth_framework3api7openapi19generate_swagger_ui
FN:8,_RNvNtNtCscyNIIr1ochp_14auth_framework3api7openapi21generate_openapi_spec
FNDA:0,_RNvNtNtCsawKQoipWOme_14auth_framework3api7openapi18serve_openapi_json
FNDA:1,_RNvNtNtNtCsawKQoipWOme_14auth_framework3api7openapi5testss_26test_swagger_ui_generation
FNDA:1,_RNvNtNtNtCsawKQoipWOme_14auth_framework3api7openapi5testss_28test_openapi_spec_generation
FNDA:1,_RNvNtNtCsawKQoipWOme_14auth_framework3api7openapi14generate_paths
FNDA:1,_RNvNtNtCsawKQoipWOme_14auth_framework3api7openapi16generate_schemas
FNDA:1,_RNvNtNtCsawKQoipWOme_14auth_framework3api7openapi19generate_swagger_ui
FNDA:1,_RNvNtNtCsawKQoipWOme_14auth_framework3api7openapi21generate_openapi_spec
FNDA:0,_RNCNvNtNtCsawKQoipWOme_14auth_framework3api7openapi18serve_openapi_json0B7_
FNDA:0,_RNCNvNtNtCscyNIIr1ochp_14auth_framework3api7openapi18serve_openapi_json0B7_
FNDA:0,_RNvNtNtCscyNIIr1ochp_14auth_framework3api7openapi14generate_paths
FNDA:0,_RNvNtNtCscyNIIr1ochp_14auth_framework3api7openapi16generate_schemas
FNDA:0,_RNvNtNtCscyNIIr1ochp_14auth_framework3api7openapi18serve_openapi_json
FNDA:0,_RNvNtNtCscyNIIr1ochp_14auth_framework3api7openapi19generate_swagger_ui
FNDA:0,_RNvNtNtCscyNIIr1ochp_14auth_framework3api7openapi21generate_openapi_spec
FNF:8
FNH:6
DA:8,1
DA:9,1
DA:10,1
DA:11,1
DA:12,1
DA:13,1
DA:14,1
DA:15,1
DA:16,1
DA:17,1
DA:19,1
DA:20,1
DA:21,1
DA:24,1
DA:26,1
DA:27,1
DA:30,1
DA:31,1
DA:34,1
DA:35,1
DA:36,1
DA:37,1
DA:38,1
DA:39,1
DA:40,1
DA:41,1
DA:43,1
DA:44,1
DA:45,1
DA:46,1
DA:50,1
DA:51,1
DA:54,1
DA:56,1
DA:57,1
DA:58,1
DA:59,1
DA:60,1
DA:61,1
DA:62,1
DA:63,1
DA:64,1
DA:65,1
DA:66,1
DA:67,1
DA:71,1
DA:72,1
DA:73,1
DA:74,1
DA:75,1
DA:76,1
DA:80,1
DA:81,1
DA:82,1
DA:83,1
DA:84,1
DA:91,1
DA:92,1
DA:93,1
DA:94,1
DA:95,1
DA:96,1
DA:97,1
DA:98,1
DA:99,1
DA:100,1
DA:104,1
DA:105,1
DA:106,1
DA:107,1
DA:108,1
DA:109,1
DA:116,1
DA:117,1
DA:118,1
DA:119,1
DA:120,1
DA:121,1
DA:122,1
DA:123,1
DA:124,1
DA:125,1
DA:126,1
DA:127,1
DA:134,1
DA:135,1
DA:136,1
DA:137,1
DA:138,1
DA:139,1
DA:140,1
DA:141,1
DA:142,1
DA:143,1
DA:144,1
DA:152,1
DA:154,1
DA:155,1
DA:156,1
DA:157,1
DA:158,1
DA:159,1
DA:160,1
DA:161,1
DA:162,1
DA:164,1
DA:165,1
DA:166,1
DA:167,1
DA:169,1
DA:170,1
DA:171,1
DA:173,1
DA:174,1
DA:175,1
DA:176,1
DA:180,1
DA:181,1
DA:182,1
DA:183,1
DA:184,1
DA:185,1
DA:186,1
DA:187,1
DA:188,1
DA:189,1
DA:190,1
DA:191,1
DA:196,1
DA:197,1
DA:198,1
DA:199,1
DA:200,1
DA:201,1
DA:202,1
DA:203,1
DA:205,1
DA:206,1
DA:207,1
DA:211,1
DA:212,1
DA:213,1
DA:214,1
DA:215,1
DA:216,1
DA:217,1
DA:218,1
DA:219,1
DA:220,1
DA:225,1
DA:226,1
DA:227,1
DA:228,1
DA:229,1
DA:232,1
DA:233,1
DA:234,1
DA:235,1
DA:236,1
DA:237,1
DA:238,1
DA:239,1
DA:240,1
DA:241,1
DA:242,1
DA:243,1
DA:250,1
DA:253,0
DA:254,0
DA:255,0
DA:258,1
DA:259,1
DA:260,1
DA:261,1
DA:262,1
DA:263,1
DA:264,1
DA:265,1
DA:266,1
DA:267,1
DA:268,1
DA:269,1
DA:270,1
DA:271,1
DA:272,1
DA:273,1
DA:274,1
DA:275,1
DA:276,1
DA:277,1
DA:278,1
DA:279,1
DA:280,1
DA:281,1
DA:282,1
DA:283,1
DA:284,1
DA:285,1
DA:286,1
DA:287,1
DA:288,1
DA:289,1
DA:290,1
DA:291,1
DA:292,1
DA:293,1
DA:294,1
DA:295,1
DA:302,1
DA:303,1
DA:304,1
DA:305,1
DA:306,1
DA:307,1
DA:308,1
DA:311,1
DA:312,1
DA:313,1
DA:314,1
DA:315,1
BRF:0
BRH:0
LF:221
LH:217
end_of_record
SF:C:\Users\cires\OneDrive\Documents\projects\AuthFramework\src\api\rbac_endpoints.rs
FN:692,_RNCNvNtNtNtCsawKQoipWOme_14auth_framework3api14rbac_endpoints5tests17create_test_token0B9_
FN:321,_RNvNtNtCsawKQoipWOme_14auth_framework3api14rbac_endpoints10list_roles
FN:177,_RNvNtNtCsawKQoipWOme_14auth_framework3api14rbac_endpoints11create_role
FN:369,_RNvNtNtCsawKQoipWOme_14auth_framework3api14rbac_endpoints11delete_role
FN:344,_RNvNtNtCsawKQoipWOme_14auth_framework3api14rbac_endpoints11update_role
FN:600,_RNvNtNtCsawKQoipWOme_14auth_framework3api14rbac_endpoints12elevate_role
FN:642,_RNvNtNtCsawKQoipWOme_14auth_framework3api14rbac_endpoints14get_audit_logs
FN:473,_RNvNtNtCsawKQoipWOme_14auth_framework3api14rbac_endpoints14get_user_roles
FN:400,_RNvNtNtCsawKQoipWOme_14auth_framework3api14rbac_endpoints16assign_user_role
FN:557,_RNvNtNtCsawKQoipWOme_14auth_framework3api14rbac_endpoints16check_permission
FN:437,_RNvNtNtCsawKQoipWOme_14auth_framework3api14rbac_endpoints16revoke_user_role
FN:500,_RNvNtNtCsawKQoipWOme_14auth_framework3api14rbac_endpoints17bulk_assign_roles
FN:275,_RNvNtNtCsawKQoipWOme_14auth_framework3api14rbac_endpoints8get_role
FN:674,_RNvNtNtNtCsawKQoipWOme_14auth_framework3api14rbac_endpoints5tests17create_test_token
FN:198,_RNCNCNvNtNtCsawKQoipWOme_14auth_framework3api14rbac_endpoints11create_role00B9_
FN:248,_RNCNCNvNtNtCsawKQoipWOme_14auth_framework3api14rbac_endpoints11create_role0s0_0B9_
FN:249,_RNCNCNvNtNtCsawKQoipWOme_14auth_framework3api14rbac_endpoints11create_role0s1_0B9_
FN:215,_RNCNCNvNtNtCsawKQoipWOme_14auth_framework3api14rbac_endpoints11create_role0s_0B9_
FN:297,_RNCNCNvNtNtCsawKQoipWOme_14auth_framework3api14rbac_endpoints8get_role00B9_
FN:298,_RNCNCNvNtNtCsawKQoipWOme_14auth_framework3api14rbac_endpoints8get_role0s_0B9_
FN:325,_RNCNvNtNtCsawKQoipWOme_14auth_framework3api14rbac_endpoints10list_roles0B7_
FN:181,_RNCNvNtNtCsawKQoipWOme_14auth_framework3api14rbac_endpoints11create_role0B7_
FN:373,_RNCNvNtNtCsawKQoipWOme_14auth_framework3api14rbac_endpoints11delete_role0B7_
FN:349,_RNCNvNtNtCsawKQoipWOme_14auth_framework3api14rbac_endpoints11update_role0B7_
FN:604,_RNCNvNtNtCsawKQoipWOme_14auth_framework3api14rbac_endpoints12elevate_role0B7_
FN:646,_RNCNvNtNtCsawKQoipWOme_14auth_framework3api14rbac_endpoints14get_audit_logs0B7_
FN:477,_RNCNvNtNtCsawKQoipWOme_14auth_framework3api14rbac_endpoints14get_user_roles0B7_
FN:405,_RNCNvNtNtCsawKQoipWOme_14auth_framework3api14rbac_endpoints16assign_user_role0B7_
FN:561,_RNCNvNtNtCsawKQoipWOme_14auth_framework3api14rbac_endpoints16check_permission0B7_
FN:441,_RNCNvNtNtCsawKQoipWOme_14auth_framework3api14rbac_endpoints16revoke_user_role0B7_
FN:504,_RNCNvNtNtCsawKQoipWOme_14auth_framework3api14rbac_endpoints17bulk_assign_roles0B7_
FN:279,_RNCNvNtNtCsawKQoipWOme_14auth_framework3api14rbac_endpoints8get_role0B7_
FN:711,_RNvNtNtNtCsawKQoipWOme_14auth_framework3api14rbac_endpoints5testss_21test_permission_check
FN:705,_RNvNtNtNtCsawKQoipWOme_14auth_framework3api14rbac_endpoints5testss_24test_create_role_success
FN:699,_RNvNtNtNtCsawKQoipWOme_14auth_framework3api14rbac_endpoints5testss_29test_create_role_unauthorized
FN:321,_RNvNtNtCscyNIIr1ochp_14auth_framework3api14rbac_endpoints10list_roles
FN:177,_RNvNtNtCscyNIIr1ochp_14auth_framework3api14rbac_endpoints11create_role
FN:369,_RNvNtNtCscyNIIr1ochp_14auth_framework3api14rbac_endpoints11delete_role
FN:344,_RNvNtNtCscyNIIr1ochp_14auth_framework3api14rbac_endpoints11update_role
FN:600,_RNvNtNtCscyNIIr1ochp_14auth_framework3api14rbac_endpoints12elevate_role
FN:642,_RNvNtNtCscyNIIr1ochp_14auth_framework3api14rbac_endpoints14get_audit_logs
FN:473,_RNvNtNtCscyNIIr1ochp_14auth_framework3api14rbac_endpoints14get_user_roles
FN:400,_RNvNtNtCscyNIIr1ochp_14auth_framework3api14rbac_endpoints16assign_user_role
FN:557,_RNvNtNtCscyNIIr1ochp_14auth_framework3api14rbac_endpoints16check_permission
FN:437,_RNvNtNtCscyNIIr1ochp_14auth_framework3api14rbac_endpoints16revoke_user_role
FN:500,_RNvNtNtCscyNIIr1ochp_14auth_framework3api14rbac_endpoints17bulk_assign_roles
FN:275,_RNvNtNtCscyNIIr1ochp_14auth_framework3api14rbac_endpoints8get_role
FN:198,_RNCNCNvNtNtCscyNIIr1ochp_14auth_framework3api14rbac_endpoints11create_role00B9_
FN:248,_RNCNCNvNtNtCscyNIIr1ochp_14auth_framework3api14rbac_endpoints11create_role0s0_0B9_
FN:249,_RNCNCNvNtNtCscyNIIr1ochp_14auth_framework3api14rbac_endpoints11create_role0s1_0B9_
FN:215,_RNCNCNvNtNtCscyNIIr1ochp_14auth_framework3api14rbac_endpoints11create_role0s_0B9_
FN:297,_RNCNCNvNtNtCscyNIIr1ochp_14auth_framework3api14rbac_endpoints8get_role00B9_
FN:298,_RNCNCNvNtNtCscyNIIr1ochp_14auth_framework3api14rbac_endpoints8get_role0s_0B9_
FN:325,_RNCNvNtNtCscyNIIr1ochp_14auth_framework3api14rbac_endpoints10list_roles0B7_
FN:181,_RNCNvNtNtCscyNIIr1ochp_14auth_framework3api14rbac_endpoints11create_role0B7_
FN:373,_RNCNvNtNtCscyNIIr1ochp_14auth_framework3api14rbac_endpoints11delete_role0B7_
FN:349,_RNCNvNtNtCscyNIIr1ochp_14auth_framework3api14rbac_endpoints11update_role0B7_
FN:604,_RNCNvNtNtCscyNIIr1ochp_14auth_framework3api14rbac_endpoints12elevate_role0B7_
FN:646,_RNCNvNtNtCscyNIIr1ochp_14auth_framework3api14rbac_endpoints14get_audit_logs0B7_
FN:477,_RNCNvNtNtCscyNIIr1ochp_14auth_framework3api14rbac_endpoints14get_user_roles0B7_
FN:405,_RNCNvNtNtCscyNIIr1ochp_14auth_framework3api14rbac_endpoints16assign_user_role0B7_
FN:561,_RNCNvNtNtCscyNIIr1ochp_14auth_framework3api14rbac_endpoints16check_permission0B7_
FN:441,_RNCNvNtNtCscyNIIr1ochp_14auth_framework3api14rbac_endpoints16revoke_user_role0B7_
FN:504,_RNCNvNtNtCscyNIIr1ochp_14auth_framework3api14rbac_endpoints17bulk_assign_roles0B7_
FN:279,_RNCNvNtNtCscyNIIr1ochp_14auth_framework3api14rbac_endpoints8get_role0B7_
FNDA:0,_RNCNvNtNtNtCsawKQoipWOme_14auth_framework3api14rbac_endpoints5tests17create_test_token0B9_
FNDA:0,_RNvNtNtCsawKQoipWOme_14auth_framework3api14rbac_endpoints10list_roles
FNDA:0,_RNvNtNtCsawKQoipWOme_14auth_framework3api14rbac_endpoints11create_role
FNDA:0,_RNvNtNtCsawKQoipWOme_14auth_framework3api14rbac_endpoints11delete_role
FNDA:0,_RNvNtNtCsawKQoipWOme_14auth_framework3api14rbac_endpoints11update_role
FNDA:0,_RNvNtNtCsawKQoipWOme_14auth_framework3api14rbac_endpoints12elevate_role
FNDA:0,_RNvNtNtCsawKQoipWOme_14auth_framework3api14rbac_endpoints14get_audit_logs
FNDA:0,_RNvNtNtCsawKQoipWOme_14auth_framework3api14rbac_endpoints14get_user_roles
FNDA:0,_RNvNtNtCsawKQoipWOme_14auth_framework3api14rbac_endpoints16assign_user_role
FNDA:0,_RNvNtNtCsawKQoipWOme_14auth_framework3api14rbac_endpoints16check_permission
FNDA:0,_RNvNtNtCsawKQoipWOme_14auth_framework3api14rbac_endpoints16revoke_user_role
FNDA:0,_RNvNtNtCsawKQoipWOme_14auth_framework3api14rbac_endpoints17bulk_assign_roles
FNDA:0,_RNvNtNtCsawKQoipWOme_14auth_framework3api14rbac_endpoints8get_role
FNDA:0,_RNvNtNtNtCsawKQoipWOme_14auth_framework3api14rbac_endpoints5tests17create_test_token
FNDA:0,_RNCNCNvNtNtCsawKQoipWOme_14auth_framework3api14rbac_endpoints11create_role00B9_
FNDA:0,_RNCNCNvNtNtCsawKQoipWOme_14auth_framework3api14rbac_endpoints11create_role0s0_0B9_
FNDA:0,_RNCNCNvNtNtCsawKQoipWOme_14auth_framework3api14rbac_endpoints11create_role0s1_0B9_
FNDA:0,_RNCNCNvNtNtCsawKQoipWOme_14auth_framework3api14rbac_endpoints11create_role0s_0B9_
FNDA:0,_RNCNCNvNtNtCsawKQoipWOme_14auth_framework3api14rbac_endpoints8get_role00B9_
FNDA:0,_RNCNCNvNtNtCsawKQoipWOme_14auth_framework3api14rbac_endpoints8get_role0s_0B9_
FNDA:0,_RNCNvNtNtCsawKQoipWOme_14auth_framework3api14rbac_endpoints10list_roles0B7_
FNDA:0,_RNCNvNtNtCsawKQoipWOme_14auth_framework3api14rbac_endpoints11create_role0B7_
FNDA:0,_RNCNvNtNtCsawKQoipWOme_14auth_framework3api14rbac_endpoints11delete_role0B7_
FNDA:0,_RNCNvNtNtCsawKQoipWOme_14auth_framework3api14rbac_endpoints11update_role0B7_
FNDA:0,_RNCNvNtNtCsawKQoipWOme_14auth_framework3api14rbac_endpoints12elevate_role0B7_
FNDA:0,_RNCNvNtNtCsawKQoipWOme_14auth_framework3api14rbac_endpoints14get_audit_logs0B7_
FNDA:0,_RNCNvNtNtCsawKQoipWOme_14auth_framework3api14rbac_endpoints14get_user_roles0B7_
FNDA:0,_RNCNvNtNtCsawKQoipWOme_14auth_framework3api14rbac_endpoints16assign_user_role0B7_
FNDA:0,_RNCNvNtNtCsawKQoipWOme_14auth_framework3api14rbac_endpoints16check_permission0B7_
FNDA:0,_RNCNvNtNtCsawKQoipWOme_14auth_framework3api14rbac_endpoints16revoke_user_role0B7_
FNDA:0,_RNCNvNtNtCsawKQoipWOme_14auth_framework3api14rbac_endpoints17bulk_assign_roles0B7_
FNDA:0,_RNCNvNtNtCsawKQoipWOme_14auth_framework3api14rbac_endpoints8get_role0B7_
FNDA:1,_RNvNtNtNtCsawKQoipWOme_14auth_framework3api14rbac_endpoints5testss_21test_permission_check
FNDA:1,_RNvNtNtNtCsawKQoipWOme_14auth_framework3api14rbac_endpoints5testss_24test_create_role_success
FNDA:1,_RNvNtNtNtCsawKQoipWOme_14auth_framework3api14rbac_endpoints5testss_29test_create_role_unauthorized
FNDA:0,_RNvNtNtCscyNIIr1ochp_14auth_framework3api14rbac_endpoints10list_roles
FNDA:0,_RNvNtNtCscyNIIr1ochp_14auth_framework3api14rbac_endpoints11create_role
FNDA:0,_RNvNtNtCscyNIIr1ochp_14auth_framework3api14rbac_endpoints11delete_role
FNDA:0,_RNvNtNtCscyNIIr1ochp_14auth_framework3api14rbac_endpoints11update_role
FNDA:0,_RNvNtNtCscyNIIr1ochp_14auth_framework3api14rbac_endpoints12elevate_role
FNDA:0,_RNvNtNtCscyNIIr1ochp_14auth_framework3api14rbac_endpoints14get_audit_logs
FNDA:0,_RNvNtNtCscyNIIr1ochp_14auth_framework3api14rbac_endpoints14get_user_roles
FNDA:0,_RNvNtNtCscyNIIr1ochp_14auth_framework3api14rbac_endpoints16assign_user_role
FNDA:0,_RNvNtNtCscyNIIr1ochp_14auth_framework3api14rbac_endpoints16check_permission
FNDA:0,_RNvNtNtCscyNIIr1ochp_14auth_framework3api14rbac_endpoints16revoke_user_role
FNDA:0,_RNvNtNtCscyNIIr1ochp_14auth_framework3api14rbac_endpoints17bulk_assign_roles
FNDA:0,_RNvNtNtCscyNIIr1ochp_14auth_framework3api14rbac_endpoints8get_role
FNDA:0,_RNCNCNvNtNtCscyNIIr1ochp_14auth_framework3api14rbac_endpoints11create_role00B9_
FNDA:0,_RNCNCNvNtNtCscyNIIr1ochp_14auth_framework3api14rbac_endpoints11create_role0s0_0B9_
FNDA:0,_RNCNCNvNtNtCscyNIIr1ochp_14auth_framework3api14rbac_endpoints11create_role0s1_0B9_
FNDA:0,_RNCNCNvNtNtCscyNIIr1ochp_14auth_framework3api14rbac_endpoints11create_role0s_0B9_
FNDA:0,_RNCNCNvNtNtCscyNIIr1ochp_14auth_framework3api14rbac_endpoints8get_role00B9_
FNDA:0,_RNCNCNvNtNtCscyNIIr1ochp_14auth_framework3api14rbac_endpoints8get_role0s_0B9_
FNDA:0,_RNCNvNtNtCscyNIIr1ochp_14auth_framework3api14rbac_endpoints10list_roles0B7_
FNDA:0,_RNCNvNtNtCscyNIIr1ochp_14auth_framework3api14rbac_endpoints11create_role0B7_
FNDA:0,_RNCNvNtNtCscyNIIr1ochp_14auth_framework3api14rbac_endpoints11delete_role0B7_
FNDA:0,_RNCNvNtNtCscyNIIr1ochp_14auth_framework3api14rbac_endpoints11update_role0B7_
FNDA:0,_RNCNvNtNtCscyNIIr1ochp_14auth_framework3api14rbac_endpoints12elevate_role0B7_
FNDA:0,_RNCNvNtNtCscyNIIr1ochp_14auth_framework3api14rbac_endpoints14get_audit_logs0B7_
FNDA:0,_RNCNvNtNtCscyNIIr1ochp_14auth_framework3api14rbac_endpoints14get_user_roles0B7_
FNDA:0,_RNCNvNtNtCscyNIIr1ochp_14auth_framework3api14rbac_endpoints16assign_user_role0B7_
FNDA:0,_RNCNvNtNtCscyNIIr1ochp_14auth_framework3api14rbac_endpoints16check_permission0B7_
FNDA:0,_RNCNvNtNtCscyNIIr1ochp_14auth_framework3api14rbac_endpoints16revoke_user_role0B7_
FNDA:0,_RNCNvNtNtCscyNIIr1ochp_14auth_framework3api14rbac_endpoints17bulk_assign_roles0B7_
FNDA:0,_RNCNvNtNtCscyNIIr1ochp_14auth_framework3api14rbac_endpoints8get_role0B7_
FNF:35
FNH:3
DA:177,0
DA:178,0
DA:179,0
DA:180,0
DA:181,0
DA:183,0
DA:184,0
DA:185,0
DA:186,0
DA:187,0
DA:188,0
DA:189,0
DA:191,0
DA:194,0
DA:195,0
DA:196,0
DA:197,0
DA:198,0
DA:200,0
DA:201,0
DA:203,0
DA:204,0
DA:206,0
DA:207,0
DA:209,0
DA:210,0
DA:211,0
DA:212,0
DA:213,0
DA:214,0
DA:215,0
DA:217,0
DA:220,0
DA:223,0
DA:224,0
DA:227,0
DA:228,0
DA:231,0
DA:232,0
DA:233,0
DA:234,0
DA:236,0
DA:237,0
DA:238,0
DA:245,0
DA:246,0
DA:247,0
DA:248,0
DA:249,0
DA:250,0
DA:251,0
DA:252,0
DA:255,0
DA:257,0
DA:258,0
DA:259,0
DA:260,0
DA:263,0
DA:264,0
DA:265,0
DA:266,0
DA:267,0
DA:268,0
DA:271,0
DA:275,0
DA:276,0
DA:277,0
DA:278,0
DA:279,0
DA:281,0
DA:282,0
DA:283,0
DA:284,0
DA:285,0
DA:286,0
DA:287,0
DA:289,0
DA:290,0
DA:291,0
DA:292,0
DA:294,0
DA:295,0
DA:296,0
DA:297,0
DA:298,0
DA:299,0
DA:300,0
DA:301,0
DA:304,0
DA:306,0
DA:307,0
DA:308,0
DA:309,0
DA:310,0
DA:311,0
DA:312,0
DA:313,0
DA:314,0
DA:317,0
DA:321,0
DA:322,0
DA:323,0
DA:324,0
DA:325,0
DA:327,0
DA:328,0
DA:329,0
DA:330,0
DA:331,0
DA:332,0
DA:333,0
DA:337,0
DA:339,0
DA:340,0
DA:344,0
DA:345,0
DA:346,0
DA:347,0
DA:348,0
DA:349,0
DA:351,0
DA:352,0
DA:353,0
DA:354,0
DA:355,0
DA:356,0
DA:357,0
DA:361,0
DA:362,0
DA:363,0
DA:364,0
DA:365,0
DA:369,0
DA:370,0
DA:371,0
DA:372,0
DA:373,0
DA:375,0
DA:376,0
DA:377,0
DA:379,0
DA:381,0
DA:382,0
DA:384,0
DA:385,0
DA:386,0
DA:387,0
DA:388,0
DA:389,0
DA:392,0
DA:400,0
DA:401,0
DA:402,0
DA:403,0
DA:404,0
DA:405,0
DA:407,0
DA:408,0
DA:409,0
DA:410,0
DA:411,0
DA:413,0
DA:414,0
DA:415,0
DA:416,0
DA:419,0
DA:420,0
DA:423,0
DA:425,0
DA:426,0
DA:427,0
DA:428,0
DA:429,0
DA:430,0
DA:433,0
DA:437,0
DA:438,0
DA:439,0
DA:440,0
DA:441,0
DA:443,0
DA:444,0
DA:445,0
DA:446,0
DA:447,0
DA:449,0
DA:450,0
DA:451,0
DA:452,0
DA:455,0
DA:456,0
DA:459,0
DA:461,0
DA:462,0
DA:463,0
DA:464,0
DA:465,0
DA:466,0
DA:469,0
DA:473,0
DA:474,0
DA:475,0
DA:476,0
DA:477,0
DA:479,0
DA:480,0
DA:481,0
DA:482,0
DA:483,0
DA:484,0
DA:485,0
DA:489,0
DA:490,0
DA:491,0
DA:492,0
DA:493,0
DA:495,0
DA:496,0
DA:500,0
DA:501,0
DA:502,0
DA:503,0
DA:504,0
DA:506,0
DA:507,0
DA:508,0
DA:509,0
DA:510,0
DA:513,0
DA:514,0
DA:516,0
DA:517,0
DA:518,0
DA:519,0
DA:520,0
DA:522,0
DA:523,0
DA:524,0
DA:525,0
DA:528,0
DA:533,0
DA:534,0
DA:538,0
DA:539,0
DA:541,0
DA:542,0
DA:543,0
DA:544,0
DA:545,0
DA:546,0
DA:547,0
DA:549,0
DA:557,0
DA:558,0
DA:559,0
DA:560,0
DA:561,0
DA:562,0
DA:564,0
DA:565,0
DA:566,0
DA:567,0
DA:568,0
DA:569,0
DA:570,0
DA:571,0
DA:572,0
DA:574,0
DA:575,0
DA:576,0
DA:577,0
DA:578,0
DA:580,0
DA:582,0
DA:583,0
DA:586,0
DA:588,0
DA:589,0
DA:590,0
DA:591,0
DA:592,0
DA:593,0
DA:596,0
DA:600,0
DA:601,0
DA:602,0
DA:603,0
DA:604,0
DA:605,0
DA:607,0
DA:608,0
DA:609,0
DA:610,0
DA:611,0
DA:612,0
DA:613,0
DA:614,0
DA:617,0
DA:618,0
DA:621,0
DA:624,0
DA:626,0
DA:627,0
DA:628,0
DA:629,0
DA:630,0
DA:631,0
DA:634,0
DA:642,0
DA:643,0
DA:644,0
DA:645,0
DA:646,0
DA:648,0
DA:649,0
DA:650,0
DA:651,0
DA:652,0
DA:653,0
DA:654,0
DA:658,0
DA:659,0
DA:660,0
DA:661,0
DA:662,0
DA:663,0
DA:665,0
DA:666,0
DA:674,0
DA:679,0
DA:680,0
DA:681,0
DA:682,0
DA:683,0
DA:684,0
DA:685,0
DA:686,0
DA:687,0
DA:688,0
DA:689,0
DA:690,0
DA:691,0
DA:692,0
DA:693,0
DA:694,0
DA:696,0
DA:699,1
DA:702,1
DA:705,1
DA:708,1
DA:711,1
DA:714,1
BRF:0
BRH:0
LF:371
LH:6
end_of_record
SF:C:\Users\cires\OneDrive\Documents\projects\AuthFramework\src\api\responses.rs
FN:87,_RINvMNtNtCsawKQoipWOme_14auth_framework3api9responsesINtB3_11ApiResponsepE15not_found_typedpEB7_
FN:112,_RINvMNtNtCsawKQoipWOme_14auth_framework3api9responsesINtB3_11ApiResponsepE20success_with_messagepEB7_
FN:158,_RINvMs_NtNtCsawKQoipWOme_14auth_framework3api9responsesINtB5_11ApiResponseuE18error_with_detailsppEB9_
FN:107,_RNvMNtNtCsawKQoipWOme_14auth_framework3api9responsesINtB2_11ApiResponsepE20internal_error_typedB6_
FN:122,_RNvMNtNtCsawKQoipWOme_14auth_framework3api9responsesINtB2_11ApiResponsepE2okB6_
FN:181,_RNvMs_NtNtCsawKQoipWOme_14auth_framework3api9responsesINtB4_11ApiResponseuE12unauthorized
FN:211,_RNvMs_NtNtCsawKQoipWOme_14auth_framework3api9responsesINtB4_11ApiResponseuE14internal_error
FN:186,_RNvMs_NtNtCsawKQoipWOme_14auth_framework3api9responsesINtB4_11ApiResponseuE9forbidden
FN:240,_RNvXs1_NtNtCsawKQoipWOme_14auth_framework3api9responsesINtB5_11ApiResponseuEINtNtCsf36jwlS2r7m_4core7convert4FromNtNtB9_6errors9AuthErrorE4from
FN:77,_RINvMNtNtCsawKQoipWOme_14auth_framework3api9responsesINtB3_11ApiResponseINtNtCsaFwVybN8Rvy_5alloc3vec3VecNtNtB1d_6string6StringEE11error_typedReEB7_
FN:92,_RINvMNtNtCsawKQoipWOme_14auth_framework3api9responsesINtB3_11ApiResponseINtNtCsaFwVybN8Rvy_5alloc3vec3VecNtNtB5_14rbac_endpoints12RoleResponseEE28forbidden_with_message_typedReEB7_
FN:77,_RINvMNtNtCsawKQoipWOme_14auth_framework3api9responsesINtB3_11ApiResponseINtNtCsaFwVybN8Rvy_5alloc3vec3VecNtNtB5_5users11SessionInfoEE11error_typedReEB7_
FN:97,_RINvMNtNtCsawKQoipWOme_14auth_framework3api9responsesINtB3_11ApiResponseNtNtB5_14rbac_endpoints12RoleResponseE24error_with_message_typedReEB7_
FN:92,_RINvMNtNtCsawKQoipWOme_14auth_framework3api9responsesINtB3_11ApiResponseNtNtB5_14rbac_endpoints12RoleResponseE28forbidden_with_message_typedReEB7_
FN:102,_RINvMNtNtCsawKQoipWOme_14auth_framework3api9responsesINtB3_11ApiResponseNtNtB5_14rbac_endpoints12RoleResponseE28not_found_with_message_typedReEB7_
FN:92,_RINvMNtNtCsawKQoipWOme_14auth_framework3api9responsesINtB3_11ApiResponseNtNtB5_14rbac_endpoints16AuditLogResponseE28forbidden_with_message_typedReEB7_
FN:92,_RINvMNtNtCsawKQoipWOme_14auth_framework3api9responsesINtB3_11ApiResponseNtNtB5_14rbac_endpoints17UserRolesResponseE28forbidden_with_message_typedReEB7_
FN:77,_RINvMNtNtCsawKQoipWOme_14auth_framework3api9responsesINtB3_11ApiResponseNtNtB5_14rbac_endpoints23PermissionCheckResponseE11error_typedReEB7_
FN:77,_RINvMNtNtCsawKQoipWOme_14auth_framework3api9responsesINtB3_11ApiResponseNtNtB5_3mfa16MfaSetupResponseE11error_typedReEB7_
FN:77,_RINvMNtNtCsawKQoipWOme_14auth_framework3api9responsesINtB3_11ApiResponseNtNtB5_3mfa17MfaStatusResponseE11error_typedReEB7_
FN:77,_RINvMNtNtCsawKQoipWOme_14auth_framework3api9responsesINtB3_11ApiResponseNtNtB5_4auth13LoginResponseE11error_typedNtNtCsaFwVybN8Rvy_5alloc6string6StringEB7_
FN:77,_RINvMNtNtCsawKQoipWOme_14auth_framework3api9responsesINtB3_11ApiResponseNtNtB5_4auth13LoginResponseE11error_typedReEB7_
FN:82,_RINvMNtNtCsawKQoipWOme_14auth_framework3api9responsesINtB3_11ApiResponseNtNtB5_4auth13LoginResponseE22validation_error_typedReEB7_
FN:77,_RINvMNtNtCsawKQoipWOme_14auth_framework3api9responsesINtB3_11ApiResponseNtNtB5_4auth15RefreshResponseE11error_typedReEB7_
FN:82,_RINvMNtNtCsawKQoipWOme_14auth_framework3api9responsesINtB3_11ApiResponseNtNtB5_4auth15RefreshResponseE22validation_error_typedReEB7_
FN:77,_RINvMNtNtCsawKQoipWOme_14auth_framework3api9responsesINtB3_11ApiResponseNtNtB5_4auth8UserInfoE11error_typedReEB7_
FN:77,_RINvMNtNtCsawKQoipWOme_14auth_framework3api9responsesINtB3_11ApiResponseNtNtB5_5admin11SystemStatsE11error_typedReEB7_
FN:82,_RINvMNtNtCsawKQoipWOme_14auth_framework3api9responsesINtB3_11ApiResponseNtNtB5_5admin12UserListItemE22validation_error_typedReEB7_
FN:77,_RINvMNtNtCsawKQoipWOme_14auth_framework3api9responsesINtB3_11ApiResponseNtNtB5_5admin16AuditLogResponseE11error_typedReEB7_
FN:77,_RINvMNtNtCsawKQoipWOme_14auth_framework3api9responsesINtB3_11ApiResponseNtNtB5_5oauth13TokenResponseE11error_typedNtNtCsaFwVybN8Rvy_5alloc6string6StringEB7_
FN:77,_RINvMNtNtCsawKQoipWOme_14auth_framework3api9responsesINtB3_11ApiResponseNtNtB5_5oauth13TokenResponseE11error_typedReEB7_
FN:82,_RINvMNtNtCsawKQoipWOme_14auth_framework3api9responsesINtB3_11ApiResponseNtNtB5_5oauth18IntrospectResponseE22validation_error_typedReEB7_
FN:77,_RINvMNtNtCsawKQoipWOme_14auth_framework3api9responsesINtB3_11ApiResponseNtNtB5_5users11UserProfileE11error_typedReEB7_
FN:77,_RINvMNtNtCsawKQoipWOme_14auth_framework3api9responsesINtB3_11ApiResponseuE11error_typedReEB7_
FN:132,_RINvMNtNtCsawKQoipWOme_14auth_framework3api9responsesINtB3_11ApiResponseuE15ok_with_messageNtNtCsaFwVybN8Rvy_5alloc6string6StringEB7_
FN:132,_RINvMNtNtCsawKQoipWOme_14auth_framework3api9responsesINtB3_11ApiResponseuE15ok_with_messageReEB7_
FN:82,_RINvMNtNtCsawKQoipWOme_14auth_framework3api9responsesINtB3_11ApiResponseuE22validation_error_typedReEB7_
FN:97,_RINvMNtNtCsawKQoipWOme_14auth_framework3api9responsesINtB3_11ApiResponseuE24error_with_message_typedNtNtCsaFwVybN8Rvy_5alloc6string6StringEB7_
FN:97,_RINvMNtNtCsawKQoipWOme_14auth_framework3api9responsesINtB3_11ApiResponseuE24error_with_message_typedReEB7_
FN:92,_RINvMNtNtCsawKQoipWOme_14auth_framework3api9responsesINtB3_11ApiResponseuE28forbidden_with_message_typedReEB7_
FN:57,_RINvMNtNtCsawKQoipWOme_14auth_framework3api9responsesINtB3_11ApiResponseuE4castINtNtCsaFwVybN8Rvy_5alloc3vec3VecNtNtB1k_6string6StringEEB7_
FN:57,_RINvMNtNtCsawKQoipWOme_14auth_framework3api9responsesINtB3_11ApiResponseuE4castINtNtCsaFwVybN8Rvy_5alloc3vec3VecNtNtB5_14rbac_endpoints12RoleResponseEEB7_
FN:57,_RINvMNtNtCsawKQoipWOme_14auth_framework3api9responsesINtB3_11ApiResponseuE4castINtNtCsaFwVybN8Rvy_5alloc3vec3VecNtNtB5_5users11SessionInfoEEB7_
FN:57,_RINvMNtNtCsawKQoipWOme_14auth_framework3api9responsesINtB3_11ApiResponseuE4castNtNtB5_14rbac_endpoints12RoleResponseEB7_
FN:57,_RINvMNtNtCsawKQoipWOme_14auth_framework3api9responsesINtB3_11ApiResponseuE4castNtNtB5_14rbac_endpoints16AuditLogResponseEB7_
FN:57,_RINvMNtNtCsawKQoipWOme_14auth_framework3api9responsesINtB3_11ApiResponseuE4castNtNtB5_14rbac_endpoints17UserRolesResponseEB7_
FN:57,_RINvMNtNtCsawKQoipWOme_14auth_framework3api9responsesINtB3_11ApiResponseuE4castNtNtB5_14rbac_endpoints23PermissionCheckResponseEB7_
FN:57,_RINvMNtNtCsawKQoipWOme_14auth_framework3api9responsesINtB3_11ApiResponseuE4castNtNtB5_3mfa16MfaSetupResponseEB7_
FN:57,_RINvMNtNtCsawKQoipWOme_14auth_framework3api9responsesINtB3_11ApiResponseuE4castNtNtB5_3mfa17MfaStatusResponseEB7_
FN:57,_RINvMNtNtCsawKQoipWOme_14auth_framework3api9responsesINtB3_11ApiResponseuE4castNtNtB5_4auth13LoginResponseEB7_
FN:57,_RINvMNtNtCsawKQoipWOme_14auth_framework3api9responsesINtB3_11ApiResponseuE4castNtNtB5_4auth15RefreshResponseEB7_
FN:57,_RINvMNtNtCsawKQoipWOme_14auth_framework3api9responsesINtB3_11ApiResponseuE4castNtNtB5_4auth8UserInfoEB7_
FN:57,_RINvMNtNtCsawKQoipWOme_14auth_framework3api9responsesINtB3_11ApiResponseuE4castNtNtB5_5admin11SystemStatsEB7_
FN:57,_RINvMNtNtCsawKQoipWOme_14auth_framework3api9responsesINtB3_11ApiResponseuE4castNtNtB5_5admin12UserListItemEB7_
FN:57,_RINvMNtNtCsawKQoipWOme_14auth_framework3api9responsesINtB3_11ApiResponseuE4castNtNtB5_5admin16AuditLogResponseEB7_
FN:57,_RINvMNtNtCsawKQoipWOme_14auth_framework3api9responsesINtB3_11ApiResponseuE4castNtNtB5_5admin16UserListResponseEB7_
FN:57,_RINvMNtNtCsawKQoipWOme_14auth_framework3api9responsesINtB3_11ApiResponseuE4castNtNtB5_5oauth13TokenResponseEB7_
FN:57,_RINvMNtNtCsawKQoipWOme_14auth_framework3api9responsesINtB3_11ApiResponseuE4castNtNtB5_5oauth18IntrospectResponseEB7_
FN:57,_RINvMNtNtCsawKQoipWOme_14auth_framework3api9responsesINtB3_11ApiResponseuE4castNtNtB5_5users11UserProfileEB7_
FN:57,_RINvMNtNtCsawKQoipWOme_14auth_framework3api9responsesINtB3_11ApiResponseuE4castuEB7_
FN:176,_RINvMs_NtNtCsawKQoipWOme_14auth_framework3api9responsesINtB5_11ApiResponseuE16validation_errorNtNtCsaFwVybN8Rvy_5alloc6string6StringEB9_
FN:176,_RINvMs_NtNtCsawKQoipWOme_14auth_framework3api9responsesINtB5_11ApiResponseuE16validation_errorReEB9_
FN:206,_RINvMs_NtNtCsawKQoipWOme_14auth_framework3api9responsesINtB5_11ApiResponseuE18error_with_messageReB1w_EB9_
FN:206,_RINvMs_NtNtCsawKQoipWOme_14auth_framework3api9responsesINtB5_11ApiResponseuE18error_with_messageReNtNtCsaFwVybN8Rvy_5alloc6string6StringEB9_
FN:191,_RINvMs_NtNtCsawKQoipWOme_14auth_framework3api9responsesINtB5_11ApiResponseuE22forbidden_with_messageReEB9_
FN:201,_RINvMs_NtNtCsawKQoipWOme_14auth_framework3api9responsesINtB5_11ApiResponseuE22not_found_with_messageReEB9_
FN:144,_RINvMs_NtNtCsawKQoipWOme_14auth_framework3api9responsesINtB5_11ApiResponseuE5errorReB1i_EB9_
FN:144,_RINvMs_NtNtCsawKQoipWOme_14auth_framework3api9responsesINtB5_11ApiResponseuE5errorReNtNtCsaFwVybN8Rvy_5alloc6string6StringEB9_
FN:196,_RINvMs_NtNtCsawKQoipWOme_14auth_framework3api9responsesINtB5_11ApiResponseuE9not_foundNtNtCsaFwVybN8Rvy_5alloc6string6StringEB9_
FN:224,_RNCNvXs0_NtNtCsawKQoipWOme_14auth_framework3api9responsesINtB7_11ApiResponseINtNtCsaFwVybN8Rvy_5alloc3vec3VecNtNtB1h_6string6StringEENtNtNtCs5l68vjwsCbw_9axum_core8response13into_response12IntoResponse13into_response0Bb_
FN:224,_RNCNvXs0_NtNtCsawKQoipWOme_14auth_framework3api9responsesINtB7_11ApiResponseINtNtCsaFwVybN8Rvy_5alloc3vec3VecNtNtB9_4auth12ProviderInfoEENtNtNtCs5l68vjwsCbw_9axum_core8response13into_response12IntoResponse13into_response0Bb_
FN:224,_RNCNvXs0_NtNtCsawKQoipWOme_14auth_framework3api9responsesINtB7_11ApiResponseINtNtCsaFwVybN8Rvy_5alloc3vec3VecNtNtB9_5users11SessionInfoEENtNtNtCs5l68vjwsCbw_9axum_core8response13into_response12IntoResponse13into_response0Bb_
FN:224,_RNCNvXs0_NtNtCsawKQoipWOme_14auth_framework3api9responsesINtB7_11ApiResponseNtNtB9_3mfa16MfaSetupResponseENtNtNtCs5l68vjwsCbw_9axum_core8response13into_response12IntoResponse13into_response0Bb_
FN:224,_RNCNvXs0_NtNtCsawKQoipWOme_14auth_framework3api9responsesINtB7_11ApiResponseNtNtB9_3mfa17MfaStatusResponseENtNtNtCs5l68vjwsCbw_9axum_core8response13into_response12IntoResponse13into_response0Bb_
FN:224,_RNCNvXs0_NtNtCsawKQoipWOme_14auth_framework3api9responsesINtB7_11ApiResponseNtNtB9_4auth13LoginResponseENtNtNtCs5l68vjwsCbw_9axum_core8response13into_response12IntoResponse13into_response0Bb_
FN:224,_RNCNvXs0_NtNtCsawKQoipWOme_14auth_framework3api9responsesINtB7_11ApiResponseNtNtB9_4auth15RefreshResponseENtNtNtCs5l68vjwsCbw_9axum_core8response13into_response12IntoResponse13into_response0Bb_
FN:224,_RNCNvXs0_NtNtCsawKQoipWOme_14auth_framework3api9responsesINtB7_11ApiResponseNtNtB9_4auth8UserInfoENtNtNtCs5l68vjwsCbw_9axum_core8response13into_response12IntoResponse13into_response0Bb_
FN:224,_RNCNvXs0_NtNtCsawKQoipWOme_14auth_framework3api9responsesINtB7_11ApiResponseNtNtB9_5admin11SystemStatsENtNtNtCs5l68vjwsCbw_9axum_core8response13into_response12IntoResponse13into_response0Bb_
FN:224,_RNCNvXs0_NtNtCsawKQoipWOme_14auth_framework3api9responsesINtB7_11ApiResponseNtNtB9_5admin12UserListItemENtNtNtCs5l68vjwsCbw_9axum_core8response13into_response12IntoResponse13into_response0Bb_
FN:224,_RNCNvXs0_NtNtCsawKQoipWOme_14auth_framework3api9responsesINtB7_11ApiResponseNtNtB9_5admin16AuditLogResponseENtNtNtCs5l68vjwsCbw_9axum_core8response13into_response12IntoResponse13into_response0Bb_
FN:224,_RNCNvXs0_NtNtCsawKQoipWOme_14auth_framework3api9responsesINtB7_11ApiResponseNtNtB9_5admin16UserListResponseENtNtNtCs5l68vjwsCbw_9axum_core8response13into_response12IntoResponse13into_response0Bb_
FN:224,_RNCNvXs0_NtNtCsawKQoipWOme_14auth_framework3api9responsesINtB7_11ApiResponseNtNtB9_5oauth10ClientInfoENtNtNtCs5l68vjwsCbw_9axum_core8response13into_response12IntoResponse13into_response0Bb_
FN:224,_RNCNvXs0_NtNtCsawKQoipWOme_14auth_framework3api9responsesINtB7_11ApiResponseNtNtB9_5oauth13TokenResponseENtNtNtCs5l68vjwsCbw_9axum_core8response13into_response12IntoResponse13into_response0Bb_
FN:224,_RNCNvXs0_NtNtCsawKQoipWOme_14auth_framework3api9responsesINtB7_11ApiResponseNtNtB9_5oauth18IntrospectResponseENtNtNtCs5l68vjwsCbw_9axum_core8response13into_response12IntoResponse13into_response0Bb_
FN:224,_RNCNvXs0_NtNtCsawKQoipWOme_14auth_framework3api9responsesINtB7_11ApiResponseNtNtB9_5users11UserProfileENtNtNtCs5l68vjwsCbw_9axum_core8response13into_response12IntoResponse13into_response0Bb_
FN:224,_RNCNvXs0_NtNtCsawKQoipWOme_14auth_framework3api9responsesINtB7_11ApiResponseNtNtB9_6health14HealthResponseENtNtNtCs5l68vjwsCbw_9axum_core8response13into_response12IntoResponse13into_response0Bb_
FN:224,_RNCNvXs0_NtNtCsawKQoipWOme_14auth_framework3api9responsesINtB7_11ApiResponseNtNtB9_6health22DetailedHealthResponseENtNtNtCs5l68vjwsCbw_9axum_core8response13into_response12IntoResponse13into_response0Bb_
FN:224,_RNCNvXs0_NtNtCsawKQoipWOme_14auth_framework3api9responsesINtB7_11ApiResponseuENtNtNtCs5l68vjwsCbw_9axum_core8response13into_response12IntoResponse13into_response0Bb_
FN:72,_RNvMNtNtCsawKQoipWOme_14auth_framework3api9responsesINtB2_11ApiResponseINtNtCsaFwVybN8Rvy_5alloc3vec3VecNtNtB1c_6string6StringEE18unauthorized_typedB6_
FN:47,_RNvMNtNtCsawKQoipWOme_14auth_framework3api9responsesINtB2_11ApiResponseINtNtCsaFwVybN8Rvy_5alloc3vec3VecNtNtB1c_6string6StringEE7successB6_
FN:47,_RNvMNtNtCsawKQoipWOme_14auth_framework3api9responsesINtB2_11ApiResponseINtNtCsaFwVybN8Rvy_5alloc3vec3VecNtNtB4_14rbac_endpoints12RoleResponseEE7successB6_
FN:47,_RNvMNtNtCsawKQoipWOme_14auth_framework3api9responsesINtB2_11ApiResponseINtNtCsaFwVybN8Rvy_5alloc3vec3VecNtNtB4_4auth12ProviderInfoEE7successB6_
FN:72,_RNvMNtNtCsawKQoipWOme_14auth_framework3api9responsesINtB2_11ApiResponseINtNtCsaFwVybN8Rvy_5alloc3vec3VecNtNtB4_5users11SessionInfoEE18unauthorized_typedB6_
FN:47,_RNvMNtNtCsawKQoipWOme_14auth_framework3api9responsesINtB2_11ApiResponseINtNtCsaFwVybN8Rvy_5alloc3vec3VecNtNtB4_5users11SessionInfoEE7successB6_
FN:47,_RNvMNtNtCsawKQoipWOme_14auth_framework3api9responsesINtB2_11ApiResponseNtNtB4_14rbac_endpoints12RoleResponseE7successB6_
FN:47,_RNvMNtNtCsawKQoipWOme_14auth_framework3api9responsesINtB2_11ApiResponseNtNtB4_14rbac_endpoints16AuditLogResponseE7successB6_
FN:47,_RNvMNtNtCsawKQoipWOme_14auth_framework3api9responsesINtB2_11ApiResponseNtNtB4_14rbac_endpoints17UserRolesResponseE7successB6_
FN:47,_RNvMNtNtCsawKQoipWOme_14auth_framework3api9responsesINtB2_11ApiResponseNtNtB4_14rbac_endpoints23PermissionCheckResponseE7successB6_
FN:72,_RNvMNtNtCsawKQoipWOme_14auth_framework3api9responsesINtB2_11ApiResponseNtNtB4_3mfa16MfaSetupResponseE18unauthorized_typedB6_
FN:47,_RNvMNtNtCsawKQoipWOme_14auth_framework3api9responsesINtB2_11ApiResponseNtNtB4_3mfa16MfaSetupResponseE7successB6_
FN:72,_RNvMNtNtCsawKQoipWOme_14auth_framework3api9responsesINtB2_11ApiResponseNtNtB4_3mfa17MfaStatusResponseE18unauthorized_typedB6_
FN:47,_RNvMNtNtCsawKQoipWOme_14auth_framework3api9responsesINtB2_11ApiResponseNtNtB4_3mfa17MfaStatusResponseE7successB6_
FN:47,_RNvMNtNtCsawKQoipWOme_14auth_framework3api9responsesINtB2_11ApiResponseNtNtB4_4auth13LoginResponseE7successB6_
FN:47,_RNvMNtNtCsawKQoipWOme_14auth_framework3api9responsesINtB2_11ApiResponseNtNtB4_4auth15RefreshResponseE7successB6_
FN:72,_RNvMNtNtCsawKQoipWOme_14auth_framework3api9responsesINtB2_11ApiResponseNtNtB4_4auth8UserInfoE18unauthorized_typedB6_
FN:47,_RNvMNtNtCsawKQoipWOme_14auth_framework3api9responsesINtB2_11ApiResponseNtNtB4_4auth8UserInfoE7successB6_
FN:67,_RNvMNtNtCsawKQoipWOme_14auth_framework3api9responsesINtB2_11ApiResponseNtNtB4_5admin11SystemStatsE15forbidden_typedB6_
FN:72,_RNvMNtNtCsawKQoipWOme_14auth_framework3api9responsesINtB2_11ApiResponseNtNtB4_5admin11SystemStatsE18unauthorized_typedB6_
FN:47,_RNvMNtNtCsawKQoipWOme_14auth_framework3api9responsesINtB2_11ApiResponseNtNtB4_5admin11SystemStatsE7successB6_
FN:67,_RNvMNtNtCsawKQoipWOme_14auth_framework3api9responsesINtB2_11ApiResponseNtNtB4_5admin12UserListItemE15forbidden_typedB6_
FN:72,_RNvMNtNtCsawKQoipWOme_14auth_framework3api9responsesINtB2_11ApiResponseNtNtB4_5admin12UserListItemE18unauthorized_typedB6_
FN:47,_RNvMNtNtCsawKQoipWOme_14auth_framework3api9responsesINtB2_11ApiResponseNtNtB4_5admin12UserListItemE7successB6_
FN:67,_RNvMNtNtCsawKQoipWOme_14auth_framework3api9responsesINtB2_11ApiResponseNtNtB4_5admin16AuditLogResponseE15forbidden_typedB6_
FN:72,_RNvMNtNtCsawKQoipWOme_14auth_framework3api9responsesINtB2_11ApiResponseNtNtB4_5admin16AuditLogResponseE18unauthorized_typedB6_
FN:47,_RNvMNtNtCsawKQoipWOme_14auth_framework3api9responsesINtB2_11ApiResponseNtNtB4_5admin16AuditLogResponseE7successB6_
FN:67,_RNvMNtNtCsawKQoipWOme_14auth_framework3api9responsesINtB2_11ApiResponseNtNtB4_5admin16UserListResponseE15forbidden_typedB6_
FN:72,_RNvMNtNtCsawKQoipWOme_14auth_framework3api9responsesINtB2_11ApiResponseNtNtB4_5admin16UserListResponseE18unauthorized_typedB6_
FN:47,_RNvMNtNtCsawKQoipWOme_14auth_framework3api9responsesINtB2_11ApiResponseNtNtB4_5admin16UserListResponseE7successB6_
FN:47,_RNvMNtNtCsawKQoipWOme_14auth_framework3api9responsesINtB2_11ApiResponseNtNtB4_5oauth10ClientInfoE7successB6_
FN:47,_RNvMNtNtCsawKQoipWOme_14auth_framework3api9responsesINtB2_11ApiResponseNtNtB4_5oauth13TokenResponseE7successB6_
FN:47,_RNvMNtNtCsawKQoipWOme_14auth_framework3api9responsesINtB2_11ApiResponseNtNtB4_5oauth18IntrospectResponseE7successB6_
FN:67,_RNvMNtNtCsawKQoipWOme_14auth_framework3api9responsesINtB2_11ApiResponseNtNtB4_5users11UserProfileE15forbidden_typedB6_
FN:72,_RNvMNtNtCsawKQoipWOme_14auth_framework3api9responsesINtB2_11ApiResponseNtNtB4_5users11UserProfileE18unauthorized_typedB6_
FN:47,_RNvMNtNtCsawKQoipWOme_14auth_framework3api9responsesINtB2_11ApiResponseNtNtB4_5users11UserProfileE7successB6_
FN:47,_RNvMNtNtCsawKQoipWOme_14auth_framework3api9responsesINtB2_11ApiResponseNtNtB4_6health14HealthResponseE7successB6_
FN:47,_RNvMNtNtCsawKQoipWOme_14auth_framework3api9responsesINtB2_11ApiResponseNtNtB4_6health22DetailedHealthResponseE7successB6_
FN:67,_RNvMNtNtCsawKQoipWOme_14auth_framework3api9responsesINtB2_11ApiResponseuE15forbidden_typedB6_
FN:47,_RNvMNtNtCsawKQoipWOme_14auth_framework3api9responsesINtB2_11ApiResponseuE7successB6_
FN:220,_RNvXs0_NtNtCsawKQoipWOme_14auth_framework3api9responsesINtB5_11ApiResponseINtNtCsaFwVybN8Rvy_5alloc3vec3VecNtNtB1f_6string6StringEENtNtNtCs5l68vjwsCbw_9axum_core8response13into_response12IntoResponse13into_responseB9_
FN:220,_RNvXs0_NtNtCsawKQoipWOme_14auth_framework3api9responsesINtB5_11ApiResponseINtNtCsaFwVybN8Rvy_5alloc3vec3VecNtNtB7_4auth12ProviderInfoEENtNtNtCs5l68vjwsCbw_9axum_core8response13into_response12IntoResponse13into_responseB9_
FN:220,_RNvXs0_NtNtCsawKQoipWOme_14auth_framework3api9responsesINtB5_11ApiResponseINtNtCsaFwVybN8Rvy_5alloc3vec3VecNtNtB7_5users11SessionInfoEENtNtNtCs5l68vjwsCbw_9axum_core8response13into_response12IntoResponse13into_responseB9_
FN:220,_RNvXs0_NtNtCsawKQoipWOme_14auth_framework3api9responsesINtB5_11ApiResponseNtNtB7_3mfa16MfaSetupResponseENtNtNtCs5l68vjwsCbw_9axum_core8response13into_response12IntoResponse13into_responseB9_
FN:220,_RNvXs0_NtNtCsawKQoipWOme_14auth_framework3api9responsesINtB5_11ApiResponseNtNtB7_3mfa17MfaStatusResponseENtNtNtCs5l68vjwsCbw_9axum_core8response13into_response12IntoResponse13into_responseB9_
FN:220,_RNvXs0_NtNtCsawKQoipWOme_14auth_framework3api9responsesINtB5_11ApiResponseNtNtB7_4auth13LoginResponseENtNtNtCs5l68vjwsCbw_9axum_core8response13into_response12IntoResponse13into_responseB9_
FN:220,_RNvXs0_NtNtCsawKQoipWOme_14auth_framework3api9responsesINtB5_11ApiResponseNtNtB7_4auth15RefreshResponseENtNtNtCs5l68vjwsCbw_9axum_core8response13into_response12IntoResponse13into_responseB9_
FN:220,_RNvXs0_NtNtCsawKQoipWOme_14auth_framework3api9responsesINtB5_11ApiResponseNtNtB7_4auth8UserInfoENtNtNtCs5l68vjwsCbw_9axum_core8response13into_response12IntoResponse13into_responseB9_
FN:220,_RNvXs0_NtNtCsawKQoipWOme_14auth_framework3api9responsesINtB5_11ApiResponseNtNtB7_5admin11SystemStatsENtNtNtCs5l68vjwsCbw_9axum_core8response13into_response12IntoResponse13into_responseB9_
FN:220,_RNvXs0_NtNtCsawKQoipWOme_14auth_framework3api9responsesINtB5_11ApiResponseNtNtB7_5admin12UserListItemENtNtNtCs5l68vjwsCbw_9axum_core8response13into_response12IntoResponse13into_responseB9_
FN:220,_RNvXs0_NtNtCsawKQoipWOme_14auth_framework3api9responsesINtB5_11ApiResponseNtNtB7_5admin16AuditLogResponseENtNtNtCs5l68vjwsCbw_9axum_core8response13into_response12IntoResponse13into_responseB9_
FN:220,_RNvXs0_NtNtCsawKQoipWOme_14auth_framework3api9responsesINtB5_11ApiResponseNtNtB7_5admin16UserListResponseENtNtNtCs5l68vjwsCbw_9axum_core8response13into_response12IntoResponse13into_responseB9_
FN:220,_RNvXs0_NtNtCsawKQoipWOme_14auth_framework3api9responsesINtB5_11ApiResponseNtNtB7_5oauth10ClientInfoENtNtNtCs5l68vjwsCbw_9axum_core8response13into_response12IntoResponse13into_responseB9_
FN:220,_RNvXs0_NtNtCsawKQoipWOme_14auth_framework3api9responsesINtB5_11ApiResponseNtNtB7_5oauth13TokenResponseENtNtNtCs5l68vjwsCbw_9axum_core8response13into_response12IntoResponse13into_responseB9_
FN:220,_RNvXs0_NtNtCsawKQoipWOme_14auth_framework3api9responsesINtB5_11ApiResponseNtNtB7_5oauth18IntrospectResponseENtNtNtCs5l68vjwsCbw_9axum_core8response13into_response12IntoResponse13into_responseB9_
FN:220,_RNvXs0_NtNtCsawKQoipWOme_14auth_framework3api9responsesINtB5_11ApiResponseNtNtB7_5users11UserProfileENtNtNtCs5l68vjwsCbw_9axum_core8response13into_response12IntoResponse13into_responseB9_
FN:220,_RNvXs0_NtNtCsawKQoipWOme_14auth_framework3api9responsesINtB5_11ApiResponseNtNtB7_6health14HealthResponseENtNtNtCs5l68vjwsCbw_9axum_core8response13into_response12IntoResponse13into_responseB9_
FN:220,_RNvXs0_NtNtCsawKQoipWOme_14auth_framework3api9responsesINtB5_11ApiResponseNtNtB7_6health22DetailedHealthResponseENtNtNtCs5l68vjwsCbw_9axum_core8response13into_response12IntoResponse13into_responseB9_
FN:220,_RNvXs0_NtNtCsawKQoipWOme_14auth_framework3api9responsesINtB5_11ApiResponseuENtNtNtCs5l68vjwsCbw_9axum_core8response13into_response12IntoResponse13into_responseB9_
FN:181,_RNvMs_NtNtCscyNIIr1ochp_14auth_framework3api9responsesINtB4_11ApiResponseuE12unauthorized
FN:211,_RNvMs_NtNtCscyNIIr1ochp_14auth_framework3api9responsesINtB4_11ApiResponseuE14internal_error
FN:186,_RNvMs_NtNtCscyNIIr1ochp_14auth_framework3api9responsesINtB4_11ApiResponseuE9forbidden
FN:240,_RNvXs1_NtNtCscyNIIr1ochp_14auth_framework3api9responsesINtB5_11ApiResponseuEINtNtCsf36jwlS2r7m_4core7convert4FromNtNtB9_6errors9AuthErrorE4from
FN:87,_RINvMNtNtCscyNIIr1ochp_14auth_framework3api9responsesINtB3_11ApiResponsepE15not_found_typedpEB7_
FN:112,_RINvMNtNtCscyNIIr1ochp_14auth_framework3api9responsesINtB3_11ApiResponsepE20success_with_messagepEB7_
FN:158,_RINvMs_NtNtCscyNIIr1ochp_14auth_framework3api9responsesINtB5_11ApiResponseuE18error_with_detailsppEB9_
FN:107,_RNvMNtNtCscyNIIr1ochp_14auth_framework3api9responsesINtB2_11ApiResponsepE20internal_error_typedB6_
FN:122,_RNvMNtNtCscyNIIr1ochp_14auth_framework3api9responsesINtB2_11ApiResponsepE2okB6_
FN:77,_RINvMNtNtCscyNIIr1ochp_14auth_framework3api9responsesINtB3_11ApiResponseINtNtCsaFwVybN8Rvy_5alloc3vec3VecNtNtB1d_6string6StringEE11error_typedReEB7_
FN:92,_RINvMNtNtCscyNIIr1ochp_14auth_framework3api9responsesINtB3_11ApiResponseINtNtCsaFwVybN8Rvy_5alloc3vec3VecNtNtB5_14rbac_endpoints12RoleResponseEE28forbidden_with_message_typedReEB7_
FN:77,_RINvMNtNtCscyNIIr1ochp_14auth_framework3api9responsesINtB3_11ApiResponseINtNtCsaFwVybN8Rvy_5alloc3vec3VecNtNtB5_5users11SessionInfoEE11error_typedReEB7_
FN:97,_RINvMNtNtCscyNIIr1ochp_14auth_framework3api9responsesINtB3_11ApiResponseNtNtB5_14rbac_endpoints12RoleResponseE24error_with_message_typedReEB7_
FN:92,_RINvMNtNtCscyNIIr1ochp_14auth_framework3api9responsesINtB3_11ApiResponseNtNtB5_14rbac_endpoints12RoleResponseE28forbidden_with_message_typedReEB7_
FN:102,_RINvMNtNtCscyNIIr1ochp_14auth_framework3api9responsesINtB3_11ApiResponseNtNtB5_14rbac_endpoints12RoleResponseE28not_found_with_message_typedReEB7_
FN:92,_RINvMNtNtCscyNIIr1ochp_14auth_framework3api9responsesINtB3_11ApiResponseNtNtB5_14rbac_endpoints16AuditLogResponseE28forbidden_with_message_typedReEB7_
FN:92,_RINvMNtNtCscyNIIr1ochp_14auth_framework3api9responsesINtB3_11ApiResponseNtNtB5_14rbac_endpoints17UserRolesResponseE28forbidden_with_message_typedReEB7_
FN:77,_RINvMNtNtCscyNIIr1ochp_14auth_framework3api9responsesINtB3_11ApiResponseNtNtB5_14rbac_endpoints23PermissionCheckResponseE11error_typedReEB7_
FN:77,_RINvMNtNtCscyNIIr1ochp_14auth_framework3api9responsesINtB3_11ApiResponseNtNtB5_3mfa16MfaSetupResponseE11error_typedReEB7_
FN:77,_RINvMNtNtCscyNIIr1ochp_14auth_framework3api9responsesINtB3_11ApiResponseNtNtB5_3mfa17MfaStatusResponseE11error_typedReEB7_
FN:77,_RINvMNtNtCscyNIIr1ochp_14auth_framework3api9responsesINtB3_11ApiResponseNtNtB5_4auth13LoginResponseE11error_typedNtNtCsaFwVybN8Rvy_5alloc6string6StringEB7_
FN:77,_RINvMNtNtCscyNIIr1ochp_14auth_framework3api9responsesINtB3_11ApiResponseNtNtB5_4auth13LoginResponseE11error_typedReEB7_
FN:82,_RINvMNtNtCscyNIIr1ochp_14auth_framework3api9responsesINtB3_11ApiResponseNtNtB5_4auth13LoginResponseE22validation_error_typedReEB7_
FN:77,_RINvMNtNtCscyNIIr1ochp_14auth_framework3api9responsesINtB3_11ApiResponseNtNtB5_4auth15RefreshResponseE11error_typedReEB7_
FN:82,_RINvMNtNtCscyNIIr1ochp_14auth_framework3api9responsesINtB3_11ApiResponseNtNtB5_4auth15RefreshResponseE22validation_error_typedReEB7_
FN:77,_RINvMNtNtCscyNIIr1ochp_14auth_framework3api9responsesINtB3_11ApiResponseNtNtB5_4auth8UserInfoE11error_typedReEB7_
FN:77,_RINvMNtNtCscyNIIr1ochp_14auth_framework3api9responsesINtB3_11ApiResponseNtNtB5_5admin11SystemStatsE11error_typedReEB7_
FN:82,_RINvMNtNtCscyNIIr1ochp_14auth_framework3api9responsesINtB3_11ApiResponseNtNtB5_5admin12UserListItemE22validation_error_typedReEB7_
FN:77,_RINvMNtNtCscyNIIr1ochp_14auth_framework3api9responsesINtB3_11ApiResponseNtNtB5_5admin16AuditLogResponseE11error_typedReEB7_
FN:77,_RINvMNtNtCscyNIIr1ochp_14auth_framework3api9responsesINtB3_11ApiResponseNtNtB5_5oauth13TokenResponseE11error_typedNtNtCsaFwVybN8Rvy_5alloc6string6StringEB7_
FN:77,_RINvMNtNtCscyNIIr1ochp_14auth_framework3api9responsesINtB3_11ApiResponseNtNtB5_5oauth13TokenResponseE11error_typedReEB7_
FN:82,_RINvMNtNtCscyNIIr1ochp_14auth_framework3api9responsesINtB3_11ApiResponseNtNtB5_5oauth18IntrospectResponseE22validation_error_typedReEB7_
FN:77,_RINvMNtNtCscyNIIr1ochp_14auth_framework3api9responsesINtB3_11ApiResponseNtNtB5_5users11UserProfileE11error_typedReEB7_
FN:77,_RINvMNtNtCscyNIIr1ochp_14auth_framework3api9responsesINtB3_11ApiResponseuE11error_typedReEB7_
FN:132,_RINvMNtNtCscyNIIr1ochp_14auth_framework3api9responsesINtB3_11ApiResponseuE15ok_with_messageNtNtCsaFwVybN8Rvy_5alloc6string6StringEB7_
FN:132,_RINvMNtNtCscyNIIr1ochp_14auth_framework3api9responsesINtB3_11ApiResponseuE15ok_with_messageReEB7_
FN:82,_RINvMNtNtCscyNIIr1ochp_14auth_framework3api9responsesINtB3_11ApiResponseuE22validation_error_typedReEB7_
FN:97,_RINvMNtNtCscyNIIr1ochp_14auth_framework3api9responsesINtB3_11ApiResponseuE24error_with_message_typedNtNtCsaFwVybN8Rvy_5alloc6string6StringEB7_
FN:97,_RINvMNtNtCscyNIIr1ochp_14auth_framework3api9responsesINtB3_11ApiResponseuE24error_with_message_typedReEB7_
FN:92,_RINvMNtNtCscyNIIr1ochp_14auth_framework3api9responsesINtB3_11ApiResponseuE28forbidden_with_message_typedReEB7_
FN:57,_RINvMNtNtCscyNIIr1ochp_14auth_framework3api9responsesINtB3_11ApiResponseuE4castINtNtCsaFwVybN8Rvy_5alloc3vec3VecNtNtB1k_6string6StringEEB7_
FN:57,_RINvMNtNtCscyNIIr1ochp_14auth_framework3api9responsesINtB3_11ApiResponseuE4castINtNtCsaFwVybN8Rvy_5alloc3vec3VecNtNtB5_14rbac_endpoints12RoleResponseEEB7_
FN:57,_RINvMNtNtCscyNIIr1ochp_14auth_framework3api9responsesINtB3_11ApiResponseuE4castINtNtCsaFwVybN8Rvy_5alloc3vec3VecNtNtB5_5users11SessionInfoEEB7_
FN:57,_RINvMNtNtCscyNIIr1ochp_14auth_framework3api9responsesINtB3_11ApiResponseuE4castNtNtB5_14rbac_endpoints12RoleResponseEB7_
FN:57,_RINvMNtNtCscyNIIr1ochp_14auth_framework3api9responsesINtB3_11ApiResponseuE4castNtNtB5_14rbac_endpoints16AuditLogResponseEB7_
FN:57,_RINvMNtNtCscyNIIr1ochp_14auth_framework3api9responsesINtB3_11ApiResponseuE4castNtNtB5_14rbac_endpoints17UserRolesResponseEB7_
FN:57,_RINvMNtNtCscyNIIr1ochp_14auth_framework3api9responsesINtB3_11ApiResponseuE4castNtNtB5_14rbac_endpoints23PermissionCheckResponseEB7_
FN:57,_RINvMNtNtCscyNIIr1ochp_14auth_framework3api9responsesINtB3_11ApiResponseuE4castNtNtB5_3mfa16MfaSetupResponseEB7_
FN:57,_RINvMNtNtCscyNIIr1ochp_14auth_framework3api9responsesINtB3_11ApiResponseuE4castNtNtB5_3mfa17MfaStatusResponseEB7_
FN:57,_RINvMNtNtCscyNIIr1ochp_14auth_framework3api9responsesINtB3_11ApiResponseuE4castNtNtB5_4auth13LoginResponseEB7_
FN:57,_RINvMNtNtCscyNIIr1ochp_14auth_framework3api9responsesINtB3_11ApiResponseuE4castNtNtB5_4auth15RefreshResponseEB7_
FN:57,_RINvMNtNtCscyNIIr1ochp_14auth_framework3api9responsesINtB3_11ApiResponseuE4castNtNtB5_4auth8UserInfoEB7_
FN:57,_RINvMNtNtCscyNIIr1ochp_14auth_framework3api9responsesINtB3_11ApiResponseuE4castNtNtB5_5admin11SystemStatsEB7_
FN:57,_RINvMNtNtCscyNIIr1ochp_14auth_framework3api9responsesINtB3_11ApiResponseuE4castNtNtB5_5admin12UserListItemEB7_
FN:57,_RINvMNtNtCscyNIIr1ochp_14auth_framework3api9responsesINtB3_11ApiResponseuE4castNtNtB5_5admin16AuditLogResponseEB7_
FN:57,_RINvMNtNtCscyNIIr1ochp_14auth_framework3api9responsesINtB3_11ApiResponseuE4castNtNtB5_5admin16UserListResponseEB7_
FN:57,_RINvMNtNtCscyNIIr1ochp_14auth_framework3api9responsesINtB3_11ApiResponseuE4castNtNtB5_5oauth13TokenResponseEB7_
FN:57,_RINvMNtNtCscyNIIr1ochp_14auth_framework3api9responsesINtB3_11ApiResponseuE4castNtNtB5_5oauth18IntrospectResponseEB7_
FN:57,_RINvMNtNtCscyNIIr1ochp_14auth_framework3api9responsesINtB3_11ApiResponseuE4castNtNtB5_5users11UserProfileEB7_
FN:57,_RINvMNtNtCscyNIIr1ochp_14auth_framework3api9responsesINtB3_11ApiResponseuE4castuEB7_
FN:176,_RINvMs_NtNtCscyNIIr1ochp_14auth_framework3api9responsesINtB5_11ApiResponseuE16validation_errorNtNtCsaFwVybN8Rvy_5alloc6string6StringEB9_
FN:176,_RINvMs_NtNtCscyNIIr1ochp_14auth_framework3api9responsesINtB5_11ApiResponseuE16validation_errorReEB9_
FN:206,_RINvMs_NtNtCscyNIIr1ochp_14auth_framework3api9responsesINtB5_11ApiResponseuE18error_with_messageReB1w_EB9_
FN:206,_RINvMs_NtNtCscyNIIr1ochp_14auth_framework3api9responsesINtB5_11ApiResponseuE18error_with_messageReNtNtCsaFwVybN8Rvy_5alloc6string6StringEB9_
FN:191,_RINvMs_NtNtCscyNIIr1ochp_14auth_framework3api9responsesINtB5_11ApiResponseuE22forbidden_with_messageReEB9_
FN:201,_RINvMs_NtNtCscyNIIr1ochp_14auth_framework3api9responsesINtB5_11ApiResponseuE22not_found_with_messageReEB9_
FN:144,_RINvMs_NtNtCscyNIIr1ochp_14auth_framework3api9responsesINtB5_11ApiResponseuE5errorReB1i_EB9_
FN:144,_RINvMs_NtNtCscyNIIr1ochp_14auth_framework3api9responsesINtB5_11ApiResponseuE5errorReNtNtCsaFwVybN8Rvy_5alloc6string6StringEB9_
FN:196,_RINvMs_NtNtCscyNIIr1ochp_14auth_framework3api9responsesINtB5_11ApiResponseuE9not_foundNtNtCsaFwVybN8Rvy_5alloc6string6StringEB9_
FN:224,_RNCNvXs0_NtNtCscyNIIr1ochp_14auth_framework3api9responsesINtB7_11ApiResponseuENtNtNtCs5l68vjwsCbw_9axum_core8response13into_response12IntoResponse13into_response0Bb_
FN:72,_RNvMNtNtCscyNIIr1ochp_14auth_framework3api9responsesINtB2_11ApiResponseINtNtCsaFwVybN8Rvy_5alloc3vec3VecNtNtB1c_6string6StringEE18unauthorized_typedB6_
FN:47,_RNvMNtNtCscyNIIr1ochp_14auth_framework3api9responsesINtB2_11ApiResponseINtNtCsaFwVybN8Rvy_5alloc3vec3VecNtNtB1c_6string6StringEE7successB6_
FN:47,_RNvMNtNtCscyNIIr1ochp_14auth_framework3api9responsesINtB2_11ApiResponseINtNtCsaFwVybN8Rvy_5alloc3vec3VecNtNtB4_14rbac_endpoints12RoleResponseEE7successB6_
FN:47,_RNvMNtNtCscyNIIr1ochp_14auth_framework3api9responsesINtB2_11ApiResponseINtNtCsaFwVybN8Rvy_5alloc3vec3VecNtNtB4_4auth12ProviderInfoEE7successB6_
FN:72,_RNvMNtNtCscyNIIr1ochp_14auth_framework3api9responsesINtB2_11ApiResponseINtNtCsaFwVybN8Rvy_5alloc3vec3VecNtNtB4_5users11SessionInfoEE18unauthorized_typedB6_
FN:47,_RNvMNtNtCscyNIIr1ochp_14auth_framework3api9responsesINtB2_11ApiResponseINtNtCsaFwVybN8Rvy_5alloc3vec3VecNtNtB4_5users11SessionInfoEE7successB6_
FN:47,_RNvMNtNtCscyNIIr1ochp_14auth_framework3api9responsesINtB2_11ApiResponseNtNtB4_14rbac_endpoints12RoleResponseE7successB6_
FN:47,_RNvMNtNtCscyNIIr1ochp_14auth_framework3api9responsesINtB2_11ApiResponseNtNtB4_14rbac_endpoints16AuditLogResponseE7successB6_
FN:47,_RNvMNtNtCscyNIIr1ochp_14auth_framework3api9responsesINtB2_11ApiResponseNtNtB4_14rbac_endpoints17UserRolesResponseE7successB6_
FN:47,_RNvMNtNtCscyNIIr1ochp_14auth_framework3api9responsesINtB2_11ApiResponseNtNtB4_14rbac_endpoints23PermissionCheckResponseE7successB6_
FN:72,_RNvMNtNtCscyNIIr1ochp_14auth_framework3api9responsesINtB2_11ApiResponseNtNtB4_3mfa16MfaSetupResponseE18unauthorized_typedB6_
FN:47,_RNvMNtNtCscyNIIr1ochp_14auth_framework3api9responsesINtB2_11ApiResponseNtNtB4_3mfa16MfaSetupResponseE7successB6_
FN:72,_RNvMNtNtCscyNIIr1ochp_14auth_framework3api9responsesINtB2_11ApiResponseNtNtB4_3mfa17MfaStatusResponseE18unauthorized_typedB6_
FN:47,_RNvMNtNtCscyNIIr1ochp_14auth_framework3api9responsesINtB2_11ApiResponseNtNtB4_3mfa17MfaStatusResponseE7successB6_
FN:47,_RNvMNtNtCscyNIIr1ochp_14auth_framework3api9responsesINtB2_11ApiResponseNtNtB4_4auth13LoginResponseE7successB6_
FN:47,_RNvMNtNtCscyNIIr1ochp_14auth_framework3api9responsesINtB2_11ApiResponseNtNtB4_4auth15RefreshResponseE7successB6_
FN:72,_RNvMNtNtCscyNIIr1ochp_14auth_framework3api9responsesINtB2_11ApiResponseNtNtB4_4auth8UserInfoE18unauthorized_typedB6_
FN:47,_RNvMNtNtCscyNIIr1ochp_14auth_framework3api9responsesINtB2_11ApiResponseNtNtB4_4auth8UserInfoE7successB6_
FN:67,_RNvMNtNtCscyNIIr1ochp_14auth_framework3api9responsesINtB2_11ApiResponseNtNtB4_5admin11SystemStatsE15forbidden_typedB6_
FN:72,_RNvMNtNtCscyNIIr1ochp_14auth_framework3api9responsesINtB2_11ApiResponseNtNtB4_5admin11SystemStatsE18unauthorized_typedB6_
FN:47,_RNvMNtNtCscyNIIr1ochp_14auth_framework3api9responsesINtB2_11ApiResponseNtNtB4_5admin11SystemStatsE7successB6_
FN:67,_RNvMNtNtCscyNIIr1ochp_14auth_framework3api9responsesINtB2_11ApiResponseNtNtB4_5admin12UserListItemE15forbidden_typedB6_
FN:72,_RNvMNtNtCscyNIIr1ochp_14auth_framework3api9responsesINtB2_11ApiResponseNtNtB4_5admin12UserListItemE18unauthorized_typedB6_
FN:47,_RNvMNtNtCscyNIIr1ochp_14auth_framework3api9responsesINtB2_11ApiResponseNtNtB4_5admin12UserListItemE7successB6_
FN:67,_RNvMNtNtCscyNIIr1ochp_14auth_framework3api9responsesINtB2_11ApiResponseNtNtB4_5admin16AuditLogResponseE15forbidden_typedB6_
FN:72,_RNvMNtNtCscyNIIr1ochp_14auth_framework3api9responsesINtB2_11ApiResponseNtNtB4_5admin16AuditLogResponseE18unauthorized_typedB6_
FN:47,_RNvMNtNtCscyNIIr1ochp_14auth_framework3api9responsesINtB2_11ApiResponseNtNtB4_5admin16AuditLogResponseE7successB6_
FN:67,_RNvMNtNtCscyNIIr1ochp_14auth_framework3api9responsesINtB2_11ApiResponseNtNtB4_5admin16UserListResponseE15forbidden_typedB6_
FN:72,_RNvMNtNtCscyNIIr1ochp_14auth_framework3api9responsesINtB2_11ApiResponseNtNtB4_5admin16UserListResponseE18unauthorized_typedB6_
FN:47,_RNvMNtNtCscyNIIr1ochp_14auth_framework3api9responsesINtB2_11ApiResponseNtNtB4_5admin16UserListResponseE7successB6_
FN:47,_RNvMNtNtCscyNIIr1ochp_14auth_framework3api9responsesINtB2_11ApiResponseNtNtB4_5oauth10ClientInfoE7successB6_
FN:47,_RNvMNtNtCscyNIIr1ochp_14auth_framework3api9responsesINtB2_11ApiResponseNtNtB4_5oauth13TokenResponseE7successB6_
FN:47,_RNvMNtNtCscyNIIr1ochp_14auth_framework3api9responsesINtB2_11ApiResponseNtNtB4_5oauth18IntrospectResponseE7successB6_
FN:67,_RNvMNtNtCscyNIIr1ochp_14auth_framework3api9responsesINtB2_11ApiResponseNtNtB4_5users11UserProfileE15forbidden_typedB6_
FN:72,_RNvMNtNtCscyNIIr1ochp_14auth_framework3api9responsesINtB2_11ApiResponseNtNtB4_5users11UserProfileE18unauthorized_typedB6_
FN:47,_RNvMNtNtCscyNIIr1ochp_14auth_framework3api9responsesINtB2_11ApiResponseNtNtB4_5users11UserProfileE7successB6_
FN:47,_RNvMNtNtCscyNIIr1ochp_14auth_framework3api9responsesINtB2_11ApiResponseNtNtB4_6health14HealthResponseE7successB6_
FN:47,_RNvMNtNtCscyNIIr1ochp_14auth_framework3api9responsesINtB2_11ApiResponseNtNtB4_6health22DetailedHealthResponseE7successB6_
FN:67,_RNvMNtNtCscyNIIr1ochp_14auth_framework3api9responsesINtB2_11ApiResponseuE15forbidden_typedB6_
FN:47,_RNvMNtNtCscyNIIr1ochp_14auth_framework3api9responsesINtB2_11ApiResponseuE7successB6_
FN:220,_RNvXs0_NtNtCscyNIIr1ochp_14auth_framework3api9responsesINtB5_11ApiResponseuENtNtNtCs5l68vjwsCbw_9axum_core8response13into_response12IntoResponse13into_responseB9_
FNDA:0,_RINvMNtNtCsawKQoipWOme_14auth_framework3api9responsesINtB3_11ApiResponsepE15not_found_typedpEB7_
FNDA:0,_RINvMNtNtCsawKQoipWOme_14auth_framework3api9responsesINtB3_11ApiResponsepE20success_with_messagepEB7_
FNDA:0,_RINvMs_NtNtCsawKQoipWOme_14auth_framework3api9responsesINtB5_11ApiResponseuE18error_with_detailsppEB9_
FNDA:0,_RNvMNtNtCsawKQoipWOme_14auth_framework3api9responsesINtB2_11ApiResponsepE20internal_error_typedB6_
FNDA:0,_RNvMNtNtCsawKQoipWOme_14auth_framework3api9responsesINtB2_11ApiResponsepE2okB6_
FNDA:0,_RNvMs_NtNtCsawKQoipWOme_14auth_framework3api9responsesINtB4_11ApiResponseuE12unauthorized
FNDA:0,_RNvMs_NtNtCsawKQoipWOme_14auth_framework3api9responsesINtB4_11ApiResponseuE14internal_error
FNDA:0,_RNvMs_NtNtCsawKQoipWOme_14auth_framework3api9responsesINtB4_11ApiResponseuE9forbidden
FNDA:0,_RNvXs1_NtNtCsawKQoipWOme_14auth_framework3api9responsesINtB5_11ApiResponseuEINtNtCsf36jwlS2r7m_4core7convert4FromNtNtB9_6errors9AuthErrorE4from
FNDA:0,_RINvMNtNtCsawKQoipWOme_14auth_framework3api9responsesINtB3_11ApiResponseINtNtCsaFwVybN8Rvy_5alloc3vec3VecNtNtB1d_6string6StringEE11error_typedReEB7_
FNDA:0,_RINvMNtNtCsawKQoipWOme_14auth_framework3api9responsesINtB3_11ApiResponseINtNtCsaFwVybN8Rvy_5alloc3vec3VecNtNtB5_14rbac_endpoints12RoleResponseEE28forbidden_with_message_typedReEB7_
FNDA:0,_RINvMNtNtCsawKQoipWOme_14auth_framework3api9responsesINtB3_11ApiResponseINtNtCsaFwVybN8Rvy_5alloc3vec3VecNtNtB5_5users11SessionInfoEE11error_typedReEB7_
FNDA:0,_RINvMNtNtCsawKQoipWOme_14auth_framework3api9responsesINtB3_11ApiResponseNtNtB5_14rbac_endpoints12RoleResponseE24error_with_message_typedReEB7_
FNDA:0,_RINvMNtNtCsawKQoipWOme_14auth_framework3api9responsesINtB3_11ApiResponseNtNtB5_14rbac_endpoints12RoleResponseE28forbidden_with_message_typedReEB7_
FNDA:0,_RINvMNtNtCsawKQoipWOme_14auth_framework3api9responsesINtB3_11ApiResponseNtNtB5_14rbac_endpoints12RoleResponseE28not_found_with_message_typedReEB7_
FNDA:0,_RINvMNtNtCsawKQoipWOme_14auth_framework3api9responsesINtB3_11ApiResponseNtNtB5_14rbac_endpoints16AuditLogResponseE28forbidden_with_message_typedReEB7_
FNDA:0,_RINvMNtNtCsawKQoipWOme_14auth_framework3api9responsesINtB3_11ApiResponseNtNtB5_14rbac_endpoints17UserRolesResponseE28forbidden_with_message_typedReEB7_
FNDA:0,_RINvMNtNtCsawKQoipWOme_14auth_framework3api9responsesINtB3_11ApiResponseNtNtB5_14rbac_endpoints23PermissionCheckResponseE11error_typedReEB7_
FNDA:0,_RINvMNtNtCsawKQoipWOme_14auth_framework3api9responsesINtB3_11ApiResponseNtNtB5_3mfa16MfaSetupResponseE11error_typedReEB7_
FNDA:0,_RINvMNtNtCsawKQoipWOme_14auth_framework3api9responsesINtB3_11ApiResponseNtNtB5_3mfa17MfaStatusResponseE11error_typedReEB7_
FNDA:0,_RINvMNtNtCsawKQoipWOme_14auth_framework3api9responsesINtB3_11ApiResponseNtNtB5_4auth13LoginResponseE11error_typedNtNtCsaFwVybN8Rvy_5alloc6string6StringEB7_
FNDA:0,_RINvMNtNtCsawKQoipWOme_14auth_framework3api9responsesINtB3_11ApiResponseNtNtB5_4auth13LoginResponseE11error_typedReEB7_
FNDA:0,_RINvMNtNtCsawKQoipWOme_14auth_framework3api9responsesINtB3_11ApiResponseNtNtB5_4auth13LoginResponseE22validation_error_typedReEB7_
FNDA:0,_RINvMNtNtCsawKQoipWOme_14auth_framework3api9responsesINtB3_11ApiResponseNtNtB5_4auth15RefreshResponseE11error_typedReEB7_
FNDA:0,_RINvMNtNtCsawKQoipWOme_14auth_framework3api9responsesINtB3_11ApiResponseNtNtB5_4auth15RefreshResponseE22validation_error_typedReEB7_
FNDA:0,_RINvMNtNtCsawKQoipWOme_14auth_framework3api9responsesINtB3_11ApiResponseNtNtB5_4auth8UserInfoE11error_typedReEB7_
FNDA:0,_RINvMNtNtCsawKQoipWOme_14auth_framework3api9responsesINtB3_11ApiResponseNtNtB5_5admin11SystemStatsE11error_typedReEB7_
FNDA:0,_RINvMNtNtCsawKQoipWOme_14auth_framework3api9responsesINtB3_11ApiResponseNtNtB5_5admin12UserListItemE22validation_error_typedReEB7_
FNDA:0,_RINvMNtNtCsawKQoipWOme_14auth_framework3api9responsesINtB3_11ApiResponseNtNtB5_5admin16AuditLogResponseE11error_typedReEB7_
FNDA:0,_RINvMNtNtCsawKQoipWOme_14auth_framework3api9responsesINtB3_11ApiResponseNtNtB5_5oauth13TokenResponseE11error_typedNtNtCsaFwVybN8Rvy_5alloc6string6StringEB7_
FNDA:0,_RINvMNtNtCsawKQoipWOme_14auth_framework3api9responsesINtB3_11ApiResponseNtNtB5_5oauth13TokenResponseE11error_typedReEB7_
FNDA:0,_RINvMNtNtCsawKQoipWOme_14auth_framework3api9responsesINtB3_11ApiResponseNtNtB5_5oauth18IntrospectResponseE22validation_error_typedReEB7_
FNDA:0,_RINvMNtNtCsawKQoipWOme_14auth_framework3api9responsesINtB3_11ApiResponseNtNtB5_5users11UserProfileE11error_typedReEB7_
FNDA:0,_RINvMNtNtCsawKQoipWOme_14auth_framework3api9responsesINtB3_11ApiResponseuE11error_typedReEB7_
FNDA:0,_RINvMNtNtCsawKQoipWOme_14auth_framework3api9responsesINtB3_11ApiResponseuE15ok_with_messageNtNtCsaFwVybN8Rvy_5alloc6string6StringEB7_
FNDA:0,_RINvMNtNtCsawKQoipWOme_14auth_framework3api9responsesINtB3_11ApiResponseuE15ok_with_messageReEB7_
FNDA:0,_RINvMNtNtCsawKQoipWOme_14auth_framework3api9responsesINtB3_11ApiResponseuE22validation_error_typedReEB7_
FNDA:0,_RINvMNtNtCsawKQoipWOme_14auth_framework3api9responsesINtB3_11ApiResponseuE24error_with_message_typedNtNtCsaFwVybN8Rvy_5alloc6string6StringEB7_
FNDA:0,_RINvMNtNtCsawKQoipWOme_14auth_framework3api9responsesINtB3_11ApiResponseuE24error_with_message_typedReEB7_
FNDA:0,_RINvMNtNtCsawKQoipWOme_14auth_framework3api9responsesINtB3_11ApiResponseuE28forbidden_with_message_typedReEB7_
FNDA:0,_RINvMNtNtCsawKQoipWOme_14auth_framework3api9responsesINtB3_11ApiResponseuE4castINtNtCsaFwVybN8Rvy_5alloc3vec3VecNtNtB1k_6string6StringEEB7_
FNDA:0,_RINvMNtNtCsawKQoipWOme_14auth_framework3api9responsesINtB3_11ApiResponseuE4castINtNtCsaFwVybN8Rvy_5alloc3vec3VecNtNtB5_14rbac_endpoints12RoleResponseEEB7_
FNDA:0,_RINvMNtNtCsawKQoipWOme_14auth_framework3api9responsesINtB3_11ApiResponseuE4castINtNtCsaFwVybN8Rvy_5alloc3vec3VecNtNtB5_5users11SessionInfoEEB7_
FNDA:0,_RINvMNtNtCsawKQoipWOme_14auth_framework3api9responsesINtB3_11ApiResponseuE4castNtNtB5_14rbac_endpoints12RoleResponseEB7_
FNDA:0,_RINvMNtNtCsawKQoipWOme_14auth_framework3api9responsesINtB3_11ApiResponseuE4castNtNtB5_14rbac_endpoints16AuditLogResponseEB7_
FNDA:0,_RINvMNtNtCsawKQoipWOme_14auth_framework3api9responsesINtB3_11ApiResponseuE4castNtNtB5_14rbac_endpoints17UserRolesResponseEB7_
FNDA:0,_RINvMNtNtCsawKQoipWOme_14auth_framework3api9responsesINtB3_11ApiResponseuE4castNtNtB5_14rbac_endpoints23PermissionCheckResponseEB7_
FNDA:0,_RINvMNtNtCsawKQoipWOme_14auth_framework3api9responsesINtB3_11ApiResponseuE4castNtNtB5_3mfa16MfaSetupResponseEB7_
FNDA:0,_RINvMNtNtCsawKQoipWOme_14auth_framework3api9responsesINtB3_11ApiResponseuE4castNtNtB5_3mfa17MfaStatusResponseEB7_
FNDA:0,_RINvMNtNtCsawKQoipWOme_14auth_framework3api9responsesINtB3_11ApiResponseuE4castNtNtB5_4auth13LoginResponseEB7_
FNDA:0,_RINvMNtNtCsawKQoipWOme_14auth_framework3api9responsesINtB3_11ApiResponseuE4castNtNtB5_4auth15RefreshResponseEB7_
FNDA:0,_RINvMNtNtCsawKQoipWOme_14auth_framework3api9responsesINtB3_11ApiResponseuE4castNtNtB5_4auth8UserInfoEB7_
FNDA:0,_RINvMNtNtCsawKQoipWOme_14auth_framework3api9responsesINtB3_11ApiResponseuE4castNtNtB5_5admin11SystemStatsEB7_
FNDA:0,_RINvMNtNtCsawKQoipWOme_14auth_framework3api9responsesINtB3_11ApiResponseuE4castNtNtB5_5admin12UserListItemEB7_
FNDA:0,_RINvMNtNtCsawKQoipWOme_14auth_framework3api9responsesINtB3_11ApiResponseuE4castNtNtB5_5admin16AuditLogResponseEB7_
FNDA:0,_RINvMNtNtCsawKQoipWOme_14auth_framework3api9responsesINtB3_11ApiResponseuE4castNtNtB5_5admin16UserListResponseEB7_
FNDA:0,_RINvMNtNtCsawKQoipWOme_14auth_framework3api9responsesINtB3_11ApiResponseuE4castNtNtB5_5oauth13TokenResponseEB7_
FNDA:0,_RINvMNtNtCsawKQoipWOme_14auth_framework3api9responsesINtB3_11ApiResponseuE4castNtNtB5_5oauth18IntrospectResponseEB7_
FNDA:0,_RINvMNtNtCsawKQoipWOme_14auth_framework3api9responsesINtB3_11ApiResponseuE4castNtNtB5_5users11UserProfileEB7_
FNDA:0,_RINvMNtNtCsawKQoipWOme_14auth_framework3api9responsesINtB3_11ApiResponseuE4castuEB7_
FNDA:0,_RINvMs_NtNtCsawKQoipWOme_14auth_framework3api9responsesINtB5_11ApiResponseuE16validation_errorNtNtCsaFwVybN8Rvy_5alloc6string6StringEB9_
FNDA:0,_RINvMs_NtNtCsawKQoipWOme_14auth_framework3api9responsesINtB5_11ApiResponseuE16validation_errorReEB9_
FNDA:0,_RINvMs_NtNtCsawKQoipWOme_14auth_framework3api9responsesINtB5_11ApiResponseuE18error_with_messageReB1w_EB9_
FNDA:0,_RINvMs_NtNtCsawKQoipWOme_14auth_framework3api9responsesINtB5_11ApiResponseuE18error_with_messageReNtNtCsaFwVybN8Rvy_5alloc6string6StringEB9_
FNDA:0,_RINvMs_NtNtCsawKQoipWOme_14auth_framework3api9responsesINtB5_11ApiResponseuE22forbidden_with_messageReEB9_
FNDA:0,_RINvMs_NtNtCsawKQoipWOme_14auth_framework3api9responsesINtB5_11ApiResponseuE22not_found_with_messageReEB9_
FNDA:0,_RINvMs_NtNtCsawKQoipWOme_14auth_framework3api9responsesINtB5_11ApiResponseuE5errorReB1i_EB9_
FNDA:0,_RINvMs_NtNtCsawKQoipWOme_14auth_framework3api9responsesINtB5_11ApiResponseuE5errorReNtNtCsaFwVybN8Rvy_5alloc6string6StringEB9_
FNDA:0,_RINvMs_NtNtCsawKQoipWOme_14auth_framework3api9responsesINtB5_11ApiResponseuE9not_foundNtNtCsaFwVybN8Rvy_5alloc6string6StringEB9_
FNDA:0,_RNCNvXs0_NtNtCsawKQoipWOme_14auth_framework3api9responsesINtB7_11ApiResponseINtNtCsaFwVybN8Rvy_5alloc3vec3VecNtNtB1h_6string6StringEENtNtNtCs5l68vjwsCbw_9axum_core8response13into_response12IntoResponse13into_response0Bb_
FNDA:0,_RNCNvXs0_NtNtCsawKQoipWOme_14auth_framework3api9responsesINtB7_11ApiResponseINtNtCsaFwVybN8Rvy_5alloc3vec3VecNtNtB9_4auth12ProviderInfoEENtNtNtCs5l68vjwsCbw_9axum_core8response13into_response12IntoResponse13into_response0Bb_
FNDA:0,_RNCNvXs0_NtNtCsawKQoipWOme_14auth_framework3api9responsesINtB7_11ApiResponseINtNtCsaFwVybN8Rvy_5alloc3vec3VecNtNtB9_5users11SessionInfoEENtNtNtCs5l68vjwsCbw_9axum_core8response13into_response12IntoResponse13into_response0Bb_
FNDA:0,_RNCNvXs0_NtNtCsawKQoipWOme_14auth_framework3api9responsesINtB7_11ApiResponseNtNtB9_3mfa16MfaSetupResponseENtNtNtCs5l68vjwsCbw_9axum_core8response13into_response12IntoResponse13into_response0Bb_
FNDA:0,_RNCNvXs0_NtNtCsawKQoipWOme_14auth_framework3api9responsesINtB7_11ApiResponseNtNtB9_3mfa17MfaStatusResponseENtNtNtCs5l68vjwsCbw_9axum_core8response13into_response12IntoResponse13into_response0Bb_
FNDA:0,_RNCNvXs0_NtNtCsawKQoipWOme_14auth_framework3api9responsesINtB7_11ApiResponseNtNtB9_4auth13LoginResponseENtNtNtCs5l68vjwsCbw_9axum_core8response13into_response12IntoResponse13into_response0Bb_
FNDA:0,_RNCNvXs0_NtNtCsawKQoipWOme_14auth_framework3api9responsesINtB7_11ApiResponseNtNtB9_4auth15RefreshResponseENtNtNtCs5l68vjwsCbw_9axum_core8response13into_response12IntoResponse13into_response0Bb_
FNDA:0,_RNCNvXs0_NtNtCsawKQoipWOme_14auth_framework3api9responsesINtB7_11ApiResponseNtNtB9_4auth8UserInfoENtNtNtCs5l68vjwsCbw_9axum_core8response13into_response12IntoResponse13into_response0Bb_
FNDA:0,_RNCNvXs0_NtNtCsawKQoipWOme_14auth_framework3api9responsesINtB7_11ApiResponseNtNtB9_5admin11SystemStatsENtNtNtCs5l68vjwsCbw_9axum_core8response13into_response12IntoResponse13into_response0Bb_
FNDA:0,_RNCNvXs0_NtNtCsawKQoipWOme_14auth_framework3api9responsesINtB7_11ApiResponseNtNtB9_5admin12UserListItemENtNtNtCs5l68vjwsCbw_9axum_core8response13into_response12IntoResponse13into_response0Bb_
FNDA:0,_RNCNvXs0_NtNtCsawKQoipWOme_14auth_framework3api9responsesINtB7_11ApiResponseNtNtB9_5admin16AuditLogResponseENtNtNtCs5l68vjwsCbw_9axum_core8response13into_response12IntoResponse13into_response0Bb_
FNDA:0,_RNCNvXs0_NtNtCsawKQoipWOme_14auth_framework3api9responsesINtB7_11ApiResponseNtNtB9_5admin16UserListResponseENtNtNtCs5l68vjwsCbw_9axum_core8response13into_response12IntoResponse13into_response0Bb_
FNDA:0,_RNCNvXs0_NtNtCsawKQoipWOme_14auth_framework3api9responsesINtB7_11ApiResponseNtNtB9_5oauth10ClientInfoENtNtNtCs5l68vjwsCbw_9axum_core8response13into_response12IntoResponse13into_response0Bb_
FNDA:0,_RNCNvXs0_NtNtCsawKQoipWOme_14auth_framework3api9responsesINtB7_11ApiResponseNtNtB9_5oauth13TokenResponseENtNtNtCs5l68vjwsCbw_9axum_core8response13into_response12IntoResponse13into_response0Bb_
FNDA:0,_RNCNvXs0_NtNtCsawKQoipWOme_14auth_framework3api9responsesINtB7_11ApiResponseNtNtB9_5oauth18IntrospectResponseENtNtNtCs5l68vjwsCbw_9axum_core8response13into_response12IntoResponse13into_response0Bb_
FNDA:0,_RNCNvXs0_NtNtCsawKQoipWOme_14auth_framework3api9responsesINtB7_11ApiResponseNtNtB9_5users11UserProfileENtNtNtCs5l68vjwsCbw_9axum_core8response13into_response12IntoResponse13into_response0Bb_
FNDA:0,_RNCNvXs0_NtNtCsawKQoipWOme_14auth_framework3api9responsesINtB7_11ApiResponseNtNtB9_6health14HealthResponseENtNtNtCs5l68vjwsCbw_9axum_core8response13into_response12IntoResponse13into_response0Bb_
FNDA:0,_RNCNvXs0_NtNtCsawKQoipWOme_14auth_framework3api9responsesINtB7_11ApiResponseNtNtB9_6health22DetailedHealthResponseENtNtNtCs5l68vjwsCbw_9axum_core8response13into_response12IntoResponse13into_response0Bb_
FNDA:0,_RNCNvXs0_NtNtCsawKQoipWOme_14auth_framework3api9responsesINtB7_11ApiResponseuENtNtNtCs5l68vjwsCbw_9axum_core8response13into_response12IntoResponse13into_response0Bb_
FNDA:0,_RNvMNtNtCsawKQoipWOme_14auth_framework3api9responsesINtB2_11ApiResponseINtNtCsaFwVybN8Rvy_5alloc3vec3VecNtNtB1c_6string6StringEE18unauthorized_typedB6_
FNDA:0,_RNvMNtNtCsawKQoipWOme_14auth_framework3api9responsesINtB2_11ApiResponseINtNtCsaFwVybN8Rvy_5alloc3vec3VecNtNtB1c_6string6StringEE7successB6_
FNDA:0,_RNvMNtNtCsawKQoipWOme_14auth_framework3api9responsesINtB2_11ApiResponseINtNtCsaFwVybN8Rvy_5alloc3vec3VecNtNtB4_14rbac_endpoints12RoleResponseEE7successB6_
FNDA:0,_RNvMNtNtCsawKQoipWOme_14auth_framework3api9responsesINtB2_11ApiResponseINtNtCsaFwVybN8Rvy_5alloc3vec3VecNtNtB4_4auth12ProviderInfoEE7successB6_
FNDA:0,_RNvMNtNtCsawKQoipWOme_14auth_framework3api9responsesINtB2_11ApiResponseINtNtCsaFwVybN8Rvy_5alloc3vec3VecNtNtB4_5users11SessionInfoEE18unauthorized_typedB6_
FNDA:0,_RNvMNtNtCsawKQoipWOme_14auth_framework3api9responsesINtB2_11ApiResponseINtNtCsaFwVybN8Rvy_5alloc3vec3VecNtNtB4_5users11SessionInfoEE7successB6_
FNDA:0,_RNvMNtNtCsawKQoipWOme_14auth_framework3api9responsesINtB2_11ApiResponseNtNtB4_14rbac_endpoints12RoleResponseE7successB6_
FNDA:0,_RNvMNtNtCsawKQoipWOme_14auth_framework3api9responsesINtB2_11ApiResponseNtNtB4_14rbac_endpoints16AuditLogResponseE7successB6_
FNDA:0,_RNvMNtNtCsawKQoipWOme_14auth_framework3api9responsesINtB2_11ApiResponseNtNtB4_14rbac_endpoints17UserRolesResponseE7successB6_
FNDA:0,_RNvMNtNtCsawKQoipWOme_14auth_framework3api9responsesINtB2_11ApiResponseNtNtB4_14rbac_endpoints23PermissionCheckResponseE7successB6_
FNDA:0,_RNvMNtNtCsawKQoipWOme_14auth_framework3api9responsesINtB2_11ApiResponseNtNtB4_3mfa16MfaSetupResponseE18unauthorized_typedB6_
FNDA:0,_RNvMNtNtCsawKQoipWOme_14auth_framework3api9responsesINtB2_11ApiResponseNtNtB4_3mfa16MfaSetupResponseE7successB6_
FNDA:0,_RNvMNtNtCsawKQoipWOme_14auth_framework3api9responsesINtB2_11ApiResponseNtNtB4_3mfa17MfaStatusResponseE18unauthorized_typedB6_
FNDA:0,_RNvMNtNtCsawKQoipWOme_14auth_framework3api9responsesINtB2_11ApiResponseNtNtB4_3mfa17MfaStatusResponseE7successB6_
FNDA:0,_RNvMNtNtCsawKQoipWOme_14auth_framework3api9responsesINtB2_11ApiResponseNtNtB4_4auth13LoginResponseE7successB6_
FNDA:0,_RNvMNtNtCsawKQoipWOme_14auth_framework3api9responsesINtB2_11ApiResponseNtNtB4_4auth15RefreshResponseE7successB6_
FNDA:0,_RNvMNtNtCsawKQoipWOme_14auth_framework3api9responsesINtB2_11ApiResponseNtNtB4_4auth8UserInfoE18unauthorized_typedB6_
FNDA:0,_RNvMNtNtCsawKQoipWOme_14auth_framework3api9responsesINtB2_11ApiResponseNtNtB4_4auth8UserInfoE7successB6_
FNDA:0,_RNvMNtNtCsawKQoipWOme_14auth_framework3api9responsesINtB2_11ApiResponseNtNtB4_5admin11SystemStatsE15forbidden_typedB6_
FNDA:0,_RNvMNtNtCsawKQoipWOme_14auth_framework3api9responsesINtB2_11ApiResponseNtNtB4_5admin11SystemStatsE18unauthorized_typedB6_
FNDA:0,_RNvMNtNtCsawKQoipWOme_14auth_framework3api9responsesINtB2_11ApiResponseNtNtB4_5admin11SystemStatsE7successB6_
FNDA:0,_RNvMNtNtCsawKQoipWOme_14auth_framework3api9responsesINtB2_11ApiResponseNtNtB4_5admin12UserListItemE15forbidden_typedB6_
FNDA:0,_RNvMNtNtCsawKQoipWOme_14auth_framework3api9responsesINtB2_11ApiResponseNtNtB4_5admin12UserListItemE18unauthorized_typedB6_
FNDA:0,_RNvMNtNtCsawKQoipWOme_14auth_framework3api9responsesINtB2_11ApiResponseNtNtB4_5admin12UserListItemE7successB6_
FNDA:0,_RNvMNtNtCsawKQoipWOme_14auth_framework3api9responsesINtB2_11ApiResponseNtNtB4_5admin16AuditLogResponseE15forbidden_typedB6_
FNDA:0,_RNvMNtNtCsawKQoipWOme_14auth_framework3api9responsesINtB2_11ApiResponseNtNtB4_5admin16AuditLogResponseE18unauthorized_typedB6_
FNDA:0,_RNvMNtNtCsawKQoipWOme_14auth_framework3api9responsesINtB2_11ApiResponseNtNtB4_5admin16AuditLogResponseE7successB6_
FNDA:0,_RNvMNtNtCsawKQoipWOme_14auth_framework3api9responsesINtB2_11ApiResponseNtNtB4_5admin16UserListResponseE15forbidden_typedB6_
FNDA:0,_RNvMNtNtCsawKQoipWOme_14auth_framework3api9responsesINtB2_11ApiResponseNtNtB4_5admin16UserListResponseE18unauthorized_typedB6_
FNDA:0,_RNvMNtNtCsawKQoipWOme_14auth_framework3api9responsesINtB2_11ApiResponseNtNtB4_5admin16UserListResponseE7successB6_
FNDA:0,_RNvMNtNtCsawKQoipWOme_14auth_framework3api9responsesINtB2_11ApiResponseNtNtB4_5oauth10ClientInfoE7successB6_
FNDA:0,_RNvMNtNtCsawKQoipWOme_14auth_framework3api9responsesINtB2_11ApiResponseNtNtB4_5oauth13TokenResponseE7successB6_
FNDA:0,_RNvMNtNtCsawKQoipWOme_14auth_framework3api9responsesINtB2_11ApiResponseNtNtB4_5oauth18IntrospectResponseE7successB6_
FNDA:0,_RNvMNtNtCsawKQoipWOme_14auth_framework3api9responsesINtB2_11ApiResponseNtNtB4_5users11UserProfileE15forbidden_typedB6_
FNDA:0,_RNvMNtNtCsawKQoipWOme_14auth_framework3api9responsesINtB2_11ApiResponseNtNtB4_5users11UserProfileE18unauthorized_typedB6_
FNDA:0,_RNvMNtNtCsawKQoipWOme_14auth_framework3api9responsesINtB2_11ApiResponseNtNtB4_5users11UserProfileE7successB6_
FNDA:0,_RNvMNtNtCsawKQoipWOme_14auth_framework3api9responsesINtB2_11ApiResponseNtNtB4_6health14HealthResponseE7successB6_
FNDA:0,_RNvMNtNtCsawKQoipWOme_14auth_framework3api9responsesINtB2_11ApiResponseNtNtB4_6health22DetailedHealthResponseE7successB6_
FNDA:0,_RNvMNtNtCsawKQoipWOme_14auth_framework3api9responsesINtB2_11ApiResponseuE15forbidden_typedB6_
FNDA:0,_RNvMNtNtCsawKQoipWOme_14auth_framework3api9responsesINtB2_11ApiResponseuE7successB6_
FNDA:0,_RNvXs0_NtNtCsawKQoipWOme_14auth_framework3api9responsesINtB5_11ApiResponseINtNtCsaFwVybN8Rvy_5alloc3vec3VecNtNtB1f_6string6StringEENtNtNtCs5l68vjwsCbw_9axum_core8response13into_response12IntoResponse13into_responseB9_
FNDA:0,_RNvXs0_NtNtCsawKQoipWOme_14auth_framework3api9responsesINtB5_11ApiResponseINtNtCsaFwVybN8Rvy_5alloc3vec3VecNtNtB7_4auth12ProviderInfoEENtNtNtCs5l68vjwsCbw_9axum_core8response13into_response12IntoResponse13into_responseB9_
FNDA:0,_RNvXs0_NtNtCsawKQoipWOme_14auth_framework3api9responsesINtB5_11ApiResponseINtNtCsaFwVybN8Rvy_5alloc3vec3VecNtNtB7_5users11SessionInfoEENtNtNtCs5l68vjwsCbw_9axum_core8response13into_response12IntoResponse13into_responseB9_
FNDA:0,_RNvXs0_NtNtCsawKQoipWOme_14auth_framework3api9responsesINtB5_11ApiResponseNtNtB7_3mfa16MfaSetupResponseENtNtNtCs5l68vjwsCbw_9axum_core8response13into_response12IntoResponse13into_responseB9_
FNDA:0,_RNvXs0_NtNtCsawKQoipWOme_14auth_framework3api9responsesINtB5_11ApiResponseNtNtB7_3mfa17MfaStatusResponseENtNtNtCs5l68vjwsCbw_9axum_core8response13into_response12IntoResponse13into_responseB9_
FNDA:0,_RNvXs0_NtNtCsawKQoipWOme_14auth_framework3api9responsesINtB5_11ApiResponseNtNtB7_4auth13LoginResponseENtNtNtCs5l68vjwsCbw_9axum_core8response13into_response12IntoResponse13into_responseB9_
FNDA:0,_RNvXs0_NtNtCsawKQoipWOme_14auth_framework3api9responsesINtB5_11ApiResponseNtNtB7_4auth15RefreshResponseENtNtNtCs5l68vjwsCbw_9axum_core8response13into_response12IntoResponse13into_responseB9_
FNDA:0,_RNvXs0_NtNtCsawKQoipWOme_14auth_framework3api9responsesINtB5_11ApiResponseNtNtB7_4auth8UserInfoENtNtNtCs5l68vjwsCbw_9axum_core8response13into_response12IntoResponse13into_responseB9_
FNDA:0,_RNvXs0_NtNtCsawKQoipWOme_14auth_framework3api9responsesINtB5_11ApiResponseNtNtB7_5admin11SystemStatsENtNtNtCs5l68vjwsCbw_9axum_core8response13into_response12IntoResponse13into_responseB9_
FNDA:0,_RNvXs0_NtNtCsawKQoipWOme_14auth_framework3api9responsesINtB5_11ApiResponseNtNtB7_5admin12UserListItemENtNtNtCs5l68vjwsCbw_9axum_core8response13into_response12IntoResponse13into_responseB9_
FNDA:0,_RNvXs0_NtNtCsawKQoipWOme_14auth_framework3api9responsesINtB5_11ApiResponseNtNtB7_5admin16AuditLogResponseENtNtNtCs5l68vjwsCbw_9axum_core8response13into_response12IntoResponse13into_responseB9_
FNDA:0,_RNvXs0_NtNtCsawKQoipWOme_14auth_framework3api9responsesINtB5_11ApiResponseNtNtB7_5admin16UserListResponseENtNtNtCs5l68vjwsCbw_9axum_core8response13into_response12IntoResponse13into_responseB9_
FNDA:0,_RNvXs0_NtNtCsawKQoipWOme_14auth_framework3api9responsesINtB5_11ApiResponseNtNtB7_5oauth10ClientInfoENtNtNtCs5l68vjwsCbw_9axum_core8response13into_response12IntoResponse13into_responseB9_
FNDA:0,_RNvXs0_NtNtCsawKQoipWOme_14auth_framework3api9responsesINtB5_11ApiResponseNtNtB7_5oauth13TokenResponseENtNtNtCs5l68vjwsCbw_9axum_core8response13into_response12IntoResponse13into_responseB9_
FNDA:0,_RNvXs0_NtNtCsawKQoipWOme_14auth_framework3api9responsesINtB5_11ApiResponseNtNtB7_5oauth18IntrospectResponseENtNtNtCs5l68vjwsCbw_9axum_core8response13into_response12IntoResponse13into_responseB9_
FNDA:0,_RNvXs0_NtNtCsawKQoipWOme_14auth_framework3api9responsesINtB5_11ApiResponseNtNtB7_5users11UserProfileENtNtNtCs5l68vjwsCbw_9axum_core8response13into_response12IntoResponse13into_responseB9_
FNDA:0,_RNvXs0_NtNtCsawKQoipWOme_14auth_framework3api9responsesINtB5_11ApiResponseNtNtB7_6health14HealthResponseENtNtNtCs5l68vjwsCbw_9axum_core8response13into_response12IntoResponse13into_responseB9_
FNDA:0,_RNvXs0_NtNtCsawKQoipWOme_14auth_framework3api9responsesINtB5_11ApiResponseNtNtB7_6health22DetailedHealthResponseENtNtNtCs5l68vjwsCbw_9axum_core8response13into_response12IntoResponse13into_responseB9_
FNDA:0,_RNvXs0_NtNtCsawKQoipWOme_14auth_framework3api9responsesINtB5_11ApiResponseuENtNtNtCs5l68vjwsCbw_9axum_core8response13into_response12IntoResponse13into_responseB9_
FNDA:0,_RNvMs_NtNtCscyNIIr1ochp_14auth_framework3api9responsesINtB4_11ApiResponseuE12unauthorized
FNDA:0,_RNvMs_NtNtCscyNIIr1ochp_14auth_framework3api9responsesINtB4_11ApiResponseuE14internal_error
FNDA:0,_RNvMs_NtNtCscyNIIr1ochp_14auth_framework3api9responsesINtB4_11ApiResponseuE9forbidden
FNDA:0,_RNvXs1_NtNtCscyNIIr1ochp_14auth_framework3api9responsesINtB5_11ApiResponseuEINtNtCsf36jwlS2r7m_4core7convert4FromNtNtB9_6errors9AuthErrorE4from
FNDA:0,_RINvMNtNtCscyNIIr1ochp_14auth_framework3api9responsesINtB3_11ApiResponsepE15not_found_typedpEB7_
FNDA:0,_RINvMNtNtCscyNIIr1ochp_14auth_framework3api9responsesINtB3_11ApiResponsepE20success_with_messagepEB7_
FNDA:0,_RINvMs_NtNtCscyNIIr1ochp_14auth_framework3api9responsesINtB5_11ApiResponseuE18error_with_detailsppEB9_
FNDA:0,_RNvMNtNtCscyNIIr1ochp_14auth_framework3api9responsesINtB2_11ApiResponsepE20internal_error_typedB6_
FNDA:0,_RNvMNtNtCscyNIIr1ochp_14auth_framework3api9responsesINtB2_11ApiResponsepE2okB6_
FNDA:0,_RINvMNtNtCscyNIIr1ochp_14auth_framework3api9responsesINtB3_11ApiResponseINtNtCsaFwVybN8Rvy_5alloc3vec3VecNtNtB1d_6string6StringEE11error_typedReEB7_
FNDA:0,_RINvMNtNtCscyNIIr1ochp_14auth_framework3api9responsesINtB3_11ApiResponseINtNtCsaFwVybN8Rvy_5alloc3vec3VecNtNtB5_14rbac_endpoints12RoleResponseEE28forbidden_with_message_typedReEB7_
FNDA:0,_RINvMNtNtCscyNIIr1ochp_14auth_framework3api9responsesINtB3_11ApiResponseINtNtCsaFwVybN8Rvy_5alloc3vec3VecNtNtB5_5users11SessionInfoEE11error_typedReEB7_
FNDA:0,_RINvMNtNtCscyNIIr1ochp_14auth_framework3api9responsesINtB3_11ApiResponseNtNtB5_14rbac_endpoints12RoleResponseE24error_with_message_typedReEB7_
FNDA:0,_RINvMNtNtCscyNIIr1ochp_14auth_framework3api9responsesINtB3_11ApiResponseNtNtB5_14rbac_endpoints12RoleResponseE28forbidden_with_message_typedReEB7_
FNDA:0,_RINvMNtNtCscyNIIr1ochp_14auth_framework3api9responsesINtB3_11ApiResponseNtNtB5_14rbac_endpoints12RoleResponseE28not_found_with_message_typedReEB7_
FNDA:0,_RINvMNtNtCscyNIIr1ochp_14auth_framework3api9responsesINtB3_11ApiResponseNtNtB5_14rbac_endpoints16AuditLogResponseE28forbidden_with_message_typedReEB7_
FNDA:0,_RINvMNtNtCscyNIIr1ochp_14auth_framework3api9responsesINtB3_11ApiResponseNtNtB5_14rbac_endpoints17UserRolesResponseE28forbidden_with_message_typedReEB7_
FNDA:0,_RINvMNtNtCscyNIIr1ochp_14auth_framework3api9responsesINtB3_11ApiResponseNtNtB5_14rbac_endpoints23PermissionCheckResponseE11error_typedReEB7_
FNDA:0,_RINvMNtNtCscyNIIr1ochp_14auth_framework3api9responsesINtB3_11ApiResponseNtNtB5_3mfa16MfaSetupResponseE11error_typedReEB7_
FNDA:0,_RINvMNtNtCscyNIIr1ochp_14auth_framework3api9responsesINtB3_11ApiResponseNtNtB5_3mfa17MfaStatusResponseE11error_typedReEB7_
FNDA:0,_RINvMNtNtCscyNIIr1ochp_14auth_framework3api9responsesINtB3_11ApiResponseNtNtB5_4auth13LoginResponseE11error_typedNtNtCsaFwVybN8Rvy_5alloc6string6StringEB7_
FNDA:0,_RINvMNtNtCscyNIIr1ochp_14auth_framework3api9responsesINtB3_11ApiResponseNtNtB5_4auth13LoginResponseE11error_typedReEB7_
FNDA:0,_RINvMNtNtCscyNIIr1ochp_14auth_framework3api9responsesINtB3_11ApiResponseNtNtB5_4auth13LoginResponseE22validation_error_typedReEB7_
FNDA:0,_RINvMNtNtCscyNIIr1ochp_14auth_framework3api9responsesINtB3_11ApiResponseNtNtB5_4auth15RefreshResponseE11error_typedReEB7_
FNDA:0,_RINvMNtNtCscyNIIr1ochp_14auth_framework3api9responsesINtB3_11ApiResponseNtNtB5_4auth15RefreshResponseE22validation_error_typedReEB7_
FNDA:0,_RINvMNtNtCscyNIIr1ochp_14auth_framework3api9responsesINtB3_11ApiResponseNtNtB5_4auth8UserInfoE11error_typedReEB7_
FNDA:0,_RINvMNtNtCscyNIIr1ochp_14auth_framework3api9responsesINtB3_11ApiResponseNtNtB5_5admin11SystemStatsE11error_typedReEB7_
FNDA:0,_RINvMNtNtCscyNIIr1ochp_14auth_framework3api9responsesINtB3_11ApiResponseNtNtB5_5admin12UserListItemE22validation_error_typedReEB7_
FNDA:0,_RINvMNtNtCscyNIIr1ochp_14auth_framework3api9responsesINtB3_11ApiResponseNtNtB5_5admin16AuditLogResponseE11error_typedReEB7_
FNDA:0,_RINvMNtNtCscyNIIr1ochp_14auth_framework3api9responsesINtB3_11ApiResponseNtNtB5_5oauth13TokenResponseE11error_typedNtNtCsaFwVybN8Rvy_5alloc6string6StringEB7_
FNDA:0,_RINvMNtNtCscyNIIr1ochp_14auth_framework3api9responsesINtB3_11ApiResponseNtNtB5_5oauth13TokenResponseE11error_typedReEB7_
FNDA:0,_RINvMNtNtCscyNIIr1ochp_14auth_framework3api9responsesINtB3_11ApiResponseNtNtB5_5oauth18IntrospectResponseE22validation_error_typedReEB7_
FNDA:0,_RINvMNtNtCscyNIIr1ochp_14auth_framework3api9responsesINtB3_11ApiResponseNtNtB5_5users11UserProfileE11error_typedReEB7_
FNDA:0,_RINvMNtNtCscyNIIr1ochp_14auth_framework3api9responsesINtB3_11ApiResponseuE11error_typedReEB7_
FNDA:0,_RINvMNtNtCscyNIIr1ochp_14auth_framework3api9responsesINtB3_11ApiResponseuE15ok_with_messageNtNtCsaFwVybN8Rvy_5alloc6string6StringEB7_
FNDA:0,_RINvMNtNtCscyNIIr1ochp_14auth_framework3api9responsesINtB3_11ApiResponseuE15ok_with_messageReEB7_
FNDA:0,_RINvMNtNtCscyNIIr1ochp_14auth_framework3api9responsesINtB3_11ApiResponseuE22validation_error_typedReEB7_
FNDA:0,_RINvMNtNtCscyNIIr1ochp_14auth_framework3api9responsesINtB3_11ApiResponseuE24error_with_message_typedNtNtCsaFwVybN8Rvy_5alloc6string6StringEB7_
FNDA:0,_RINvMNtNtCscyNIIr1ochp_14auth_framework3api9responsesINtB3_11ApiResponseuE24error_with_message_typedReEB7_
FNDA:0,_RINvMNtNtCscyNIIr1ochp_14auth_framework3api9responsesINtB3_11ApiResponseuE28forbidden_with_message_typedReEB7_
FNDA:0,_RINvMNtNtCscyNIIr1ochp_14auth_framework3api9responsesINtB3_11ApiResponseuE4castINtNtCsaFwVybN8Rvy_5alloc3vec3VecNtNtB1k_6string6StringEEB7_
FNDA:0,_RINvMNtNtCscyNIIr1ochp_14auth_framework3api9responsesINtB3_11ApiResponseuE4castINtNtCsaFwVybN8Rvy_5alloc3vec3VecNtNtB5_14rbac_endpoints12RoleResponseEEB7_
FNDA:0,_RINvMNtNtCscyNIIr1ochp_14auth_framework3api9responsesINtB3_11ApiResponseuE4castINtNtCsaFwVybN8Rvy_5alloc3vec3VecNtNtB5_5users11SessionInfoEEB7_
FNDA:0,_RINvMNtNtCscyNIIr1ochp_14auth_framework3api9responsesINtB3_11ApiResponseuE4castNtNtB5_14rbac_endpoints12RoleResponseEB7_
FNDA:0,_RINvMNtNtCscyNIIr1ochp_14auth_framework3api9responsesINtB3_11ApiResponseuE4castNtNtB5_14rbac_endpoints16AuditLogResponseEB7_
FNDA:0,_RINvMNtNtCscyNIIr1ochp_14auth_framework3api9responsesINtB3_11ApiResponseuE4castNtNtB5_14rbac_endpoints17UserRolesResponseEB7_
FNDA:0,_RINvMNtNtCscyNIIr1ochp_14auth_framework3api9responsesINtB3_11ApiResponseuE4castNtNtB5_14rbac_endpoints23PermissionCheckResponseEB7_
FNDA:0,_RINvMNtNtCscyNIIr1ochp_14auth_framework3api9responsesINtB3_11ApiResponseuE4castNtNtB5_3mfa16MfaSetupResponseEB7_
FNDA:0,_RINvMNtNtCscyNIIr1ochp_14auth_framework3api9responsesINtB3_11ApiResponseuE4castNtNtB5_3mfa17MfaStatusResponseEB7_
FNDA:0,_RINvMNtNtCscyNIIr1ochp_14auth_framework3api9responsesINtB3_11ApiResponseuE4castNtNtB5_4auth13LoginResponseEB7_
FNDA:0,_RINvMNtNtCscyNIIr1ochp_14auth_framework3api9responsesINtB3_11ApiResponseuE4castNtNtB5_4auth15RefreshResponseEB7_
FNDA:0,_RINvMNtNtCscyNIIr1ochp_14auth_framework3api9responsesINtB3_11ApiResponseuE4castNtNtB5_4auth8UserInfoEB7_
FNDA:0,_RINvMNtNtCscyNIIr1ochp_14auth_framework3api9responsesINtB3_11ApiResponseuE4castNtNtB5_5admin11SystemStatsEB7_
FNDA:0,_RINvMNtNtCscyNIIr1ochp_14auth_framework3api9responsesINtB3_11ApiResponseuE4castNtNtB5_5admin12UserListItemEB7_
FNDA:0,_RINvMNtNtCscyNIIr1ochp_14auth_framework3api9responsesINtB3_11ApiResponseuE4castNtNtB5_5admin16AuditLogResponseEB7_
FNDA:0,_RINvMNtNtCscyNIIr1ochp_14auth_framework3api9responsesINtB3_11ApiResponseuE4castNtNtB5_5admin16UserListResponseEB7_
FNDA:0,_RINvMNtNtCscyNIIr1ochp_14auth_framework3api9responsesINtB3_11ApiResponseuE4castNtNtB5_5oauth13TokenResponseEB7_
FNDA:0,_RINvMNtNtCscyNIIr1ochp_14auth_framework3api9responsesINtB3_11ApiResponseuE4castNtNtB5_5oauth18IntrospectResponseEB7_
FNDA:0,_RINvMNtNtCscyNIIr1ochp_14auth_framework3api9responsesINtB3_11ApiResponseuE4castNtNtB5_5users11UserProfileEB7_
FNDA:0,_RINvMNtNtCscyNIIr1ochp_14auth_framework3api9responsesINtB3_11ApiResponseuE4castuEB7_
FNDA:0,_RINvMs_NtNtCscyNIIr1ochp_14auth_framework3api9responsesINtB5_11ApiResponseuE16validation_errorNtNtCsaFwVybN8Rvy_5alloc6string6StringEB9_
FNDA:0,_RINvMs_NtNtCscyNIIr1ochp_14auth_framework3api9responsesINtB5_11ApiResponseuE16validation_errorReEB9_
FNDA:0,_RINvMs_NtNtCscyNIIr1ochp_14auth_framework3api9responsesINtB5_11ApiResponseuE18error_with_messageReB1w_EB9_
FNDA:0,_RINvMs_NtNtCscyNIIr1ochp_14auth_framework3api9responsesINtB5_11ApiResponseuE18error_with_messageReNtNtCsaFwVybN8Rvy_5alloc6string6StringEB9_
FNDA:0,_RINvMs_NtNtCscyNIIr1ochp_14auth_framework3api9responsesINtB5_11ApiResponseuE22forbidden_with_messageReEB9_
FNDA:0,_RINvMs_NtNtCscyNIIr1ochp_14auth_framework3api9responsesINtB5_11ApiResponseuE22not_found_with_messageReEB9_
FNDA:0,_RINvMs_NtNtCscyNIIr1ochp_14auth_framework3api9responsesINtB5_11ApiResponseuE5errorReB1i_EB9_
FNDA:0,_RINvMs_NtNtCscyNIIr1ochp_14auth_framework3api9responsesINtB5_11ApiResponseuE5errorReNtNtCsaFwVybN8Rvy_5alloc6string6StringEB9_
FNDA:0,_RINvMs_NtNtCscyNIIr1ochp_14auth_framework3api9responsesINtB5_11ApiResponseuE9not_foundNtNtCsaFwVybN8Rvy_5alloc6string6StringEB9_
FNDA:0,_RNCNvXs0_NtNtCscyNIIr1ochp_14auth_framework3api9responsesINtB7_11ApiResponseuENtNtNtCs5l68vjwsCbw_9axum_core8response13into_response12IntoResponse13into_response0Bb_
FNDA:0,_RNvMNtNtCscyNIIr1ochp_14auth_framework3api9responsesINtB2_11ApiResponseINtNtCsaFwVybN8Rvy_5alloc3vec3VecNtNtB1c_6string6StringEE18unauthorized_typedB6_
FNDA:0,_RNvMNtNtCscyNIIr1ochp_14auth_framework3api9responsesINtB2_11ApiResponseINtNtCsaFwVybN8Rvy_5alloc3vec3VecNtNtB1c_6string6StringEE7successB6_
FNDA:0,_RNvMNtNtCscyNIIr1ochp_14auth_framework3api9responsesINtB2_11ApiResponseINtNtCsaFwVybN8Rvy_5alloc3vec3VecNtNtB4_14rbac_endpoints12RoleResponseEE7successB6_
FNDA:0,_RNvMNtNtCscyNIIr1ochp_14auth_framework3api9responsesINtB2_11ApiResponseINtNtCsaFwVybN8Rvy_5alloc3vec3VecNtNtB4_4auth12ProviderInfoEE7successB6_
FNDA:0,_RNvMNtNtCscyNIIr1ochp_14auth_framework3api9responsesINtB2_11ApiResponseINtNtCsaFwVybN8Rvy_5alloc3vec3VecNtNtB4_5users11SessionInfoEE18unauthorized_typedB6_
FNDA:0,_RNvMNtNtCscyNIIr1ochp_14auth_framework3api9responsesINtB2_11ApiResponseINtNtCsaFwVybN8Rvy_5alloc3vec3VecNtNtB4_5users11SessionInfoEE7successB6_
FNDA:0,_RNvMNtNtCscyNIIr1ochp_14auth_framework3api9responsesINtB2_11ApiResponseNtNtB4_14rbac_endpoints12RoleResponseE7successB6_
FNDA:0,_RNvMNtNtCscyNIIr1ochp_14auth_framework3api9responsesINtB2_11ApiResponseNtNtB4_14rbac_endpoints16AuditLogResponseE7successB6_
FNDA:0,_RNvMNtNtCscyNIIr1ochp_14auth_framework3api9responsesINtB2_11ApiResponseNtNtB4_14rbac_endpoints17UserRolesResponseE7successB6_
FNDA:0,_RNvMNtNtCscyNIIr1ochp_14auth_framework3api9responsesINtB2_11ApiResponseNtNtB4_14rbac_endpoints23PermissionCheckResponseE7successB6_
FNDA:0,_RNvMNtNtCscyNIIr1ochp_14auth_framework3api9responsesINtB2_11ApiResponseNtNtB4_3mfa16MfaSetupResponseE18unauthorized_typedB6_
FNDA:0,_RNvMNtNtCscyNIIr1ochp_14auth_framework3api9responsesINtB2_11ApiResponseNtNtB4_3mfa16MfaSetupResponseE7successB6_
FNDA:0,_RNvMNtNtCscyNIIr1ochp_14auth_framework3api9responsesINtB2_11ApiResponseNtNtB4_3mfa17MfaStatusResponseE18unauthorized_typedB6_
FNDA:0,_RNvMNtNtCscyNIIr1ochp_14auth_framework3api9responsesINtB2_11ApiResponseNtNtB4_3mfa17MfaStatusResponseE7successB6_
FNDA:0,_RNvMNtNtCscyNIIr1ochp_14auth_framework3api9responsesINtB2_11ApiResponseNtNtB4_4auth13LoginResponseE7successB6_
FNDA:0,_RNvMNtNtCscyNIIr1ochp_14auth_framework3api9responsesINtB2_11ApiResponseNtNtB4_4auth15RefreshResponseE7successB6_
FNDA:0,_RNvMNtNtCscyNIIr1ochp_14auth_framework3api9responsesINtB2_11ApiResponseNtNtB4_4auth8UserInfoE18unauthorized_typedB6_
FNDA:0,_RNvMNtNtCscyNIIr1ochp_14auth_framework3api9responsesINtB2_11ApiResponseNtNtB4_4auth8UserInfoE7successB6_
FNDA:0,_RNvMNtNtCscyNIIr1ochp_14auth_framework3api9responsesINtB2_11ApiResponseNtNtB4_5admin11SystemStatsE15forbidden_typedB6_
FNDA:0,_RNvMNtNtCscyNIIr1ochp_14auth_framework3api9responsesINtB2_11ApiResponseNtNtB4_5admin11SystemStatsE18unauthorized_typedB6_
FNDA:0,_RNvMNtNtCscyNIIr1ochp_14auth_framework3api9responsesINtB2_11ApiResponseNtNtB4_5admin11SystemStatsE7successB6_
FNDA:0,_RNvMNtNtCscyNIIr1ochp_14auth_framework3api9responsesINtB2_11ApiResponseNtNtB4_5admin12UserListItemE15forbidden_typedB6_
FNDA:0,_RNvMNtNtCscyNIIr1ochp_14auth_framework3api9responsesINtB2_11ApiResponseNtNtB4_5admin12UserListItemE18unauthorized_typedB6_
FNDA:0,_RNvMNtNtCscyNIIr1ochp_14auth_framework3api9responsesINtB2_11ApiResponseNtNtB4_5admin12UserListItemE7successB6_
FNDA:0,_RNvMNtNtCscyNIIr1ochp_14auth_framework3api9responsesINtB2_11ApiResponseNtNtB4_5admin16AuditLogResponseE15forbidden_typedB6_
FNDA:0,_RNvMNtNtCscyNIIr1ochp_14auth_framework3api9responsesINtB2_11ApiResponseNtNtB4_5admin16AuditLogResponseE18unauthorized_typedB6_
FNDA:0,_RNvMNtNtCscyNIIr1ochp_14auth_framework3api9responsesINtB2_11ApiResponseNtNtB4_5admin16AuditLogResponseE7successB6_
FNDA:0,_RNvMNtNtCscyNIIr1ochp_14auth_framework3api9responsesINtB2_11ApiResponseNtNtB4_5admin16UserListResponseE15forbidden_typedB6_
FNDA:0,_RNvMNtNtCscyNIIr1ochp_14auth_framework3api9responsesINtB2_11ApiResponseNtNtB4_5admin16UserListResponseE18unauthorized_typedB6_
FNDA:0,_RNvMNtNtCscyNIIr1ochp_14auth_framework3api9responsesINtB2_11ApiResponseNtNtB4_5admin16UserListResponseE7successB6_
FNDA:0,_RNvMNtNtCscyNIIr1ochp_14auth_framework3api9responsesINtB2_11ApiResponseNtNtB4_5oauth10ClientInfoE7successB6_
FNDA:0,_RNvMNtNtCscyNIIr1ochp_14auth_framework3api9responsesINtB2_11ApiResponseNtNtB4_5oauth13TokenResponseE7successB6_
FNDA:0,_RNvMNtNtCscyNIIr1ochp_14auth_framework3api9responsesINtB2_11ApiResponseNtNtB4_5oauth18IntrospectResponseE7successB6_
FNDA:0,_RNvMNtNtCscyNIIr1ochp_14auth_framework3api9responsesINtB2_11ApiResponseNtNtB4_5users11UserProfileE15forbidden_typedB6_
FNDA:0,_RNvMNtNtCscyNIIr1ochp_14auth_framework3api9responsesINtB2_11ApiResponseNtNtB4_5users11UserProfileE18unauthorized_typedB6_
FNDA:0,_RNvMNtNtCscyNIIr1ochp_14auth_framework3api9responsesINtB2_11ApiResponseNtNtB4_5users11UserProfileE7successB6_
FNDA:0,_RNvMNtNtCscyNIIr1ochp_14auth_framework3api9responsesINtB2_11ApiResponseNtNtB4_6health14HealthResponseE7successB6_
FNDA:0,_RNvMNtNtCscyNIIr1ochp_14auth_framework3api9responsesINtB2_11ApiResponseNtNtB4_6health22DetailedHealthResponseE7successB6_
FNDA:0,_RNvMNtNtCscyNIIr1ochp_14auth_framework3api9responsesINtB2_11ApiResponseuE15forbidden_typedB6_
FNDA:0,_RNvMNtNtCscyNIIr1ochp_14auth_framework3api9responsesINtB2_11ApiResponseuE7successB6_
FNDA:0,_RNvXs0_NtNtCscyNIIr1ochp_14auth_framework3api9responsesINtB5_11ApiResponseuENtNtNtCs5l68vjwsCbw_9axum_core8response13into_response12IntoResponse13into_responseB9_
FNF:27
FNH:0
DA:47,0
DA:48,0
DA:49,0
DA:50,0
DA:51,0
DA:52,0
DA:53,0
DA:54,0
DA:57,0
DA:58,0
DA:59,0
DA:60,0
DA:61,0
DA:62,0
DA:63,0
DA:64,0
DA:67,0
DA:68,0
DA:69,0
DA:72,0
DA:73,0
DA:74,0
DA:77,0
DA:78,0
DA:79,0
DA:82,0
DA:83,0
DA:84,0
DA:87,0
DA:88,0
DA:89,0
DA:92,0
DA:93,0
DA:94,0
DA:97,0
DA:98,0
DA:99,0
DA:102,0
DA:103,0
DA:104,0
DA:107,0
DA:108,0
DA:109,0
DA:112,0
DA:113,0
DA:114,0
DA:115,0
DA:116,0
DA:117,0
DA:118,0
DA:119,0
DA:122,0
DA:123,0
DA:124,0
DA:125,0
DA:126,0
DA:127,0
DA:128,0
DA:129,0
DA:132,0
DA:133,0
DA:134,0
DA:135,0
DA:136,0
DA:137,0
DA:138,0
DA:139,0
DA:144,0
DA:145,0
DA:146,0
DA:147,0
DA:148,0
DA:149,0
DA:150,0
DA:151,0
DA:152,0
DA:153,0
DA:154,0
DA:155,0
DA:158,0
DA:159,0
DA:160,0
DA:161,0
DA:162,0
DA:163,0
DA:164,0
DA:165,0
DA:166,0
DA:167,0
DA:168,0
DA:169,0
DA:170,0
DA:171,0
DA:172,0
DA:173,0
DA:176,0
DA:177,0
DA:178,0
DA:181,0
DA:182,0
DA:183,0
DA:186,0
DA:187,0
DA:188,0
DA:191,0
DA:192,0
DA:193,0
DA:196,0
DA:197,0
DA:198,0
DA:201,0
DA:202,0
DA:203,0
DA:206,0
DA:207,0
DA:208,0
DA:211,0
DA:212,0
DA:213,0
DA:220,0
DA:221,0
DA:222,0
DA:224,0
DA:225,0
DA:226,0
DA:227,0
DA:228,0
DA:229,0
DA:230,0
DA:234,0
DA:235,0
DA:240,0
DA:241,0
DA:242,0
DA:244,0
DA:247,0
DA:249,0
DA:250,0
DA:252,0
DA:254,0
DA:256,0
BRF:0
BRH:0
LF:142
LH:0
end_of_record
SF:C:\Users\cires\OneDrive\Documents\projects\AuthFramework\src\api\server.rs
FN:69,_RNCNvMs_NtNtCsawKQoipWOme_14auth_framework3api6serverNtB6_9ApiServer12build_router0Ba_
FN:187,_RNCNvNtNtCsawKQoipWOme_14auth_framework3api6server17create_api_server0B7_
FN:192,_RINvNtNtCsawKQoipWOme_14auth_framework3api6server30create_api_server_with_addresspEB6_
FN:196,_RNCINvNtNtCsawKQoipWOme_14auth_framework3api6server30create_api_server_with_addresspE0B8_
FN:159,_RNCNvMs_NtNtCsawKQoipWOme_14auth_framework3api6serverNtB6_9ApiServer5start0Ba_
FN:61,_RNvMs_NtNtCsawKQoipWOme_14auth_framework3api6serverNtB4_9ApiServer11with_config
FN:159,_RNvMs_NtNtCsawKQoipWOme_14auth_framework3api6serverNtB4_9ApiServer5start
FN:176,_RNvMs_NtNtCsawKQoipWOme_14auth_framework3api6serverNtB4_9ApiServer6config
FN:181,_RNvMs_NtNtCsawKQoipWOme_14auth_framework3api6serverNtB4_9ApiServer7address
FN:187,_RNvNtNtCsawKQoipWOme_14auth_framework3api6server17create_api_server
FN:213,_RNCNvNtNtNtCsawKQoipWOme_14auth_framework3api6server5tests18create_test_server0B9_
FN:250,_RNCNvNtNtNtCsawKQoipWOme_14auth_framework3api6server5testss_17test_cors_headers0B9_
FN:228,_RNCNvNtNtNtCsawKQoipWOme_14auth_framework3api6server5testss_20test_health_endpoint0B9_
FN:240,_RNCNvNtNtNtCsawKQoipWOme_14auth_framework3api6server5testss_28test_auth_required_endpoints0B9_
FN:69,_RNvMs_NtNtCsawKQoipWOme_14auth_framework3api6serverNtB4_9ApiServer12build_router
FN:53,_RNvMs_NtNtCsawKQoipWOme_14auth_framework3api6serverNtB4_9ApiServer3new
FN:34,_RNvXNtNtCsawKQoipWOme_14auth_framework3api6serverNtB2_15ApiServerConfigNtNtCsf36jwlS2r7m_4core7default7Default7default
FN:213,_RNvNtNtNtCsawKQoipWOme_14auth_framework3api6server5tests18create_test_server
FN:250,_RNvNtNtNtCsawKQoipWOme_14auth_framework3api6server5testss_17test_cors_headers
FN:228,_RNvNtNtNtCsawKQoipWOme_14auth_framework3api6server5testss_20test_health_endpoint
FN:240,_RNvNtNtNtCsawKQoipWOme_14auth_framework3api6server5testss_28test_auth_required_endpoints
FN:61,_RNvMs_NtNtCscyNIIr1ochp_14auth_framework3api6serverNtB4_9ApiServer11with_config
FN:69,_RNvMs_NtNtCscyNIIr1ochp_14auth_framework3api6serverNtB4_9ApiServer12build_router
FN:53,_RNvMs_NtNtCscyNIIr1ochp_14auth_framework3api6serverNtB4_9ApiServer3new
FN:159,_RNvMs_NtNtCscyNIIr1ochp_14auth_framework3api6serverNtB4_9ApiServer5start
FN:176,_RNvMs_NtNtCscyNIIr1ochp_14auth_framework3api6serverNtB4_9ApiServer6config
FN:181,_RNvMs_NtNtCscyNIIr1ochp_14auth_framework3api6serverNtB4_9ApiServer7address
FN:187,_RNvNtNtCscyNIIr1ochp_14auth_framework3api6server17create_api_server
FN:34,_RNvXNtNtCscyNIIr1ochp_14auth_framework3api6serverNtB2_15ApiServerConfigNtNtCsf36jwlS2r7m_4core7default7Default7default
FN:192,_RINvNtNtCscyNIIr1ochp_14auth_framework3api6server30create_api_server_with_addresspEB6_
FN:196,_RNCINvNtNtCscyNIIr1ochp_14auth_framework3api6server30create_api_server_with_addresspE0B8_
FN:69,_RNCNvMs_NtNtCscyNIIr1ochp_14auth_framework3api6serverNtB6_9ApiServer12build_router0Ba_
FN:159,_RNCNvMs_NtNtCscyNIIr1ochp_14auth_framework3api6serverNtB6_9ApiServer5start0Ba_
FN:187,_RNCNvNtNtCscyNIIr1ochp_14auth_framework3api6server17create_api_server0B7_
FNDA:0,_RNCNvMs_NtNtCsawKQoipWOme_14auth_framework3api6serverNtB6_9ApiServer12build_router0Ba_
FNDA:0,_RNCNvNtNtCsawKQoipWOme_14auth_framework3api6server17create_api_server0B7_
FNDA:0,_RINvNtNtCsawKQoipWOme_14auth_framework3api6server30create_api_server_with_addresspEB6_
FNDA:0,_RNCINvNtNtCsawKQoipWOme_14auth_framework3api6server30create_api_server_with_addresspE0B8_
FNDA:0,_RNCNvMs_NtNtCsawKQoipWOme_14auth_framework3api6serverNtB6_9ApiServer5start0Ba_
FNDA:0,_RNvMs_NtNtCsawKQoipWOme_14auth_framework3api6serverNtB4_9ApiServer11with_config
FNDA:0,_RNvMs_NtNtCsawKQoipWOme_14auth_framework3api6serverNtB4_9ApiServer5start
FNDA:0,_RNvMs_NtNtCsawKQoipWOme_14auth_framework3api6serverNtB4_9ApiServer6config
FNDA:0,_RNvMs_NtNtCsawKQoipWOme_14auth_framework3api6serverNtB4_9ApiServer7address
FNDA:0,_RNvNtNtCsawKQoipWOme_14auth_framework3api6server17create_api_server
FNDA:0,_RNCNvNtNtNtCsawKQoipWOme_14auth_framework3api6server5tests18create_test_server0B9_
FNDA:0,_RNCNvNtNtNtCsawKQoipWOme_14auth_framework3api6server5testss_17test_cors_headers0B9_
FNDA:0,_RNCNvNtNtNtCsawKQoipWOme_14auth_framework3api6server5testss_20test_health_endpoint0B9_
FNDA:0,_RNCNvNtNtNtCsawKQoipWOme_14auth_framework3api6server5testss_28test_auth_required_endpoints0B9_
FNDA:0,_RNvMs_NtNtCsawKQoipWOme_14auth_framework3api6serverNtB4_9ApiServer12build_router
FNDA:0,_RNvMs_NtNtCsawKQoipWOme_14auth_framework3api6serverNtB4_9ApiServer3new
FNDA:0,_RNvXNtNtCsawKQoipWOme_14auth_framework3api6serverNtB2_15ApiServerConfigNtNtCsf36jwlS2r7m_4core7default7Default7default
FNDA:0,_RNvNtNtNtCsawKQoipWOme_14auth_framework3api6server5tests18create_test_server
FNDA:0,_RNvNtNtNtCsawKQoipWOme_14auth_framework3api6server5testss_17test_cors_headers
FNDA:0,_RNvNtNtNtCsawKQoipWOme_14auth_framework3api6server5testss_20test_health_endpoint
FNDA:0,_RNvNtNtNtCsawKQoipWOme_14auth_framework3api6server5testss_28test_auth_required_endpoints
FNDA:0,_RNvMs_NtNtCscyNIIr1ochp_14auth_framework3api6serverNtB4_9ApiServer11with_config
FNDA:0,_RNvMs_NtNtCscyNIIr1ochp_14auth_framework3api6serverNtB4_9ApiServer12build_router
FNDA:0,_RNvMs_NtNtCscyNIIr1ochp_14auth_framework3api6serverNtB4_9ApiServer3new
FNDA:0,_RNvMs_NtNtCscyNIIr1ochp_14auth_framework3api6serverNtB4_9ApiServer5start
FNDA:0,_RNvMs_NtNtCscyNIIr1ochp_14auth_framework3api6serverNtB4_9ApiServer6config
FNDA:0,_RNvMs_NtNtCscyNIIr1ochp_14auth_framework3api6serverNtB4_9ApiServer7address
FNDA:0,_RNvNtNtCscyNIIr1ochp_14auth_framework3api6server17create_api_server
FNDA:0,_RNvXNtNtCscyNIIr1ochp_14auth_framework3api6serverNtB2_15ApiServerConfigNtNtCsf36jwlS2r7m_4core7default7Default7default
FNDA:0,_RINvNtNtCscyNIIr1ochp_14auth_framework3api6server30create_api_server_with_addresspEB6_
FNDA:0,_RNCINvNtNtCscyNIIr1ochp_14auth_framework3api6server30create_api_server_with_addresspE0B8_
FNDA:0,_RNCNvMs_NtNtCscyNIIr1ochp_14auth_framework3api6serverNtB6_9ApiServer12build_router0Ba_
FNDA:0,_RNCNvMs_NtNtCscyNIIr1ochp_14auth_framework3api6serverNtB6_9ApiServer5start0Ba_
FNDA:0,_RNCNvNtNtCscyNIIr1ochp_14auth_framework3api6server17create_api_server0B7_
FNF:21
FNH:0
DA:34,0
DA:35,0
DA:36,0
DA:37,0
DA:38,0
DA:39,0
DA:40,0
DA:41,0
DA:42,0
DA:53,0
DA:54,0
DA:55,0
DA:56,0
DA:57,0
DA:58,0
DA:61,0
DA:62,0
DA:63,0
DA:64,0
DA:65,0
DA:66,0
DA:69,0
DA:70,0
DA:73,0
DA:75,0
DA:76,0
DA:77,0
DA:78,0
DA:79,0
DA:81,0
DA:82,0
DA:83,0
DA:84,0
DA:85,0
DA:87,0
DA:88,0
DA:89,0
DA:90,0
DA:91,0
DA:93,0
DA:94,0
DA:95,0
DA:96,0
DA:97,0
DA:98,0
DA:100,0
DA:101,0
DA:102,0
DA:103,0
DA:104,0
DA:105,0
DA:106,0
DA:108,0
DA:110,0
DA:111,0
DA:112,0
DA:113,0
DA:114,0
DA:115,0
DA:116,0
DA:118,0
DA:121,0
DA:122,0
DA:123,0
DA:126,0
DA:127,0
DA:129,0
DA:130,0
DA:131,0
DA:132,0
DA:133,0
DA:134,0
DA:135,0
DA:136,0
DA:137,0
DA:138,0
DA:139,0
DA:140,0
DA:141,0
DA:144,0
DA:147,0
DA:148,0
DA:150,0
DA:153,0
DA:154,0
DA:155,0
DA:156,0
DA:159,0
DA:160,0
DA:162,0
DA:164,0
DA:165,0
DA:166,0
DA:167,0
DA:169,0
DA:170,0
DA:172,0
DA:173,0
DA:176,0
DA:177,0
DA:178,0
DA:181,0
DA:182,0
DA:183,0
DA:187,0
DA:188,0
DA:189,0
DA:192,0
DA:193,0
DA:194,0
DA:195,0
DA:196,0
DA:197,0
DA:198,0
DA:199,0
DA:200,0
DA:201,0
DA:202,0
DA:203,0
DA:213,0
DA:214,0
DA:215,0
DA:216,0
DA:218,0
DA:219,0
DA:223,0
DA:228,0
DA:229,0
DA:231,0
DA:232,0
DA:234,0
DA:235,0
DA:236,0
DA:240,0
DA:241,0
DA:244,0
DA:245,0
DA:246,0
DA:250,0
DA:251,0
DA:253,0
DA:254,0
DA:257,0
DA:258,0
DA:259,0
DA:260,0
DA:261,0
DA:262,0
BRF:0
BRH:0
LF:162
LH:0
end_of_record
SF:C:\Users\cires\OneDrive\Documents\projects\AuthFramework\src\api\users.rs
FN:48,_RNvNtNtCsawKQoipWOme_14auth_framework3api5users11get_profile
FN:274,_RNvNtNtCsawKQoipWOme_14auth_framework3api5users12get_sessions
FN:327,_RNvNtNtCsawKQoipWOme_14auth_framework3api5users14revoke_session
FN:135,_RNvNtNtCsawKQoipWOme_14auth_framework3api5users14update_profile
FN:200,_RNvNtNtCsawKQoipWOme_14auth_framework3api5users15change_password
FN:235,_RNvNtNtCsawKQoipWOme_14auth_framework3api5users16get_user_profile
FN:348,_RNvNtNtCsawKQoipWOme_14auth_framework3api5users21check_user_mfa_status
FN:86,_RNCNCNvNtNtCsawKQoipWOme_14auth_framework3api5users11get_profile00B9_
FN:87,_RNCNCNvNtNtCsawKQoipWOme_14auth_framework3api5users11get_profile0s_0B9_
FN:175,_RNCNCNvNtNtCsawKQoipWOme_14auth_framework3api5users14update_profile00B9_
FN:360,_RNCNCNvNtNtCsawKQoipWOme_14auth_framework3api5users21check_user_mfa_status00B9_
FN:51,_RNCNvNtNtCsawKQoipWOme_14auth_framework3api5users11get_profile0B7_
FN:277,_RNCNvNtNtCsawKQoipWOme_14auth_framework3api5users12get_sessions0B7_
FN:331,_RNCNvNtNtCsawKQoipWOme_14auth_framework3api5users14revoke_session0B7_
FN:139,_RNCNvNtNtCsawKQoipWOme_14auth_framework3api5users14update_profile0B7_
FN:204,_RNCNvNtNtCsawKQoipWOme_14auth_framework3api5users15change_password0B7_
FN:239,_RNCNvNtNtCsawKQoipWOme_14auth_framework3api5users16get_user_profile0B7_
FN:351,_RNCNvNtNtCsawKQoipWOme_14auth_framework3api5users21check_user_mfa_status0B7_
FN:86,_RNCNCNvNtNtCscyNIIr1ochp_14auth_framework3api5users11get_profile00B9_
FN:87,_RNCNCNvNtNtCscyNIIr1ochp_14auth_framework3api5users11get_profile0s_0B9_
FN:175,_RNCNCNvNtNtCscyNIIr1ochp_14auth_framework3api5users14update_profile00B9_
FN:360,_RNCNCNvNtNtCscyNIIr1ochp_14auth_framework3api5users21check_user_mfa_status00B9_
FN:51,_RNCNvNtNtCscyNIIr1ochp_14auth_framework3api5users11get_profile0B7_
FN:277,_RNCNvNtNtCscyNIIr1ochp_14auth_framework3api5users12get_sessions0B7_
FN:331,_RNCNvNtNtCscyNIIr1ochp_14auth_framework3api5users14revoke_session0B7_
FN:139,_RNCNvNtNtCscyNIIr1ochp_14auth_framework3api5users14update_profile0B7_
FN:204,_RNCNvNtNtCscyNIIr1ochp_14auth_framework3api5users15change_password0B7_
FN:239,_RNCNvNtNtCscyNIIr1ochp_14auth_framework3api5users16get_user_profile0B7_
FN:351,_RNCNvNtNtCscyNIIr1ochp_14auth_framework3api5users21check_user_mfa_status0B7_
FN:48,_RNvNtNtCscyNIIr1ochp_14auth_framework3api5users11get_profile
FN:274,_RNvNtNtCscyNIIr1ochp_14auth_framework3api5users12get_sessions
FN:327,_RNvNtNtCscyNIIr1ochp_14auth_framework3api5users14revoke_session
FN:135,_RNvNtNtCscyNIIr1ochp_14auth_framework3api5users14update_profile
FN:200,_RNvNtNtCscyNIIr1ochp_14auth_framework3api5users15change_password
FN:235,_RNvNtNtCscyNIIr1ochp_14auth_framework3api5users16get_user_profile
FN:348,_RNvNtNtCscyNIIr1ochp_14auth_framework3api5users21check_user_mfa_status
FNDA:0,_RNvNtNtCsawKQoipWOme_14auth_framework3api5users11get_profile
FNDA:0,_RNvNtNtCsawKQoipWOme_14auth_framework3api5users12get_sessions
FNDA:0,_RNvNtNtCsawKQoipWOme_14auth_framework3api5users14revoke_session
FNDA:0,_RNvNtNtCsawKQoipWOme_14auth_framework3api5users14update_profile
FNDA:0,_RNvNtNtCsawKQoipWOme_14auth_framework3api5users15change_password
FNDA:0,_RNvNtNtCsawKQoipWOme_14auth_framework3api5users16get_user_profile
FNDA:0,_RNvNtNtCsawKQoipWOme_14auth_framework3api5users21check_user_mfa_status
FNDA:0,_RNCNCNvNtNtCsawKQoipWOme_14auth_framework3api5users11get_profile00B9_
FNDA:0,_RNCNCNvNtNtCsawKQoipWOme_14auth_framework3api5users11get_profile0s_0B9_
FNDA:0,_RNCNCNvNtNtCsawKQoipWOme_14auth_framework3api5users14update_profile00B9_
FNDA:0,_RNCNCNvNtNtCsawKQoipWOme_14auth_framework3api5users21check_user_mfa_status00B9_
FNDA:0,_RNCNvNtNtCsawKQoipWOme_14auth_framework3api5users11get_profile0B7_
FNDA:0,_RNCNvNtNtCsawKQoipWOme_14auth_framework3api5users12get_sessions0B7_
FNDA:0,_RNCNvNtNtCsawKQoipWOme_14auth_framework3api5users14revoke_session0B7_
FNDA:0,_RNCNvNtNtCsawKQoipWOme_14auth_framework3api5users14update_profile0B7_
FNDA:0,_RNCNvNtNtCsawKQoipWOme_14auth_framework3api5users15change_password0B7_
FNDA:0,_RNCNvNtNtCsawKQoipWOme_14auth_framework3api5users16get_user_profile0B7_
FNDA:0,_RNCNvNtNtCsawKQoipWOme_14auth_framework3api5users21check_user_mfa_status0B7_
FNDA:0,_RNCNCNvNtNtCscyNIIr1ochp_14auth_framework3api5users11get_profile00B9_
FNDA:0,_RNCNCNvNtNtCscyNIIr1ochp_14auth_framework3api5users11get_profile0s_0B9_
FNDA:0,_RNCNCNvNtNtCscyNIIr1ochp_14auth_framework3api5users14update_profile00B9_
FNDA:0,_RNCNCNvNtNtCscyNIIr1ochp_14auth_framework3api5users21check_user_mfa_status00B9_
FNDA:0,_RNCNvNtNtCscyNIIr1ochp_14auth_framework3api5users11get_profile0B7_
FNDA:0,_RNCNvNtNtCscyNIIr1ochp_14auth_framework3api5users12get_sessions0B7_
FNDA:0,_RNCNvNtNtCscyNIIr1ochp_14auth_framework3api5users14revoke_session0B7_
FNDA:0,_RNCNvNtNtCscyNIIr1ochp_14auth_framework3api5users14update_profile0B7_
FNDA:0,_RNCNvNtNtCscyNIIr1ochp_14auth_framework3api5users15change_password0B7_
FNDA:0,_RNCNvNtNtCscyNIIr1ochp_14auth_framework3api5users16get_user_profile0B7_
FNDA:0,_RNCNvNtNtCscyNIIr1ochp_14auth_framework3api5users21check_user_mfa_status0B7_
FNDA:0,_RNvNtNtCscyNIIr1ochp_14auth_framework3api5users11get_profile
FNDA:0,_RNvNtNtCscyNIIr1ochp_14auth_framework3api5users12get_sessions
FNDA:0,_RNvNtNtCscyNIIr1ochp_14auth_framework3api5users14revoke_session
FNDA:0,_RNvNtNtCscyNIIr1ochp_14auth_framework3api5users14update_profile
FNDA:0,_RNvNtNtCscyNIIr1ochp_14auth_framework3api5users15change_password
FNDA:0,_RNvNtNtCscyNIIr1ochp_14auth_framework3api5users16get_user_profile
FNDA:0,_RNvNtNtCscyNIIr1ochp_14auth_framework3api5users21check_user_mfa_status
FNF:18
FNH:0
DA:48,0
DA:49,0
DA:50,0
DA:51,0
DA:52,0
DA:53,0
DA:54,0
DA:55,0
DA:57,0
DA:58,0
DA:59,0
DA:60,0
DA:62,0
DA:64,0
DA:65,0
DA:66,0
DA:69,0
DA:70,0
DA:71,0
DA:72,0
DA:73,0
DA:74,0
DA:76,0
DA:79,0
DA:82,0
DA:83,0
DA:84,0
DA:85,0
DA:86,0
DA:87,0
DA:88,0
DA:89,0
DA:90,0
DA:91,0
DA:92,0
DA:93,0
DA:94,0
DA:95,0
DA:96,0
DA:99,0
DA:101,0
DA:102,0
DA:103,0
DA:109,0
DA:110,0
DA:111,0
DA:112,0
DA:113,0
DA:114,0
DA:115,0
DA:116,0
DA:117,0
DA:118,0
DA:119,0
DA:120,0
DA:122,0
DA:126,0
DA:129,0
DA:131,0
DA:135,0
DA:136,0
DA:137,0
DA:138,0
DA:139,0
DA:140,0
DA:141,0
DA:142,0
DA:143,0
DA:145,0
DA:146,0
DA:147,0
DA:148,0
DA:149,0
DA:150,0
DA:151,0
DA:152,0
DA:153,0
DA:155,0
DA:156,0
DA:157,0
DA:158,0
DA:159,0
DA:163,0
DA:164,0
DA:170,0
DA:171,0
DA:172,0
DA:173,0
DA:174,0
DA:175,0
DA:176,0
DA:177,0
DA:178,0
DA:179,0
DA:180,0
DA:181,0
DA:182,0
DA:183,0
DA:184,0
DA:185,0
DA:186,0
DA:189,0
DA:191,0
DA:194,0
DA:196,0
DA:200,0
DA:201,0
DA:202,0
DA:203,0
DA:204,0
DA:205,0
DA:206,0
DA:207,0
DA:209,0
DA:210,0
DA:211,0
DA:213,0
DA:214,0
DA:215,0
DA:216,0
DA:223,0
DA:224,0
DA:226,0
DA:229,0
DA:231,0
DA:235,0
DA:236,0
DA:237,0
DA:238,0
DA:239,0
DA:240,0
DA:241,0
DA:242,0
DA:243,0
DA:245,0
DA:246,0
DA:247,0
DA:250,0
DA:251,0
DA:252,0
DA:253,0
DA:254,0
DA:255,0
DA:256,0
DA:257,0
DA:258,0
DA:259,0
DA:260,0
DA:261,0
DA:263,0
DA:265,0
DA:268,0
DA:270,0
DA:274,0
DA:275,0
DA:276,0
DA:277,0
DA:278,0
DA:279,0
DA:280,0
DA:281,0
DA:283,0
DA:284,0
DA:285,0
DA:286,0
DA:287,0
DA:288,0
DA:289,0
DA:290,0
DA:291,0
DA:292,0
DA:293,0
DA:294,0
DA:295,0
DA:296,0
DA:297,0
DA:298,0
DA:299,0
DA:300,0
DA:301,0
DA:304,0
DA:306,0
DA:309,0
DA:311,0
DA:327,0
DA:328,0
DA:329,0
DA:330,0
DA:331,0
DA:332,0
DA:333,0
DA:334,0
DA:335,0
DA:337,0
DA:338,0
DA:340,0
DA:343,0
DA:345,0
DA:348,0
DA:349,0
DA:350,0
DA:351,0
DA:354,0
DA:355,0
DA:357,0
DA:358,0
DA:359,0
DA:360,0
DA:361,0
DA:363,0
DA:365,0
BRF:0
BRH:0
LF:222
LH:0
end_of_record
SF:C:\Users\cires\OneDrive\Documents\projects\AuthFramework\src\api\validation.rs
FN:25,_RNvNtNtCsawKQoipWOme_14auth_framework3api10validation27validate_request_middleware
FN:106,_RNCNvMNtNtCsawKQoipWOme_14auth_framework3api10validationNtB4_13IpRateLimiter16check_rate_limit0B8_
FN:65,_RNCNvNtNtCsawKQoipWOme_14auth_framework3api10validation25validate_security_headers0B7_
FN:82,_RNCNvNtNtCsawKQoipWOme_14auth_framework3api10validation27contains_suspicious_content0B7_
FN:28,_RNCNvNtNtCsawKQoipWOme_14auth_framework3api10validation27validate_request_middleware0B7_
FN:101,_RNvMNtNtCsawKQoipWOme_14auth_framework3api10validationNtB2_13IpRateLimiter16check_rate_limit
FN:93,_RNvMNtNtCsawKQoipWOme_14auth_framework3api10validationNtB2_13IpRateLimiter3new
FN:62,_RNvNtNtCsawKQoipWOme_14auth_framework3api10validation25validate_security_headers
FN:78,_RNvNtNtCsawKQoipWOme_14auth_framework3api10validation27contains_suspicious_content
FN:144,_RNvNtNtNtCsawKQoipWOme_14auth_framework3api10validation5testss_17test_rate_limiter
FN:135,_RNvNtNtNtCsawKQoipWOme_14auth_framework3api10validation5testss_33test_suspicious_content_detection
FN:101,_RNvMNtNtCscyNIIr1ochp_14auth_framework3api10validationNtB2_13IpRateLimiter16check_rate_limit
FN:93,_RNvMNtNtCscyNIIr1ochp_14auth_framework3api10validationNtB2_13IpRateLimiter3new
FN:62,_RNvNtNtCscyNIIr1ochp_14auth_framework3api10validation25validate_security_headers
FN:78,_RNvNtNtCscyNIIr1ochp_14auth_framework3api10validation27contains_suspicious_content
FN:25,_RNvNtNtCscyNIIr1ochp_14auth_framework3api10validation27validate_request_middleware
FN:106,_RNCNvMNtNtCscyNIIr1ochp_14auth_framework3api10validationNtB4_13IpRateLimiter16check_rate_limit0B8_
FN:65,_RNCNvNtNtCscyNIIr1ochp_14auth_framework3api10validation25validate_security_headers0B7_
FN:82,_RNCNvNtNtCscyNIIr1ochp_14auth_framework3api10validation27contains_suspicious_content0B7_
FN:28,_RNCNvNtNtCscyNIIr1ochp_14auth_framework3api10validation27validate_request_middleware0B7_
FNDA:0,_RNvNtNtCsawKQoipWOme_14auth_framework3api10validation27validate_request_middleware
FNDA:5,_RNCNvMNtNtCsawKQoipWOme_14auth_framework3api10validationNtB4_13IpRateLimiter16check_rate_limit0B8_
FNDA:0,_RNCNvNtNtCsawKQoipWOme_14auth_framework3api10validation25validate_security_headers0B7_
FNDA:18,_RNCNvNtNtCsawKQoipWOme_14auth_framework3api10validation27contains_suspicious_content0B7_
FNDA:0,_RNCNvNtNtCsawKQoipWOme_14auth_framework3api10validation27validate_request_middleware0B7_
FNDA:6,_RNvMNtNtCsawKQoipWOme_14auth_framework3api10validationNtB2_13IpRateLimiter16check_rate_limit
FNDA:1,_RNvMNtNtCsawKQoipWOme_14auth_framework3api10validationNtB2_13IpRateLimiter3new
FNDA:0,_RNvNtNtCsawKQoipWOme_14auth_framework3api10validation25validate_security_headers
FNDA:5,_RNvNtNtCsawKQoipWOme_14auth_framework3api10validation27contains_suspicious_content
FNDA:1,_RNvNtNtNtCsawKQoipWOme_14auth_framework3api10validation5testss_17test_rate_limiter
FNDA:1,_RNvNtNtNtCsawKQoipWOme_14auth_framework3api10validation5testss_33test_suspicious_content_detection
FNDA:0,_RNvMNtNtCscyNIIr1ochp_14auth_framework3api10validationNtB2_13IpRateLimiter16check_rate_limit
FNDA:0,_RNvMNtNtCscyNIIr1ochp_14auth_framework3api10validationNtB2_13IpRateLimiter3new
FNDA:0,_RNvNtNtCscyNIIr1ochp_14auth_framework3api10validation25validate_security_headers
FNDA:0,_RNvNtNtCscyNIIr1ochp_14auth_framework3api10validation27contains_suspicious_content
FNDA:0,_RNvNtNtCscyNIIr1ochp_14auth_framework3api10validation27validate_request_middleware
FNDA:0,_RNCNvMNtNtCscyNIIr1ochp_14auth_framework3api10validationNtB4_13IpRateLimiter16check_rate_limit0B8_
FNDA:0,_RNCNvNtNtCscyNIIr1ochp_14auth_framework3api10validation25validate_security_headers0B7_
FNDA:0,_RNCNvNtNtCscyNIIr1ochp_14auth_framework3api10validation27contains_suspicious_content0B7_
FNDA:0,_RNCNvNtNtCscyNIIr1ochp_14auth_framework3api10validation27validate_request_middleware0B7_
FNF:11
FNH:7
DA:25,0
DA:26,0
DA:27,0
DA:28,0
DA:29,0
DA:32,0
DA:35,0
DA:36,0
DA:37,0
DA:38,0
DA:41,0
DA:42,0
DA:45,0
DA:46,0
DA:47,0
DA:49,0
DA:50,0
DA:54,0
DA:55,0
DA:58,0
DA:59,0
DA:62,0
DA:63,0
DA:64,0
DA:65,0
DA:66,0
DA:67,0
DA:69,0
DA:70,0
DA:71,0
DA:72,0
DA:74,0
DA:75,0
DA:78,5
DA:79,5
DA:80,5
DA:81,5
DA:82,18
DA:83,5
DA:93,1
DA:94,1
DA:95,1
DA:96,1
DA:97,1
DA:98,1
DA:99,1
DA:101,6
DA:102,6
DA:103,6
DA:106,6
DA:109,6
DA:110,5
DA:111,5
DA:112,5
DA:113,1
DA:114,4
DA:115,4
DA:116,0
DA:117,0
DA:118,0
DA:119,0
DA:121,1
DA:122,1
DA:123,1
DA:126,5
DA:127,6
DA:135,1
DA:136,1
DA:137,1
DA:138,1
DA:139,1
DA:140,1
DA:141,1
DA:144,1
DA:145,1
DA:148,6
DA:149,5
DA:153,1
DA:154,1
BRF:0
BRH:0
LF:83
LH:44
end_of_record
SF:C:\Users\cires\OneDrive\Documents\projects\AuthFramework\src\api\versioning.rs
FN:71,_RNvNtNtCsawKQoipWOme_14auth_framework3api10versioning15get_api_version
FN:45,_RNvNtNtCsawKQoipWOme_14auth_framework3api10versioning18version_middleware
FN:22,_RNvMNtNtCsawKQoipWOme_14auth_framework3api10versioningNtB2_10ApiVersion11from_header
FN:36,_RNvMNtNtCsawKQoipWOme_14auth_framework3api10versioningNtB2_10ApiVersion15to_header_value
FN:45,_RNCNvNtNtCsawKQoipWOme_14auth_framework3api10versioning18version_middleware0B7_
FN:22,_RNvMNtNtCscyNIIr1ochp_14auth_framework3api10versioningNtB2_10ApiVersion11from_header
FN:36,_RNvMNtNtCscyNIIr1ochp_14auth_framework3api10versioningNtB2_10ApiVersion15to_header_value
FN:71,_RNvNtNtCscyNIIr1ochp_14auth_framework3api10versioning15get_api_version
FN:45,_RNvNtNtCscyNIIr1ochp_14auth_framework3api10versioning18version_middleware
FN:45,_RNCNvNtNtCscyNIIr1ochp_14auth_framework3api10versioning18version_middleware0B7_
FNDA:0,_RNvNtNtCsawKQoipWOme_14auth_framework3api10versioning15get_api_version
FNDA:0,_RNvNtNtCsawKQoipWOme_14auth_framework3api10versioning18version_middleware
FNDA:0,_RNvMNtNtCsawKQoipWOme_14auth_framework3api10versioningNtB2_10ApiVersion11from_header
FNDA:0,_RNvMNtNtCsawKQoipWOme_14auth_framework3api10versioningNtB2_10ApiVersion15to_header_value
FNDA:0,_RNCNvNtNtCsawKQoipWOme_14auth_framework3api10versioning18version_middleware0B7_
FNDA:0,_RNvMNtNtCscyNIIr1ochp_14auth_framework3api10versioningNtB2_10ApiVersion11from_header
FNDA:0,_RNvMNtNtCscyNIIr1ochp_14auth_framework3api10versioningNtB2_10ApiVersion15to_header_value
FNDA:0,_RNvNtNtCscyNIIr1ochp_14auth_framework3api10versioning15get_api_version
FNDA:0,_RNvNtNtCscyNIIr1ochp_14auth_framework3api10versioning18version_middleware
FNDA:0,_RNCNvNtNtCscyNIIr1ochp_14auth_framework3api10versioning18version_middleware0B7_
FNF:5
FNH:0
DA:22,0
DA:23,0
DA:24,0
DA:26,0
DA:27,0
DA:28,0
DA:29,0
DA:30,0
DA:31,0
DA:32,0
DA:33,0
DA:36,0
DA:37,0
DA:38,0
DA:39,0
DA:41,0
DA:45,0
DA:46,0
DA:47,0
DA:50,0
DA:51,0
DA:53,0
DA:56,0
DA:57,0
DA:58,0
DA:59,0
DA:60,0
DA:61,0
DA:63,0
DA:64,0
DA:65,0
DA:67,0
DA:68,0
DA:71,0
DA:72,0
DA:73,0
DA:74,0
DA:75,0
DA:76,0
DA:77,0
BRF:0
BRH:0
LF:41
LH:0
end_of_record
SF:C:\Users\cires\OneDrive\Documents\projects\AuthFramework\src\audit.rs
FN:663,_RNCNCNvMs_NtCsawKQoipWOme_14auth_framework5auditINtB8_11AuditLoggerpE20get_unique_users_24h00Ba_
FN:460,_RNCNCNvMs_NtCsawKQoipWOme_14auth_framework5auditINtB8_11AuditLoggerpE23log_suspicious_activity00Ba_
FN:563,_RNCNvMs_NtCsawKQoipWOme_14auth_framework5auditINtB6_11AuditLoggerpE12query_events0B8_
FN:568,_RNCNvMs_NtCsawKQoipWOme_14auth_framework5auditINtB6_11AuditLoggerpE14get_statistics0B8_
FN:378,_RNCNvMs_NtCsawKQoipWOme_14auth_framework5auditINtB6_11AuditLoggerpE17log_login_failure0B8_
FN:347,_RNCNvMs_NtCsawKQoipWOme_14auth_framework5auditINtB6_11AuditLoggerpE17log_login_success0B8_
FN:746,_RNCNvMs_NtCsawKQoipWOme_14auth_framework5auditINtB6_11AuditLoggerpE18cleanup_old_events0B8_
FN:642,_RNCNvMs_NtCsawKQoipWOme_14auth_framework5auditINtB6_11AuditLoggerpE20get_unique_users_24h0B8_
FN:481,_RNCNvMs_NtCsawKQoipWOme_14auth_framework5auditINtB6_11AuditLoggerpE21check_security_alerts0B8_
FN:414,_RNCNvMs_NtCsawKQoipWOme_14auth_framework5auditINtB6_11AuditLoggerpE21log_permission_denied0B8_
FN:554,_RNCNvMs_NtCsawKQoipWOme_14auth_framework5auditINtB6_11AuditLoggerpE22trigger_security_alert0B8_
FN:452,_RNCNvMs_NtCsawKQoipWOme_14auth_framework5auditINtB6_11AuditLoggerpE23log_suspicious_activity0B8_
FN:496,_RNCNvMs_NtCsawKQoipWOme_14auth_framework5auditINtB6_11AuditLoggerpE25check_brute_force_pattern0B8_
FN:690,_RNCNvMs_NtCsawKQoipWOme_14auth_framework5auditINtB6_11AuditLoggerpE26get_admin_action_count_24h0B8_
FN:573,_RNCNvMs_NtCsawKQoipWOme_14auth_framework5auditINtB6_11AuditLoggerpE26get_failed_login_count_24h0B8_
FN:617,_RNCNvMs_NtCsawKQoipWOme_14auth_framework5auditINtB6_11AuditLoggerpE26get_token_issued_count_24h0B8_
FN:668,_RNCNvMs_NtCsawKQoipWOme_14auth_framework5auditINtB6_11AuditLoggerpE28get_password_reset_count_24h0B8_
FN:720,_RNCNvMs_NtCsawKQoipWOme_14auth_framework5auditINtB6_11AuditLoggerpE28get_security_alert_count_24h0B8_
FN:595,_RNCNvMs_NtCsawKQoipWOme_14auth_framework5auditINtB6_11AuditLoggerpE30get_successful_login_count_24h0B8_
FN:321,_RNCNvMs_NtCsawKQoipWOme_14auth_framework5auditINtB6_11AuditLoggerpE9log_event0B8_
FN:563,_RNvMs_NtCsawKQoipWOme_14auth_framework5auditINtB4_11AuditLoggerpE12query_eventsB6_
FN:568,_RNvMs_NtCsawKQoipWOme_14auth_framework5auditINtB4_11AuditLoggerpE14get_statisticsB6_
FN:373,_RNvMs_NtCsawKQoipWOme_14auth_framework5auditINtB4_11AuditLoggerpE17log_login_failureB6_
FN:342,_RNvMs_NtCsawKQoipWOme_14auth_framework5auditINtB4_11AuditLoggerpE17log_login_successB6_
FN:746,_RNvMs_NtCsawKQoipWOme_14auth_framework5auditINtB4_11AuditLoggerpE18cleanup_old_eventsB6_
FN:642,_RNvMs_NtCsawKQoipWOme_14auth_framework5auditINtB4_11AuditLoggerpE20get_unique_users_24hB6_
FN:481,_RNvMs_NtCsawKQoipWOme_14auth_framework5auditINtB4_11AuditLoggerpE21check_security_alertsB6_
FN:408,_RNvMs_NtCsawKQoipWOme_14auth_framework5auditINtB4_11AuditLoggerpE21log_permission_deniedB6_
FN:554,_RNvMs_NtCsawKQoipWOme_14auth_framework5auditINtB4_11AuditLoggerpE22trigger_security_alertB6_
FN:446,_RNvMs_NtCsawKQoipWOme_14auth_framework5auditINtB4_11AuditLoggerpE23log_suspicious_activityB6_
FN:496,_RNvMs_NtCsawKQoipWOme_14auth_framework5auditINtB4_11AuditLoggerpE25check_brute_force_patternB6_
FN:690,_RNvMs_NtCsawKQoipWOme_14auth_framework5auditINtB4_11AuditLoggerpE26get_admin_action_count_24hB6_
FN:573,_RNvMs_NtCsawKQoipWOme_14auth_framework5auditINtB4_11AuditLoggerpE26get_failed_login_count_24hB6_
FN:617,_RNvMs_NtCsawKQoipWOme_14auth_framework5auditINtB4_11AuditLoggerpE26get_token_issued_count_24hB6_
FN:668,_RNvMs_NtCsawKQoipWOme_14auth_framework5auditINtB4_11AuditLoggerpE28get_password_reset_count_24hB6_
FN:720,_RNvMs_NtCsawKQoipWOme_14auth_framework5auditINtB4_11AuditLoggerpE28get_security_alert_count_24hB6_
FN:595,_RNvMs_NtCsawKQoipWOme_14auth_framework5auditINtB4_11AuditLoggerpE30get_successful_login_count_24hB6_
FN:321,_RNvMs_NtCsawKQoipWOme_14auth_framework5auditINtB4_11AuditLoggerpE9log_eventB6_
FN:6,_RNvXNtCsawKQoipWOme_14auth_framework5auditNtB2_22CorrelationIdGeneratorNtNtCsf36jwlS2r7m_4core7default7Default7default
FN:759,_RNvMs0_NtCsawKQoipWOme_14auth_framework5auditNtB5_22CorrelationIdGenerator3new
FN:765,_RNvMs0_NtCsawKQoipWOme_14auth_framework5auditNtB5_22CorrelationIdGenerator8generate
FN:782,_RNvMs1_NtCsawKQoipWOme_14auth_framework5auditNtB5_15RequestMetadata3new
FN:811,_RNvXs2_NtCsawKQoipWOme_14auth_framework5auditNtB5_15RequestMetadataNtNtCsf36jwlS2r7m_4core7default7Default7default
FN:832,_RNvNtNtCsawKQoipWOme_14auth_framework5audit5testss_29test_request_metadata_builder
FN:821,_RNvNtNtCsawKQoipWOme_14auth_framework5audit5testss_30test_correlation_id_generation
FN:804,_RINvMs1_NtCsawKQoipWOme_14auth_framework5auditNtB6_15RequestMetadata13with_endpointReEB8_
FN:799,_RINvMs1_NtCsawKQoipWOme_14auth_framework5auditNtB6_15RequestMetadata15with_user_agentReEB8_
FN:794,_RINvMs1_NtCsawKQoipWOme_14auth_framework5auditNtB6_15RequestMetadata7with_ipReEB8_
FN:313,_RNvMs_NtCsawKQoipWOme_14auth_framework5auditINtB4_11AuditLoggerINtNtCsaFwVybN8Rvy_5alloc4sync3ArcNtNtNtB6_7storage4core13MemoryStorageEE3newB6_
FN:313,_RNvMs_NtCscyNIIr1ochp_14auth_framework5auditINtB4_11AuditLoggerINtNtCsaFwVybN8Rvy_5alloc4sync3ArcNtNtNtB6_7storage4core13MemoryStorageEE3newB6_
FN:804,_RINvMs1_NtCscyNIIr1ochp_14auth_framework5auditNtB6_15RequestMetadata13with_endpointpEB8_
FN:799,_RINvMs1_NtCscyNIIr1ochp_14auth_framework5auditNtB6_15RequestMetadata15with_user_agentpEB8_
FN:794,_RINvMs1_NtCscyNIIr1ochp_14auth_framework5auditNtB6_15RequestMetadata7with_ippEB8_
FN:663,_RNCNCNvMs_NtCscyNIIr1ochp_14auth_framework5auditINtB8_11AuditLoggerpE20get_unique_users_24h00Ba_
FN:460,_RNCNCNvMs_NtCscyNIIr1ochp_14auth_framework5auditINtB8_11AuditLoggerpE23log_suspicious_activity00Ba_
FN:563,_RNCNvMs_NtCscyNIIr1ochp_14auth_framework5auditINtB6_11AuditLoggerpE12query_events0B8_
FN:568,_RNCNvMs_NtCscyNIIr1ochp_14auth_framework5auditINtB6_11AuditLoggerpE14get_statistics0B8_
FN:378,_RNCNvMs_NtCscyNIIr1ochp_14auth_framework5auditINtB6_11AuditLoggerpE17log_login_failure0B8_
FN:347,_RNCNvMs_NtCscyNIIr1ochp_14auth_framework5auditINtB6_11AuditLoggerpE17log_login_success0B8_
FN:746,_RNCNvMs_NtCscyNIIr1ochp_14auth_framework5auditINtB6_11AuditLoggerpE18cleanup_old_events0B8_
FN:642,_RNCNvMs_NtCscyNIIr1ochp_14auth_framework5auditINtB6_11AuditLoggerpE20get_unique_users_24h0B8_
FN:481,_RNCNvMs_NtCscyNIIr1ochp_14auth_framework5auditINtB6_11AuditLoggerpE21check_security_alerts0B8_
FN:414,_RNCNvMs_NtCscyNIIr1ochp_14auth_framework5auditINtB6_11AuditLoggerpE21log_permission_denied0B8_
FN:554,_RNCNvMs_NtCscyNIIr1ochp_14auth_framework5auditINtB6_11AuditLoggerpE22trigger_security_alert0B8_
FN:452,_RNCNvMs_NtCscyNIIr1ochp_14auth_framework5auditINtB6_11AuditLoggerpE23log_suspicious_activity0B8_
FN:496,_RNCNvMs_NtCscyNIIr1ochp_14auth_framework5auditINtB6_11AuditLoggerpE25check_brute_force_pattern0B8_
FN:690,_RNCNvMs_NtCscyNIIr1ochp_14auth_framework5auditINtB6_11AuditLoggerpE26get_admin_action_count_24h0B8_
FN:573,_RNCNvMs_NtCscyNIIr1ochp_14auth_framework5auditINtB6_11AuditLoggerpE26get_failed_login_count_24h0B8_
FN:617,_RNCNvMs_NtCscyNIIr1ochp_14auth_framework5auditINtB6_11AuditLoggerpE26get_token_issued_count_24h0B8_
FN:668,_RNCNvMs_NtCscyNIIr1ochp_14auth_framework5auditINtB6_11AuditLoggerpE28get_password_reset_count_24h0B8_
FN:720,_RNCNvMs_NtCscyNIIr1ochp_14auth_framework5auditINtB6_11AuditLoggerpE28get_security_alert_count_24h0B8_
FN:595,_RNCNvMs_NtCscyNIIr1ochp_14auth_framework5auditINtB6_11AuditLoggerpE30get_successful_login_count_24h0B8_
FN:321,_RNCNvMs_NtCscyNIIr1ochp_14auth_framework5auditINtB6_11AuditLoggerpE9log_event0B8_
FN:563,_RNvMs_NtCscyNIIr1ochp_14auth_framework5auditINtB4_11AuditLoggerpE12query_eventsB6_
FN:568,_RNvMs_NtCscyNIIr1ochp_14auth_framework5auditINtB4_11AuditLoggerpE14get_statisticsB6_
FN:373,_RNvMs_NtCscyNIIr1ochp_14auth_framework5auditINtB4_11AuditLoggerpE17log_login_failureB6_
FN:342,_RNvMs_NtCscyNIIr1ochp_14auth_framework5auditINtB4_11AuditLoggerpE17log_login_successB6_
FN:746,_RNvMs_NtCscyNIIr1ochp_14auth_framework5auditINtB4_11AuditLoggerpE18cleanup_old_eventsB6_
FN:642,_RNvMs_NtCscyNIIr1ochp_14auth_framework5auditINtB4_11AuditLoggerpE20get_unique_users_24hB6_
FN:481,_RNvMs_NtCscyNIIr1ochp_14auth_framework5auditINtB4_11AuditLoggerpE21check_security_alertsB6_
FN:408,_RNvMs_NtCscyNIIr1ochp_14auth_framework5auditINtB4_11AuditLoggerpE21log_permission_deniedB6_
FN:554,_RNvMs_NtCscyNIIr1ochp_14auth_framework5auditINtB4_11AuditLoggerpE22trigger_security_alertB6_
FN:446,_RNvMs_NtCscyNIIr1ochp_14auth_framework5auditINtB4_11AuditLoggerpE23log_suspicious_activityB6_
FN:496,_RNvMs_NtCscyNIIr1ochp_14auth_framework5auditINtB4_11AuditLoggerpE25check_brute_force_patternB6_
FN:690,_RNvMs_NtCscyNIIr1ochp_14auth_framework5auditINtB4_11AuditLoggerpE26get_admin_action_count_24hB6_
FN:573,_RNvMs_NtCscyNIIr1ochp_14auth_framework5auditINtB4_11AuditLoggerpE26get_failed_login_count_24hB6_
FN:617,_RNvMs_NtCscyNIIr1ochp_14auth_framework5auditINtB4_11AuditLoggerpE26get_token_issued_count_24hB6_
FN:668,_RNvMs_NtCscyNIIr1ochp_14auth_framework5auditINtB4_11AuditLoggerpE28get_password_reset_count_24hB6_
FN:720,_RNvMs_NtCscyNIIr1ochp_14auth_framework5auditINtB4_11AuditLoggerpE28get_security_alert_count_24hB6_
FN:595,_RNvMs_NtCscyNIIr1ochp_14auth_framework5auditINtB4_11AuditLoggerpE30get_successful_login_count_24hB6_
FN:321,_RNvMs_NtCscyNIIr1ochp_14auth_framework5auditINtB4_11AuditLoggerpE9log_eventB6_
FN:759,_RNvMs0_NtCscyNIIr1ochp_14auth_framework5auditNtB5_22CorrelationIdGenerator3new
FN:765,_RNvMs0_NtCscyNIIr1ochp_14auth_framework5auditNtB5_22CorrelationIdGenerator8generate
FN:782,_RNvMs1_NtCscyNIIr1ochp_14auth_framework5auditNtB5_15RequestMetadata3new
FN:6,_RNvXNtCscyNIIr1ochp_14auth_framework5auditNtB2_22CorrelationIdGeneratorNtNtCsf36jwlS2r7m_4core7default7Default7default
FN:811,_RNvXs2_NtCscyNIIr1ochp_14auth_framework5auditNtB5_15RequestMetadataNtNtCsf36jwlS2r7m_4core7default7Default7default
FNDA:0,_RNCNCNvMs_NtCsawKQoipWOme_14auth_framework5auditINtB8_11AuditLoggerpE20get_unique_users_24h00Ba_
FNDA:0,_RNCNCNvMs_NtCsawKQoipWOme_14auth_framework5auditINtB8_11AuditLoggerpE23log_suspicious_activity00Ba_
FNDA:0,_RNCNvMs_NtCsawKQoipWOme_14auth_framework5auditINtB6_11AuditLoggerpE12query_events0B8_
FNDA:0,_RNCNvMs_NtCsawKQoipWOme_14auth_framework5auditINtB6_11AuditLoggerpE14get_statistics0B8_
FNDA:0,_RNCNvMs_NtCsawKQoipWOme_14auth_framework5auditINtB6_11AuditLoggerpE17log_login_failure0B8_
FNDA:0,_RNCNvMs_NtCsawKQoipWOme_14auth_framework5auditINtB6_11AuditLoggerpE17log_login_success0B8_
FNDA:0,_RNCNvMs_NtCsawKQoipWOme_14auth_framework5auditINtB6_11AuditLoggerpE18cleanup_old_events0B8_
FNDA:0,_RNCNvMs_NtCsawKQoipWOme_14auth_framework5auditINtB6_11AuditLoggerpE20get_unique_users_24h0B8_
FNDA:0,_RNCNvMs_NtCsawKQoipWOme_14auth_framework5auditINtB6_11AuditLoggerpE21check_security_alerts0B8_
FNDA:0,_RNCNvMs_NtCsawKQoipWOme_14auth_framework5auditINtB6_11AuditLoggerpE21log_permission_denied0B8_
FNDA:0,_RNCNvMs_NtCsawKQoipWOme_14auth_framework5auditINtB6_11AuditLoggerpE22trigger_security_alert0B8_
FNDA:0,_RNCNvMs_NtCsawKQoipWOme_14auth_framework5auditINtB6_11AuditLoggerpE23log_suspicious_activity0B8_
FNDA:0,_RNCNvMs_NtCsawKQoipWOme_14auth_framework5auditINtB6_11AuditLoggerpE25check_brute_force_pattern0B8_
FNDA:0,_RNCNvMs_NtCsawKQoipWOme_14auth_framework5auditINtB6_11AuditLoggerpE26get_admin_action_count_24h0B8_
FNDA:0,_RNCNvMs_NtCsawKQoipWOme_14auth_framework5auditINtB6_11AuditLoggerpE26get_failed_login_count_24h0B8_
FNDA:0,_RNCNvMs_NtCsawKQoipWOme_14auth_framework5auditINtB6_11AuditLoggerpE26get_token_issued_count_24h0B8_
FNDA:0,_RNCNvMs_NtCsawKQoipWOme_14auth_framework5auditINtB6_11AuditLoggerpE28get_password_reset_count_24h0B8_
FNDA:0,_RNCNvMs_NtCsawKQoipWOme_14auth_framework5auditINtB6_11AuditLoggerpE28get_security_alert_count_24h0B8_
FNDA:0,_RNCNvMs_NtCsawKQoipWOme_14auth_framework5auditINtB6_11AuditLoggerpE30get_successful_login_count_24h0B8_
FNDA:0,_RNCNvMs_NtCsawKQoipWOme_14auth_framework5auditINtB6_11AuditLoggerpE9log_event0B8_
FNDA:0,_RNvMs_NtCsawKQoipWOme_14auth_framework5auditINtB4_11AuditLoggerpE12query_eventsB6_
FNDA:0,_RNvMs_NtCsawKQoipWOme_14auth_framework5auditINtB4_11AuditLoggerpE14get_statisticsB6_
FNDA:0,_RNvMs_NtCsawKQoipWOme_14auth_framework5auditINtB4_11AuditLoggerpE17log_login_failureB6_
FNDA:0,_RNvMs_NtCsawKQoipWOme_14auth_framework5auditINtB4_11AuditLoggerpE17log_login_successB6_
FNDA:0,_RNvMs_NtCsawKQoipWOme_14auth_framework5auditINtB4_11AuditLoggerpE18cleanup_old_eventsB6_
FNDA:0,_RNvMs_NtCsawKQoipWOme_14auth_framework5auditINtB4_11AuditLoggerpE20get_unique_users_24hB6_
FNDA:0,_RNvMs_NtCsawKQoipWOme_14auth_framework5auditINtB4_11AuditLoggerpE21check_security_alertsB6_
FNDA:0,_RNvMs_NtCsawKQoipWOme_14auth_framework5auditINtB4_11AuditLoggerpE21log_permission_deniedB6_
FNDA:0,_RNvMs_NtCsawKQoipWOme_14auth_framework5auditINtB4_11AuditLoggerpE22trigger_security_alertB6_
FNDA:0,_RNvMs_NtCsawKQoipWOme_14auth_framework5auditINtB4_11AuditLoggerpE23log_suspicious_activityB6_
FNDA:0,_RNvMs_NtCsawKQoipWOme_14auth_framework5auditINtB4_11AuditLoggerpE25check_brute_force_patternB6_
FNDA:0,_RNvMs_NtCsawKQoipWOme_14auth_framework5auditINtB4_11AuditLoggerpE26get_admin_action_count_24hB6_
FNDA:0,_RNvMs_NtCsawKQoipWOme_14auth_framework5auditINtB4_11AuditLoggerpE26get_failed_login_count_24hB6_
FNDA:0,_RNvMs_NtCsawKQoipWOme_14auth_framework5auditINtB4_11AuditLoggerpE26get_token_issued_count_24hB6_
FNDA:0,_RNvMs_NtCsawKQoipWOme_14auth_framework5auditINtB4_11AuditLoggerpE28get_password_reset_count_24hB6_
FNDA:0,_RNvMs_NtCsawKQoipWOme_14auth_framework5auditINtB4_11AuditLoggerpE28get_security_alert_count_24hB6_
FNDA:0,_RNvMs_NtCsawKQoipWOme_14auth_framework5auditINtB4_11AuditLoggerpE30get_successful_login_count_24hB6_
FNDA:0,_RNvMs_NtCsawKQoipWOme_14auth_framework5auditINtB4_11AuditLoggerpE9log_eventB6_
FNDA:0,_RNvXNtCsawKQoipWOme_14auth_framework5auditNtB2_22CorrelationIdGeneratorNtNtCsf36jwlS2r7m_4core7default7Default7default
FNDA:8,_RNvMs0_NtCsawKQoipWOme_14auth_framework5auditNtB5_22CorrelationIdGenerator3new
FNDA:2,_RNvMs0_NtCsawKQoipWOme_14auth_framework5auditNtB5_22CorrelationIdGenerator8generate
FNDA:3,_RNvMs1_NtCsawKQoipWOme_14auth_framework5auditNtB5_15RequestMetadata3new
FNDA:2,_RNvXs2_NtCsawKQoipWOme_14auth_framework5auditNtB5_15RequestMetadataNtNtCsf36jwlS2r7m_4core7default7Default7default
FNDA:1,_RNvNtNtCsawKQoipWOme_14auth_framework5audit5testss_29test_request_metadata_builder
FNDA:1,_RNvNtNtCsawKQoipWOme_14auth_framework5audit5testss_30test_correlation_id_generation
FNDA:1,_RINvMs1_NtCsawKQoipWOme_14auth_framework5auditNtB6_15RequestMetadata13with_endpointReEB8_
FNDA:1,_RINvMs1_NtCsawKQoipWOme_14auth_framework5auditNtB6_15RequestMetadata15with_user_agentReEB8_
FNDA:1,_RINvMs1_NtCsawKQoipWOme_14auth_framework5auditNtB6_15RequestMetadata7with_ipReEB8_
FNDA:7,_RNvMs_NtCsawKQoipWOme_14auth_framework5auditINtB4_11AuditLoggerINtNtCsaFwVybN8Rvy_5alloc4sync3ArcNtNtNtB6_7storage4core13MemoryStorageEE3newB6_
FNDA:164,_RNvMs_NtCscyNIIr1ochp_14auth_framework5auditINtB4_11AuditLoggerINtNtCsaFwVybN8Rvy_5alloc4sync3ArcNtNtNtB6_7storage4core13MemoryStorageEE3newB6_
FNDA:0,_RINvMs1_NtCscyNIIr1ochp_14auth_framework5auditNtB6_15RequestMetadata13with_endpointpEB8_
FNDA:0,_RINvMs1_NtCscyNIIr1ochp_14auth_framework5auditNtB6_15RequestMetadata15with_user_agentpEB8_
FNDA:0,_RINvMs1_NtCscyNIIr1ochp_14auth_framework5auditNtB6_15RequestMetadata7with_ippEB8_
FNDA:0,_RNCNCNvMs_NtCscyNIIr1ochp_14auth_framework5auditINtB8_11AuditLoggerpE20get_unique_users_24h00Ba_
FNDA:0,_RNCNCNvMs_NtCscyNIIr1ochp_14auth_framework5auditINtB8_11AuditLoggerpE23log_suspicious_activity00Ba_
FNDA:0,_RNCNvMs_NtCscyNIIr1ochp_14auth_framework5auditINtB6_11AuditLoggerpE12query_events0B8_
FNDA:0,_RNCNvMs_NtCscyNIIr1ochp_14auth_framework5auditINtB6_11AuditLoggerpE14get_statistics0B8_
FNDA:0,_RNCNvMs_NtCscyNIIr1ochp_14auth_framework5auditINtB6_11AuditLoggerpE17log_login_failure0B8_
FNDA:0,_RNCNvMs_NtCscyNIIr1ochp_14auth_framework5auditINtB6_11AuditLoggerpE17log_login_success0B8_
FNDA:0,_RNCNvMs_NtCscyNIIr1ochp_14auth_framework5auditINtB6_11AuditLoggerpE18cleanup_old_events0B8_
FNDA:0,_RNCNvMs_NtCscyNIIr1ochp_14auth_framework5auditINtB6_11AuditLoggerpE20get_unique_users_24h0B8_
FNDA:0,_RNCNvMs_NtCscyNIIr1ochp_14auth_framework5auditINtB6_11AuditLoggerpE21check_security_alerts0B8_
FNDA:0,_RNCNvMs_NtCscyNIIr1ochp_14auth_framework5auditINtB6_11AuditLoggerpE21log_permission_denied0B8_
FNDA:0,_RNCNvMs_NtCscyNIIr1ochp_14auth_framework5auditINtB6_11AuditLoggerpE22trigger_security_alert0B8_
FNDA:0,_RNCNvMs_NtCscyNIIr1ochp_14auth_framework5auditINtB6_11AuditLoggerpE23log_suspicious_activity0B8_
FNDA:0,_RNCNvMs_NtCscyNIIr1ochp_14auth_framework5auditINtB6_11AuditLoggerpE25check_brute_force_pattern0B8_
FNDA:0,_RNCNvMs_NtCscyNIIr1ochp_14auth_framework5auditINtB6_11AuditLoggerpE26get_admin_action_count_24h0B8_
FNDA:0,_RNCNvMs_NtCscyNIIr1ochp_14auth_framework5auditINtB6_11AuditLoggerpE26get_failed_login_count_24h0B8_
FNDA:0,_RNCNvMs_NtCscyNIIr1ochp_14auth_framework5auditINtB6_11AuditLoggerpE26get_token_issued_count_24h0B8_
FNDA:0,_RNCNvMs_NtCscyNIIr1ochp_14auth_framework5auditINtB6_11AuditLoggerpE28get_password_reset_count_24h0B8_
FNDA:0,_RNCNvMs_NtCscyNIIr1ochp_14auth_framework5auditINtB6_11AuditLoggerpE28get_security_alert_count_24h0B8_
FNDA:0,_RNCNvMs_NtCscyNIIr1ochp_14auth_framework5auditINtB6_11AuditLoggerpE30get_successful_login_count_24h0B8_
FNDA:0,_RNCNvMs_NtCscyNIIr1ochp_14auth_framework5auditINtB6_11AuditLoggerpE9log_event0B8_
FNDA:0,_RNvMs_NtCscyNIIr1ochp_14auth_framework5auditINtB4_11AuditLoggerpE12query_eventsB6_
FNDA:0,_RNvMs_NtCscyNIIr1ochp_14auth_framework5auditINtB4_11AuditLoggerpE14get_statisticsB6_
FNDA:0,_RNvMs_NtCscyNIIr1ochp_14auth_framework5auditINtB4_11AuditLoggerpE17log_login_failureB6_
FNDA:0,_RNvMs_NtCscyNIIr1ochp_14auth_framework5auditINtB4_11AuditLoggerpE17log_login_successB6_
FNDA:0,_RNvMs_NtCscyNIIr1ochp_14auth_framework5auditINtB4_11AuditLoggerpE18cleanup_old_eventsB6_
FNDA:0,_RNvMs_NtCscyNIIr1ochp_14auth_framework5auditINtB4_11AuditLoggerpE20get_unique_users_24hB6_
FNDA:0,_RNvMs_NtCscyNIIr1ochp_14auth_framework5auditINtB4_11AuditLoggerpE21check_security_alertsB6_
FNDA:0,_RNvMs_NtCscyNIIr1ochp_14auth_framework5auditINtB4_11AuditLoggerpE21log_permission_deniedB6_
FNDA:0,_RNvMs_NtCscyNIIr1ochp_14auth_framework5auditINtB4_11AuditLoggerpE22trigger_security_alertB6_
FNDA:0,_RNvMs_NtCscyNIIr1ochp_14auth_framework5auditINtB4_11AuditLoggerpE23log_suspicious_activityB6_
FNDA:0,_RNvMs_NtCscyNIIr1ochp_14auth_framework5auditINtB4_11AuditLoggerpE25check_brute_force_patternB6_
FNDA:0,_RNvMs_NtCscyNIIr1ochp_14auth_framework5auditINtB4_11AuditLoggerpE26get_admin_action_count_24hB6_
FNDA:0,_RNvMs_NtCscyNIIr1ochp_14auth_framework5auditINtB4_11AuditLoggerpE26get_failed_login_count_24hB6_
FNDA:0,_RNvMs_NtCscyNIIr1ochp_14auth_framework5auditINtB4_11AuditLoggerpE26get_token_issued_count_24hB6_
FNDA:0,_RNvMs_NtCscyNIIr1ochp_14auth_framework5auditINtB4_11AuditLoggerpE28get_password_reset_count_24hB6_
FNDA:0,_RNvMs_NtCscyNIIr1ochp_14auth_framework5auditINtB4_11AuditLoggerpE28get_security_alert_count_24hB6_
FNDA:0,_RNvMs_NtCscyNIIr1ochp_14auth_framework5auditINtB4_11AuditLoggerpE30get_successful_login_count_24hB6_
FNDA:0,_RNvMs_NtCscyNIIr1ochp_14auth_framework5auditINtB4_11AuditLoggerpE9log_eventB6_
FNDA:164,_RNvMs0_NtCscyNIIr1ochp_14auth_framework5auditNtB5_22CorrelationIdGenerator3new
FNDA:0,_RNvMs0_NtCscyNIIr1ochp_14auth_framework5auditNtB5_22CorrelationIdGenerator8generate
FNDA:0,_RNvMs1_NtCscyNIIr1ochp_14auth_framework5auditNtB5_15RequestMetadata3new
FNDA:0,_RNvXNtCscyNIIr1ochp_14auth_framework5auditNtB2_22CorrelationIdGeneratorNtNtCsf36jwlS2r7m_4core7default7Default7default
FNDA:0,_RNvXs2_NtCscyNIIr1ochp_14auth_framework5auditNtB5_15RequestMetadataNtNtCsf36jwlS2r7m_4core7default7Default7default
FNF:49
FNH:10
DA:6,0
DA:7,0
DA:8,0
DA:313,171
DA:314,171
DA:315,171
DA:316,171
DA:317,171
DA:318,171
DA:321,0
DA:323,0
DA:324,0
DA:325,0
DA:328,0
DA:329,0
DA:330,0
DA:333,0
DA:336,0
DA:338,0
DA:339,0
DA:342,0
DA:343,0
DA:344,0
DA:345,0
DA:346,0
DA:347,0
DA:348,0
DA:349,0
DA:350,0
DA:351,0
DA:352,0
DA:353,0
DA:354,0
DA:355,0
DA:356,0
DA:357,0
DA:358,0
DA:359,0
DA:360,0
DA:361,0
DA:362,0
DA:363,0
DA:364,0
DA:365,0
DA:366,0
DA:367,0
DA:369,0
DA:370,0
DA:373,0
DA:374,0
DA:375,0
DA:376,0
DA:377,0
DA:378,0
DA:379,0
DA:380,0
DA:381,0
DA:383,0
DA:384,0
DA:385,0
DA:386,0
DA:387,0
DA:388,0
DA:389,0
DA:390,0
DA:391,0
DA:392,0
DA:393,0
DA:394,0
DA:395,0
DA:396,0
DA:397,0
DA:398,0
DA:399,0
DA:400,0
DA:401,0
DA:402,0
DA:404,0
DA:405,0
DA:408,0
DA:409,0
DA:410,0
DA:411,0
DA:412,0
DA:413,0
DA:414,0
DA:415,0
DA:416,0
DA:418,0
DA:419,0
DA:420,0
DA:421,0
DA:422,0
DA:423,0
DA:424,0
DA:425,0
DA:426,0
DA:427,0
DA:428,0
DA:429,0
DA:430,0
DA:431,0
DA:432,0
DA:433,0
DA:434,0
DA:435,0
DA:436,0
DA:437,0
DA:438,0
DA:439,0
DA:440,0
DA:442,0
DA:443,0
DA:446,0
DA:447,0
DA:448,0
DA:449,0
DA:450,0
DA:451,0
DA:452,0
DA:453,0
DA:454,0
DA:456,0
DA:457,0
DA:458,0
DA:460,0
DA:461,0
DA:462,0
DA:463,0
DA:464,0
DA:465,0
DA:466,0
DA:467,0
DA:469,0
DA:470,0
DA:471,0
DA:472,0
DA:474,0
DA:477,0
DA:478,0
DA:481,0
DA:482,0
DA:484,0
DA:488,0
DA:490,0
DA:492,0
DA:493,0
DA:496,0
DA:497,0
DA:498,0
DA:499,0
DA:500,0
DA:501,0
DA:502,0
DA:503,0
DA:504,0
DA:505,0
DA:506,0
DA:507,0
DA:508,0
DA:509,0
DA:510,0
DA:511,0
DA:512,0
DA:513,0
DA:515,0
DA:517,0
DA:519,0
DA:520,0
DA:521,0
DA:522,0
DA:524,0
DA:526,0
DA:527,0
DA:528,0
DA:529,0
DA:530,0
DA:531,0
DA:532,0
DA:533,0
DA:534,0
DA:535,0
DA:536,0
DA:537,0
DA:538,0
DA:539,0
DA:540,0
DA:541,0
DA:542,0
DA:543,0
DA:544,0
DA:545,0
DA:547,0
DA:548,0
DA:550,0
DA:551,0
DA:554,0
DA:559,0
DA:560,0
DA:563,0
DA:564,0
DA:565,0
DA:568,0
DA:569,0
DA:570,0
DA:573,0
DA:574,0
DA:575,0
DA:576,0
DA:577,0
DA:578,0
DA:579,0
DA:580,0
DA:581,0
DA:582,0
DA:583,0
DA:584,0
DA:585,0
DA:586,0
DA:587,0
DA:588,0
DA:589,0
DA:590,0
DA:591,0
DA:592,0
DA:595,0
DA:596,0
DA:597,0
DA:598,0
DA:599,0
DA:600,0
DA:601,0
DA:602,0
DA:603,0
DA:604,0
DA:605,0
DA:606,0
DA:607,0
DA:608,0
DA:609,0
DA:610,0
DA:611,0
DA:612,0
DA:613,0
DA:614,0
DA:617,0
DA:618,0
DA:619,0
DA:620,0
DA:621,0
DA:622,0
DA:623,0
DA:624,0
DA:625,0
DA:626,0
DA:627,0
DA:628,0
DA:629,0
DA:630,0
DA:631,0
DA:632,0
DA:633,0
DA:634,0
DA:635,0
DA:636,0
DA:637,0
DA:638,0
DA:639,0
DA:642,0
DA:643,0
DA:644,0
DA:645,0
DA:646,0
DA:647,0
DA:648,0
DA:649,0
DA:650,0
DA:651,0
DA:652,0
DA:653,0
DA:654,0
DA:655,0
DA:656,0
DA:657,0
DA:658,0
DA:659,0
DA:661,0
DA:662,0
DA:663,0
DA:664,0
DA:665,0
DA:668,0
DA:669,0
DA:670,0
DA:671,0
DA:672,0
DA:673,0
DA:674,0
DA:675,0
DA:676,0
DA:677,0
DA:678,0
DA:679,0
DA:680,0
DA:681,0
DA:682,0
DA:683,0
DA:684,0
DA:685,0
DA:686,0
DA:687,0
DA:690,0
DA:691,0
DA:692,0
DA:693,0
DA:694,0
DA:695,0
DA:696,0
DA:697,0
DA:698,0
DA:699,0
DA:700,0
DA:701,0
DA:702,0
DA:703,0
DA:704,0
DA:705,0
DA:706,0
DA:707,0
DA:708,0
DA:709,0
DA:710,0
DA:711,0
DA:712,0
DA:713,0
DA:714,0
DA:715,0
DA:716,0
DA:717,0
DA:720,0
DA:721,0
DA:722,0
DA:723,0
DA:724,0
DA:725,0
DA:726,0
DA:727,0
DA:728,0
DA:729,0
DA:730,0
DA:731,0
DA:732,0
DA:733,0
DA:734,0
DA:735,0
DA:736,0
DA:737,0
DA:738,0
DA:739,0
DA:740,0
DA:741,0
DA:742,0
DA:743,0
DA:746,0
DA:747,0
DA:748,0
DA:749,0
DA:750,0
DA:759,172
DA:760,172
DA:761,172
DA:762,172
DA:763,172
DA:765,2
DA:766,2
DA:767,2
DA:768,2
DA:769,2
DA:770,2
DA:771,2
DA:772,2
DA:773,2
DA:774,2
DA:777,2
DA:782,3
DA:783,3
DA:784,3
DA:785,3
DA:786,3
DA:787,3
DA:788,3
DA:789,3
DA:790,3
DA:791,3
DA:792,3
DA:794,1
DA:795,1
DA:796,1
DA:797,1
DA:799,1
DA:800,1
DA:801,1
DA:802,1
DA:804,1
DA:805,1
DA:806,1
DA:807,1
DA:811,2
DA:812,2
DA:813,2
DA:821,1
DA:822,1
DA:823,1
DA:824,1
DA:826,1
DA:827,1
DA:828,1
DA:829,1
DA:832,1
DA:833,1
DA:834,1
DA:835,1
DA:836,1
DA:838,1
DA:839,1
DA:840,1
DA:841,1
BRF:0
BRH:0
LF:447
LH:65
end_of_record
SF:C:\Users\cires\OneDrive\Documents\projects\AuthFramework\src\auth.rs
FN:343,_RNCNCNvMNtCsawKQoipWOme_14auth_framework4authNtB6_13AuthFramework10initialize00B8_
FN:935,_RNCNCNvMNtCsawKQoipWOme_14auth_framework4authNtB6_13AuthFramework20cleanup_expired_data00B8_
FN:942,_RNCNCNvMNtCsawKQoipWOme_14auth_framework4authNtB6_13AuthFramework20cleanup_expired_data0s_0B8_
FN:514,_RNCNCNvMNtCsawKQoipWOme_14auth_framework4authNtB6_13AuthFramework21authenticate_internal00B8_
FN:1025,_RNCNCNvMNtCsawKQoipWOme_14auth_framework4authNtB6_13AuthFramework9get_stats00B8_
FN:335,_RNCNvMNtCsawKQoipWOme_14auth_framework4authNtB4_13AuthFramework10initialize0B6_
FN:891,_RNCNvMNtCsawKQoipWOme_14auth_framework4authNtB4_13AuthFramework11get_session0B6_
FN:433,_RNCNvMNtCsawKQoipWOme_14auth_framework4authNtB4_13AuthFramework12authenticate0B6_
FN:206,_RNCNvMNtCsawKQoipWOme_14auth_framework4authNtB4_13AuthFramework13new_validated0B6_
FN:823,_RNCNvMNtCsawKQoipWOme_14auth_framework4authNtB4_13AuthFramework14create_session0B6_
FN:900,_RNCNvMNtCsawKQoipWOme_14auth_framework4authNtB4_13AuthFramework14delete_session0B6_
FN:631,_RNCNvMNtCsawKQoipWOme_14auth_framework4authNtB4_13AuthFramework14validate_token0B6_
FN:1938,_RNCNvMNtCsawKQoipWOme_14auth_framework4authNtB4_13AuthFramework15log_audit_event0B6_
FN:2942,_RNCNvMNtCsawKQoipWOme_14auth_framework4authNtB4_13AuthFramework16get_user_profile0B6_
FN:925,_RNCNvMNtCsawKQoipWOme_14auth_framework4authNtB4_13AuthFramework20cleanup_expired_data0B6_
FN:495,_RNCNvMNtCsawKQoipWOme_14auth_framework4authNtB4_13AuthFramework21authenticate_internal0B6_
FN:2003,_RNCNvMNtCsawKQoipWOme_14auth_framework4authNtB4_13AuthFramework24estimate_failed_attempts0B6_
FN:444,_RNCNvMNtCsawKQoipWOme_14auth_framework4authNtB4_13AuthFramework26authenticate_with_metadata0B6_
FN:2047,_RNCNvMNtCsawKQoipWOme_14auth_framework4authNtB4_13AuthFramework27query_audit_events_fallback0B6_
FN:2093,_RNCNvMNtCsawKQoipWOme_14auth_framework4authNtB4_13AuthFramework28estimate_successful_attempts0B6_
FN:1963,_RNCNvMNtCsawKQoipWOme_14auth_framework4authNtB4_13AuthFramework34get_failed_attempts_from_audit_log0B6_
FN:2020,_RNCNvMNtCsawKQoipWOme_14auth_framework4authNtB4_13AuthFramework36query_audit_logs_for_failed_attempts0B6_
FN:1988,_RNCNvMNtCsawKQoipWOme_14auth_framework4authNtB4_13AuthFramework38get_successful_attempts_from_audit_log0B6_
FN:997,_RNCNvMNtCsawKQoipWOme_14auth_framework4authNtB4_13AuthFramework9get_stats0B6_
FN:3212,_RNCNvNtNtCsawKQoipWOme_14auth_framework4auth5testss_21test_token_validation0B7_
FN:3239,_RNCNvNtNtCsawKQoipWOme_14auth_framework4auth5testss_23test_session_management0B7_
FN:3186,_RNCNvNtNtCsawKQoipWOme_14auth_framework4auth5testss_24test_method_registration0B7_
FN:3273,_RNCNvNtNtCsawKQoipWOme_14auth_framework4auth5testss_25test_cleanup_expired_data0B7_
FN:3167,_RNCNvNtNtCsawKQoipWOme_14auth_framework4auth5testss_29test_framework_initialization0B7_
FN:313,_RINvMNtCsawKQoipWOme_14auth_framework4authNtB3_13AuthFramework15register_methodpEB5_
FN:1248,_RINvMNtCsawKQoipWOme_14auth_framework4authNtB3_13AuthFramework17create_auth_tokenppEB5_
FN:1254,_RNCINvMNtCsawKQoipWOme_14auth_framework4authNtB5_13AuthFramework17create_auth_tokenppE0B7_
FN:1262,_RNCNCINvMNtCsawKQoipWOme_14auth_framework4authNtB7_13AuthFramework17create_auth_tokenppE00B9_
FN:1448,_RNCNCNCNvMNtCsawKQoipWOme_14auth_framework4authNtB8_13AuthFramework29generate_totp_code_for_window000Ba_
FN:677,_RNCNCNvMNtCsawKQoipWOme_14auth_framework4authNtB6_13AuthFramework13get_user_info00B8_
FN:807,_RNCNCNvMNtCsawKQoipWOme_14auth_framework4authNtB6_13AuthFramework14revoke_api_key00B8_
FN:2724,_RNCNCNvMNtCsawKQoipWOme_14auth_framework4authNtB6_13AuthFramework15create_resource00B8_
FN:1776,_RNCNCNvMNtCsawKQoipWOme_14auth_framework4authNtB6_13AuthFramework15verify_mfa_code00B8_
FN:1823,_RNCNCNvMNtCsawKQoipWOme_14auth_framework4authNtB6_13AuthFramework15verify_mfa_code0s0_0B8_
FN:1840,_RNCNCNvMNtCsawKQoipWOme_14auth_framework4authNtB6_13AuthFramework15verify_mfa_code0s1_0B8_
FN:1786,_RNCNCNvMNtCsawKQoipWOme_14auth_framework4authNtB6_13AuthFramework15verify_mfa_code0s_0B8_
FN:1345,_RNCNCNvMNtCsawKQoipWOme_14auth_framework4authNtB6_13AuthFramework15verify_sms_code00B8_
FN:779,_RNCNCNvMNtCsawKQoipWOme_14auth_framework4authNtB6_13AuthFramework16validate_api_key00B8_
FN:1490,_RNCNCNvMNtCsawKQoipWOme_14auth_framework4authNtB6_13AuthFramework16verify_totp_code00B8_
FN:1506,_RNCNCNvMNtCsawKQoipWOme_14auth_framework4authNtB6_13AuthFramework16verify_totp_code0s_0B8_
FN:1149,_RNCNCNvMNtCsawKQoipWOme_14auth_framework4authNtB6_13AuthFramework17validate_username00B8_
FN:2539,_RNCNCNvMNtCsawKQoipWOme_14auth_framework4authNtB6_13AuthFramework18create_abac_policy00B8_
FN:2580,_RNCNCNvMNtCsawKQoipWOme_14auth_framework4authNtB6_13AuthFramework18map_user_attribute00B8_
FN:2790,_RNCNCNvMNtCsawKQoipWOme_14auth_framework4authNtB6_13AuthFramework19delegate_permission00B8_
FN:2780,_RNCNCNvMNtCsawKQoipWOme_14auth_framework4authNtB6_13AuthFramework19delegate_permission0s0_0B8_
FN:1599,_RNCNCNvMNtCsawKQoipWOme_14auth_framework4authNtB6_13AuthFramework20get_security_metrics00B8_
FN:1603,_RNCNCNvMNtCsawKQoipWOme_14auth_framework4authNtB6_13AuthFramework20get_security_metrics0s_0B8_
FN:1673,_RNCNCNvMNtCsawKQoipWOme_14auth_framework4authNtB6_13AuthFramework21generate_backup_codes00B8_
FN:1695,_RNCNCNvMNtCsawKQoipWOme_14auth_framework4authNtB6_13AuthFramework21generate_backup_codes0s_0B8_
FN:1640,_RNCNCNvMNtCsawKQoipWOme_14auth_framework4authNtB6_13AuthFramework21register_phone_number00B8_
FN:2215,_RNCNCNvMNtCsawKQoipWOme_14auth_framework4authNtB6_13AuthFramework27count_synchronized_sessions00B8_
FN:1907,_RNCNCNvMNtCsawKQoipWOme_14auth_framework4authNtB6_13AuthFramework28generate_totp_code_with_time00B8_
FN:1914,_RNCNCNvMNtCsawKQoipWOme_14auth_framework4authNtB6_13AuthFramework28generate_totp_code_with_time0s_0B8_
FN:1445,_RNCNCNvMNtCsawKQoipWOme_14auth_framework4authNtB6_13AuthFramework29generate_totp_code_for_window00B8_
FN:1461,_RNCNCNvMNtCsawKQoipWOme_14auth_framework4authNtB6_13AuthFramework29generate_totp_code_for_window0s_0B8_
FN:2402,_RNCNvMNtCsawKQoipWOme_14auth_framework4authNtB4_13AuthFramework11assign_role0B6_
FN:2385,_RNCNvMNtCsawKQoipWOme_14auth_framework4authNtB4_13AuthFramework11create_role0B6_
FN:589,_RNCNvMNtCsawKQoipWOme_14auth_framework4authNtB4_13AuthFramework12complete_mfa0B6_
FN:2376,_RNCNvMNtCsawKQoipWOme_14auth_framework4authNtB4_13AuthFramework12health_check0B6_
FN:726,_RNCNvMNtCsawKQoipWOme_14auth_framework4authNtB4_13AuthFramework12revoke_token0B6_
FN:667,_RNCNvMNtCsawKQoipWOme_14auth_framework4authNtB4_13AuthFramework13get_user_info0B6_
FN:703,_RNCNvMNtCsawKQoipWOme_14auth_framework4authNtB4_13AuthFramework13refresh_token0B6_
FN:2476,_RNCNvMNtCsawKQoipWOme_14auth_framework4authNtB4_13AuthFramework13user_has_role0B6_
FN:746,_RNCNvMNtCsawKQoipWOme_14auth_framework4authNtB4_13AuthFramework14create_api_key0B6_
FN:1364,_RNCNvMNtCsawKQoipWOme_14auth_framework4authNtB4_13AuthFramework14register_email0B6_
FN:799,_RNCNvMNtCsawKQoipWOme_14auth_framework4authNtB4_13AuthFramework14revoke_api_key0B6_
FN:2707,_RNCNvMNtCsawKQoipWOme_14auth_framework4authNtB4_13AuthFramework15create_resource0B6_
FN:1766,_RNCNvMNtCsawKQoipWOme_14auth_framework4authNtB4_13AuthFramework15verify_mfa_code0B6_
FN:1323,_RNCNvMNtCsawKQoipWOme_14auth_framework4authNtB4_13AuthFramework15verify_sms_code0B6_
FN:692,_RNCNvMNtCsawKQoipWOme_14auth_framework4authNtB4_13AuthFramework16check_permission0B6_
FN:1718,_RNCNvMNtCsawKQoipWOme_14auth_framework4authNtB4_13AuthFramework16grant_permission0B6_
FN:920,_RNCNvMNtCsawKQoipWOme_14auth_framework4authNtB4_13AuthFramework16list_user_tokens0B6_
FN:771,_RNCNvMNtCsawKQoipWOme_14auth_framework4authNtB4_13AuthFramework16validate_api_key0B6_
FN:1486,_RNCNvMNtCsawKQoipWOme_14auth_framework4authNtB4_13AuthFramework16verify_totp_code0B6_
FN:2450,_RNCNvMNtCsawKQoipWOme_14auth_framework4authNtB4_13AuthFramework17revoke_permission0B6_
FN:1141,_RNCNvMNtCsawKQoipWOme_14auth_framework4authNtB4_13AuthFramework17validate_username0B6_
FN:2516,_RNCNvMNtCsawKQoipWOme_14auth_framework4authNtB4_13AuthFramework18create_abac_policy0B6_
FN:1427,_RNCNvMNtCsawKQoipWOme_14auth_framework4authNtB4_13AuthFramework18generate_totp_code0B6_
FN:2592,_RNCNvMNtCsawKQoipWOme_14auth_framework4authNtB4_13AuthFramework18get_user_attribute0B6_
FN:2555,_RNCNvMNtCsawKQoipWOme_14auth_framework4authNtB4_13AuthFramework18map_user_attribute0B6_
FN:1550,_RNCNvMNtCsawKQoipWOme_14auth_framework4authNtB4_13AuthFramework19check_ip_rate_limit0B6_
FN:2739,_RNCNvMNtCsawKQoipWOme_14auth_framework4authNtB4_13AuthFramework19delegate_permission0B6_
FN:2282,_RNCNvMNtCsawKQoipWOme_14auth_framework4authNtB4_13AuthFramework19synchronize_session0B6_
FN:1218,_RNCNvMNtCsawKQoipWOme_14auth_framework4authNtB4_13AuthFramework19validate_user_input0B6_
FN:1397,_RNCNvMNtCsawKQoipWOme_14auth_framework4authNtB4_13AuthFramework20generate_totp_secret0B6_
FN:1579,_RNCNvMNtCsawKQoipWOme_14auth_framework4authNtB4_13AuthFramework20get_security_metrics0B6_
FN:1749,_RNCNvMNtCsawKQoipWOme_14auth_framework4authNtB4_13AuthFramework20get_user_totp_secret0B6_
FN:2422,_RNCNvMNtCsawKQoipWOme_14auth_framework4authNtB4_13AuthFramework20set_role_inheritance0B6_
FN:1661,_RNCNvMNtCsawKQoipWOme_14auth_framework4authNtB4_13AuthFramework21generate_backup_codes0B6_
FN:1417,_RNCNvMNtCsawKQoipWOme_14auth_framework4authNtB4_13AuthFramework21generate_totp_qr_code0B6_
FN:2112,_RNCNvMNtCsawKQoipWOme_14auth_framework4authNtB4_13AuthFramework21is_valid_email_format0B6_
FN:1621,_RNCNvMNtCsawKQoipWOme_14auth_framework4authNtB4_13AuthFramework21register_phone_number0B6_
FN:1155,_RNCNvMNtCsawKQoipWOme_14auth_framework4authNtB4_13AuthFramework21validate_display_name0B6_
FN:2803,_RNCNvMNtCsawKQoipWOme_14auth_framework4authNtB4_13AuthFramework22get_active_delegations0B6_
FN:2859,_RNCNvMNtCsawKQoipWOme_14auth_framework4authNtB4_13AuthFramework22get_permission_metrics0B6_
FN:1306,_RNCNvMNtCsawKQoipWOme_14auth_framework4authNtB4_13AuthFramework22initiate_sms_challenge0B6_
FN:2227,_RNCNvMNtCsawKQoipWOme_14auth_framework4authNtB4_13AuthFramework23broadcast_session_state0B6_
FN:2369,_RNCNvMNtCsawKQoipWOme_14auth_framework4authNtB4_13AuthFramework23get_performance_metrics0B6_
FN:2620,_RNCNvMNtCsawKQoipWOme_14auth_framework4authNtB4_13AuthFramework24check_dynamic_permission0B6_
FN:2195,_RNCNvMNtCsawKQoipWOme_14auth_framework4authNtB4_13AuthFramework24estimate_remote_sessions0B6_
FN:2878,_RNCNvMNtCsawKQoipWOme_14auth_framework4authNtB4_13AuthFramework24get_security_audit_stats0B6_
FN:1738,_RNCNvMNtCsawKQoipWOme_14auth_framework4authNtB4_13AuthFramework24initiate_email_challenge0B6_
FN:2381,_RNCNvMNtCsawKQoipWOme_14auth_framework4authNtB4_13AuthFramework25export_prometheus_metrics0B6_
FN:2495,_RNCNvMNtCsawKQoipWOme_14auth_framework4authNtB4_13AuthFramework25get_effective_permissions0B6_
FN:2833,_RNCNvMNtCsawKQoipWOme_14auth_framework4authNtB4_13AuthFramework25get_permission_audit_logs0B6_
FN:2249,_RNCNvMNtCsawKQoipWOme_14auth_framework4authNtB4_13AuthFramework25resolve_session_conflicts0B6_
FN:1169,_RNCNvMNtCsawKQoipWOme_14auth_framework4authNtB4_13AuthFramework26validate_password_strength0B6_
FN:2209,_RNCNvMNtCsawKQoipWOme_14auth_framework4authNtB4_13AuthFramework27count_synchronized_sessions0B6_
FN:1898,_RNCNvMNtCsawKQoipWOme_14auth_framework4authNtB4_13AuthFramework28generate_totp_code_with_time0B6_
FN:306,_RNCNvMNtCsawKQoipWOme_14auth_framework4authNtB4_13AuthFramework28new_initialized_with_storage0B6_
FN:1436,_RNCNvMNtCsawKQoipWOme_14auth_framework4authNtB4_13AuthFramework29generate_totp_code_for_window0B6_
FN:2059,_RNCNvMNtCsawKQoipWOme_14auth_framework4authNtB4_13AuthFramework30aggregate_audit_log_statistics0B6_
FN:2161,_RNCNvMNtCsawKQoipWOme_14auth_framework4authNtB4_13AuthFramework31coordinate_distributed_sessions0B6_
FN:2402,_RNvMNtCsawKQoipWOme_14auth_framework4authNtB2_13AuthFramework11assign_role
FN:2385,_RNvMNtCsawKQoipWOme_14auth_framework4authNtB2_13AuthFramework11create_role
FN:589,_RNvMNtCsawKQoipWOme_14auth_framework4authNtB2_13AuthFramework12complete_mfa
FN:2374,_RNvMNtCsawKQoipWOme_14auth_framework4authNtB2_13AuthFramework12health_check
FN:726,_RNvMNtCsawKQoipWOme_14auth_framework4authNtB2_13AuthFramework12revoke_token
FN:667,_RNvMNtCsawKQoipWOme_14auth_framework4authNtB2_13AuthFramework13get_user_info
FN:703,_RNvMNtCsawKQoipWOme_14auth_framework4authNtB2_13AuthFramework13refresh_token
FN:2476,_RNvMNtCsawKQoipWOme_14auth_framework4authNtB2_13AuthFramework13user_has_role
FN:742,_RNvMNtCsawKQoipWOme_14auth_framework4authNtB2_13AuthFramework14create_api_key
FN:1364,_RNvMNtCsawKQoipWOme_14auth_framework4authNtB2_13AuthFramework14register_email
FN:799,_RNvMNtCsawKQoipWOme_14auth_framework4authNtB2_13AuthFramework14revoke_api_key
FN:2707,_RNvMNtCsawKQoipWOme_14auth_framework4authNtB2_13AuthFramework15create_resource
FN:2322,_RNvMNtCsawKQoipWOme_14auth_framework4authNtB2_13AuthFramework15get_instance_id
FN:288,_RNvMNtCsawKQoipWOme_14auth_framework4authNtB2_13AuthFramework15replace_storage
FN:1766,_RNvMNtCsawKQoipWOme_14auth_framework4authNtB2_13AuthFramework15verify_mfa_code
FN:1323,_RNvMNtCsawKQoipWOme_14auth_framework4authNtB2_13AuthFramework15verify_sms_code
FN:687,_RNvMNtCsawKQoipWOme_14auth_framework4authNtB2_13AuthFramework16check_permission
FN:1713,_RNvMNtCsawKQoipWOme_14auth_framework4authNtB2_13AuthFramework16grant_permission
FN:920,_RNvMNtCsawKQoipWOme_14auth_framework4authNtB2_13AuthFramework16list_user_tokens
FN:293,_RNvMNtCsawKQoipWOme_14auth_framework4authNtB2_13AuthFramework16new_with_storage
FN:771,_RNvMNtCsawKQoipWOme_14auth_framework4authNtB2_13AuthFramework16validate_api_key
FN:1486,_RNvMNtCsawKQoipWOme_14auth_framework4authNtB2_13AuthFramework16verify_totp_code
FN:2445,_RNvMNtCsawKQoipWOme_14auth_framework4authNtB2_13AuthFramework17revoke_permission
FN:1141,_RNvMNtCsawKQoipWOme_14auth_framework4authNtB2_13AuthFramework17validate_username
FN:2516,_RNvMNtCsawKQoipWOme_14auth_framework4authNtB2_13AuthFramework18create_abac_policy
FN:1427,_RNvMNtCsawKQoipWOme_14auth_framework4authNtB2_13AuthFramework18generate_totp_code
FN:2588,_RNvMNtCsawKQoipWOme_14auth_framework4authNtB2_13AuthFramework18get_user_attribute
FN:2550,_RNvMNtCsawKQoipWOme_14auth_framework4authNtB2_13AuthFramework18map_user_attribute
FN:1550,_RNvMNtCsawKQoipWOme_14auth_framework4authNtB2_13AuthFramework19check_ip_rate_limit
FN:2732,_RNvMNtCsawKQoipWOme_14auth_framework4authNtB2_13AuthFramework19delegate_permission
FN:2282,_RNvMNtCsawKQoipWOme_14auth_framework4authNtB2_13AuthFramework19synchronize_session
FN:1218,_RNvMNtCsawKQoipWOme_14auth_framework4authNtB2_13AuthFramework19validate_user_input
FN:1397,_RNvMNtCsawKQoipWOme_14auth_framework4authNtB2_13AuthFramework20generate_totp_secret
FN:1579,_RNvMNtCsawKQoipWOme_14auth_framework4authNtB2_13AuthFramework20get_security_metrics
FN:1749,_RNvMNtCsawKQoipWOme_14auth_framework4authNtB2_13AuthFramework20get_user_totp_secret
FN:2422,_RNvMNtCsawKQoipWOme_14auth_framework4authNtB2_13AuthFramework20set_role_inheritance
FN:155,_RNvMNtCsawKQoipWOme_14auth_framework4authNtB2_13AuthFramework21constant_time_compare
FN:1661,_RNvMNtCsawKQoipWOme_14auth_framework4authNtB2_13AuthFramework21generate_backup_codes
FN:1412,_RNvMNtCsawKQoipWOme_14auth_framework4authNtB2_13AuthFramework21generate_totp_qr_code
FN:2108,_RNvMNtCsawKQoipWOme_14auth_framework4authNtB2_13AuthFramework21is_valid_email_format
FN:1621,_RNvMNtCsawKQoipWOme_14auth_framework4authNtB2_13AuthFramework21register_phone_number
FN:1155,_RNvMNtCsawKQoipWOme_14auth_framework4authNtB2_13AuthFramework21validate_display_name
FN:2803,_RNvMNtCsawKQoipWOme_14auth_framework4authNtB2_13AuthFramework22get_active_delegations
FN:2364,_RNvMNtCsawKQoipWOme_14auth_framework4authNtB2_13AuthFramework22get_monitoring_manager
FN:2857,_RNvMNtCsawKQoipWOme_14auth_framework4authNtB2_13AuthFramework22get_permission_metrics
FN:1306,_RNvMNtCsawKQoipWOme_14auth_framework4authNtB2_13AuthFramework22initiate_sms_challenge
FN:2227,_RNvMNtCsawKQoipWOme_14auth_framework4authNtB2_13AuthFramework23broadcast_session_state
FN:2369,_RNvMNtCsawKQoipWOme_14auth_framework4authNtB2_13AuthFramework23get_performance_metrics
FN:2614,_RNvMNtCsawKQoipWOme_14auth_framework4authNtB2_13AuthFramework24check_dynamic_permission
FN:2195,_RNvMNtCsawKQoipWOme_14auth_framework4authNtB2_13AuthFramework24estimate_remote_sessions
FN:2878,_RNvMNtCsawKQoipWOme_14auth_framework4authNtB2_13AuthFramework24get_security_audit_stats
FN:1738,_RNvMNtCsawKQoipWOme_14auth_framework4authNtB2_13AuthFramework24initiate_email_challenge
FN:2381,_RNvMNtCsawKQoipWOme_14auth_framework4authNtB2_13AuthFramework25export_prometheus_metrics
FN:2495,_RNvMNtCsawKQoipWOme_14auth_framework4authNtB2_13AuthFramework25get_effective_permissions
FN:2827,_RNvMNtCsawKQoipWOme_14auth_framework4authNtB2_13AuthFramework25get_permission_audit_logs
FN:2249,_RNvMNtCsawKQoipWOme_14auth_framework4authNtB2_13AuthFramework25resolve_session_conflicts
FN:1169,_RNvMNtCsawKQoipWOme_14auth_framework4authNtB2_13AuthFramework26validate_password_strength
FN:2209,_RNvMNtCsawKQoipWOme_14auth_framework4authNtB2_13AuthFramework27count_synchronized_sessions
FN:1894,_RNvMNtCsawKQoipWOme_14auth_framework4authNtB2_13AuthFramework28generate_totp_code_with_time
FN:303,_RNvMNtCsawKQoipWOme_14auth_framework4authNtB2_13AuthFramework28new_initialized_with_storage
FN:1432,_RNvMNtCsawKQoipWOme_14auth_framework4authNtB2_13AuthFramework29generate_totp_code_for_window
FN:2059,_RNvMNtCsawKQoipWOme_14auth_framework4authNtB2_13AuthFramework30aggregate_audit_log_statistics
FN:2161,_RNvMNtCsawKQoipWOme_14auth_framework4authNtB2_13AuthFramework31coordinate_distributed_sessions
FN:2992,_RNvMs_NtCsawKQoipWOme_14auth_framework4authNtB4_18SecurityAuditStats14security_score
FN:3098,_RNvMs_NtCsawKQoipWOme_14auth_framework4authNtB4_18SecurityAuditStats22security_alert_message
FN:3053,_RNvMs_NtCsawKQoipWOme_14auth_framework4authNtB4_18SecurityAuditStats28requires_immediate_attention
FN:335,_RNvMNtCsawKQoipWOme_14auth_framework4authNtB2_13AuthFramework10initialize
FN:891,_RNvMNtCsawKQoipWOme_14auth_framework4authNtB2_13AuthFramework11get_session
FN:429,_RNvMNtCsawKQoipWOme_14auth_framework4authNtB2_13AuthFramework12authenticate
FN:204,_RNvMNtCsawKQoipWOme_14auth_framework4authNtB2_13AuthFramework13new_validated
FN:1136,_RNvMNtCsawKQoipWOme_14auth_framework4authNtB2_13AuthFramework13token_manager
FN:817,_RNvMNtCsawKQoipWOme_14auth_framework4authNtB2_13AuthFramework14create_session
FN:900,_RNvMNtCsawKQoipWOme_14auth_framework4authNtB2_13AuthFramework14delete_session
FN:631,_RNvMNtCsawKQoipWOme_14auth_framework4authNtB2_13AuthFramework14validate_token
FN:1932,_RNvMNtCsawKQoipWOme_14auth_framework4authNtB2_13AuthFramework15log_audit_event
FN:2942,_RNvMNtCsawKQoipWOme_14auth_framework4authNtB2_13AuthFramework16get_user_profile
FN:925,_RNvMNtCsawKQoipWOme_14auth_framework4authNtB2_13AuthFramework20cleanup_expired_data
FN:490,_RNvMNtCsawKQoipWOme_14auth_framework4authNtB2_13AuthFramework21authenticate_internal
FN:2003,_RNvMNtCsawKQoipWOme_14auth_framework4authNtB2_13AuthFramework24estimate_failed_attempts
FN:957,_RNvMNtCsawKQoipWOme_14auth_framework4authNtB2_13AuthFramework25is_production_environment
FN:439,_RNvMNtCsawKQoipWOme_14auth_framework4authNtB2_13AuthFramework26authenticate_with_metadata
FN:2047,_RNvMNtCsawKQoipWOme_14auth_framework4authNtB2_13AuthFramework27query_audit_events_fallback
FN:2093,_RNvMNtCsawKQoipWOme_14auth_framework4authNtB2_13AuthFramework28estimate_successful_attempts
FN:1963,_RNvMNtCsawKQoipWOme_14auth_framework4authNtB2_13AuthFramework34get_failed_attempts_from_audit_log
FN:2020,_RNvMNtCsawKQoipWOme_14auth_framework4authNtB2_13AuthFramework36query_audit_logs_for_failed_attempts
FN:1988,_RNvMNtCsawKQoipWOme_14auth_framework4authNtB2_13AuthFramework38get_successful_attempts_from_audit_log
FN:172,_RNvMNtCsawKQoipWOme_14auth_framework4authNtB2_13AuthFramework3new
FN:997,_RNvMNtCsawKQoipWOme_14auth_framework4authNtB2_13AuthFramework9get_stats
FN:3212,_RNvNtNtCsawKQoipWOme_14auth_framework4auth5testss_21test_token_validation
FN:3239,_RNvNtNtCsawKQoipWOme_14auth_framework4auth5testss_23test_session_management
FN:3186,_RNvNtNtCsawKQoipWOme_14auth_framework4auth5testss_24test_method_registration
FN:3273,_RNvNtNtCsawKQoipWOme_14auth_framework4auth5testss_25test_cleanup_expired_data
FN:3167,_RNvNtNtCsawKQoipWOme_14auth_framework4auth5testss_29test_framework_initialization
FN:313,_RINvMNtCscyNIIr1ochp_14auth_framework4authNtB3_13AuthFramework15register_methodReECs4Jvm7VElnFg_23comprehensive_api_tests
FN:1248,_RINvMNtCscyNIIr1ochp_14auth_framework4authNtB3_13AuthFramework17create_auth_tokenReB1h_ECs4Jvm7VElnFg_23comprehensive_api_tests
FN:1254,_RNCINvMNtCscyNIIr1ochp_14auth_framework4authNtB5_13AuthFramework17create_auth_tokenReB1j_E0Cs4Jvm7VElnFg_23comprehensive_api_tests
FN:1262,_RNCNCINvMNtCscyNIIr1ochp_14auth_framework4authNtB7_13AuthFramework17create_auth_tokenReB1l_E00Cs4Jvm7VElnFg_23comprehensive_api_tests
FN:343,_RNCNCNvMNtCscyNIIr1ochp_14auth_framework4authNtB6_13AuthFramework10initialize00Cs4Jvm7VElnFg_23comprehensive_api_tests
FN:1345,_RNCNCNvMNtCscyNIIr1ochp_14auth_framework4authNtB6_13AuthFramework15verify_sms_code00Cs4Jvm7VElnFg_23comprehensive_api_tests
FN:779,_RNCNCNvMNtCscyNIIr1ochp_14auth_framework4authNtB6_13AuthFramework16validate_api_key00Cs4Jvm7VElnFg_23comprehensive_api_tests
FN:1149,_RNCNCNvMNtCscyNIIr1ochp_14auth_framework4authNtB6_13AuthFramework17validate_username00Cs4Jvm7VElnFg_23comprehensive_api_tests
FN:935,_RNCNCNvMNtCscyNIIr1ochp_14auth_framework4authNtB6_13AuthFramework20cleanup_expired_data00Cs4Jvm7VElnFg_23comprehensive_api_tests
FN:942,_RNCNCNvMNtCscyNIIr1ochp_14auth_framework4authNtB6_13AuthFramework20cleanup_expired_data0s_0Cs4Jvm7VElnFg_23comprehensive_api_tests
FN:1599,_RNCNCNvMNtCscyNIIr1ochp_14auth_framework4authNtB6_13AuthFramework20get_security_metrics00Cs4Jvm7VElnFg_23comprehensive_api_tests
FN:1603,_RNCNCNvMNtCscyNIIr1ochp_14auth_framework4authNtB6_13AuthFramework20get_security_metrics0s_0Cs4Jvm7VElnFg_23comprehensive_api_tests
FN:335,_RNCNvMNtCscyNIIr1ochp_14auth_framework4authNtB4_13AuthFramework10initialize0Cs4Jvm7VElnFg_23comprehensive_api_tests
FN:891,_RNCNvMNtCscyNIIr1ochp_14auth_framework4authNtB4_13AuthFramework11get_session0Cs4Jvm7VElnFg_23comprehensive_api_tests
FN:900,_RNCNvMNtCscyNIIr1ochp_14auth_framework4authNtB4_13AuthFramework14delete_session0Cs4Jvm7VElnFg_23comprehensive_api_tests
FN:1364,_RNCNvMNtCscyNIIr1ochp_14auth_framework4authNtB4_13AuthFramework14register_email0Cs4Jvm7VElnFg_23comprehensive_api_tests
FN:631,_RNCNvMNtCscyNIIr1ochp_14auth_framework4authNtB4_13AuthFramework14validate_token0Cs4Jvm7VElnFg_23comprehensive_api_tests
FN:1323,_RNCNvMNtCscyNIIr1ochp_14auth_framework4authNtB4_13AuthFramework15verify_sms_code0Cs4Jvm7VElnFg_23comprehensive_api_tests
FN:920,_RNCNvMNtCscyNIIr1ochp_14auth_framework4authNtB4_13AuthFramework16list_user_tokens0Cs4Jvm7VElnFg_23comprehensive_api_tests
FN:771,_RNCNvMNtCscyNIIr1ochp_14auth_framework4authNtB4_13AuthFramework16validate_api_key0Cs4Jvm7VElnFg_23comprehensive_api_tests
FN:1141,_RNCNvMNtCscyNIIr1ochp_14auth_framework4authNtB4_13AuthFramework17validate_username0Cs4Jvm7VElnFg_23comprehensive_api_tests
FN:1550,_RNCNvMNtCscyNIIr1ochp_14auth_framework4authNtB4_13AuthFramework19check_ip_rate_limit0Cs4Jvm7VElnFg_23comprehensive_api_tests
FN:1218,_RNCNvMNtCscyNIIr1ochp_14auth_framework4authNtB4_13AuthFramework19validate_user_input0Cs4Jvm7VElnFg_23comprehensive_api_tests
FN:925,_RNCNvMNtCscyNIIr1ochp_14auth_framework4authNtB4_13AuthFramework20cleanup_expired_data0Cs4Jvm7VElnFg_23comprehensive_api_tests
FN:1579,_RNCNvMNtCscyNIIr1ochp_14auth_framework4authNtB4_13AuthFramework20get_security_metrics0Cs4Jvm7VElnFg_23comprehensive_api_tests
FN:1155,_RNCNvMNtCscyNIIr1ochp_14auth_framework4authNtB4_13AuthFramework21validate_display_name0Cs4Jvm7VElnFg_23comprehensive_api_tests
FN:1306,_RNCNvMNtCscyNIIr1ochp_14auth_framework4authNtB4_13AuthFramework22initiate_sms_challenge0Cs4Jvm7VElnFg_23comprehensive_api_tests
FN:1738,_RNCNvMNtCscyNIIr1ochp_14auth_framework4authNtB4_13AuthFramework24initiate_email_challenge0Cs4Jvm7VElnFg_23comprehensive_api_tests
FN:2059,_RNCNvMNtCscyNIIr1ochp_14auth_framework4authNtB4_13AuthFramework30aggregate_audit_log_statistics0Cs4Jvm7VElnFg_23comprehensive_api_tests
FN:335,_RNvMNtCscyNIIr1ochp_14auth_framework4authNtB2_13AuthFramework10initialize
FN:2402,_RNvMNtCscyNIIr1ochp_14auth_framework4authNtB2_13AuthFramework11assign_role
FN:2385,_RNvMNtCscyNIIr1ochp_14auth_framework4authNtB2_13AuthFramework11create_role
FN:891,_RNvMNtCscyNIIr1ochp_14auth_framework4authNtB2_13AuthFramework11get_session
FN:429,_RNvMNtCscyNIIr1ochp_14auth_framework4authNtB2_13AuthFramework12authenticate
FN:589,_RNvMNtCscyNIIr1ochp_14auth_framework4authNtB2_13AuthFramework12complete_mfa
FN:2374,_RNvMNtCscyNIIr1ochp_14auth_framework4authNtB2_13AuthFramework12health_check
FN:726,_RNvMNtCscyNIIr1ochp_14auth_framework4authNtB2_13AuthFramework12revoke_token
FN:667,_RNvMNtCscyNIIr1ochp_14auth_framework4authNtB2_13AuthFramework13get_user_info
FN:204,_RNvMNtCscyNIIr1ochp_14auth_framework4authNtB2_13AuthFramework13new_validated
FN:703,_RNvMNtCscyNIIr1ochp_14auth_framework4authNtB2_13AuthFramework13refresh_token
FN:1136,_RNvMNtCscyNIIr1ochp_14auth_framework4authNtB2_13AuthFramework13token_manager
FN:2476,_RNvMNtCscyNIIr1ochp_14auth_framework4authNtB2_13AuthFramework13user_has_role
FN:742,_RNvMNtCscyNIIr1ochp_14auth_framework4authNtB2_13AuthFramework14create_api_key
FN:817,_RNvMNtCscyNIIr1ochp_14auth_framework4authNtB2_13AuthFramework14create_session
FN:900,_RNvMNtCscyNIIr1ochp_14auth_framework4authNtB2_13AuthFramework14delete_session
FN:1364,_RNvMNtCscyNIIr1ochp_14auth_framework4authNtB2_13AuthFramework14register_email
FN:799,_RNvMNtCscyNIIr1ochp_14auth_framework4authNtB2_13AuthFramework14revoke_api_key
FN:631,_RNvMNtCscyNIIr1ochp_14auth_framework4authNtB2_13AuthFramework14validate_token
FN:2707,_RNvMNtCscyNIIr1ochp_14auth_framework4authNtB2_13AuthFramework15create_resource
FN:2322,_RNvMNtCscyNIIr1ochp_14auth_framework4authNtB2_13AuthFramework15get_instance_id
FN:1932,_RNvMNtCscyNIIr1ochp_14auth_framework4authNtB2_13AuthFramework15log_audit_event
FN:288,_RNvMNtCscyNIIr1ochp_14auth_framework4authNtB2_13AuthFramework15replace_storage
FN:1766,_RNvMNtCscyNIIr1ochp_14auth_framework4authNtB2_13AuthFramework15verify_mfa_code
FN:1323,_RNvMNtCscyNIIr1ochp_14auth_framework4authNtB2_13AuthFramework15verify_sms_code
FN:687,_RNvMNtCscyNIIr1ochp_14auth_framework4authNtB2_13AuthFramework16check_permission
FN:2942,_RNvMNtCscyNIIr1ochp_14auth_framework4authNtB2_13AuthFramework16get_user_profile
FN:1713,_RNvMNtCscyNIIr1ochp_14auth_framework4authNtB2_13AuthFramework16grant_permission
FN:920,_RNvMNtCscyNIIr1ochp_14auth_framework4authNtB2_13AuthFramework16list_user_tokens
FN:293,_RNvMNtCscyNIIr1ochp_14auth_framework4authNtB2_13AuthFramework16new_with_storage
FN:771,_RNvMNtCscyNIIr1ochp_14auth_framework4authNtB2_13AuthFramework16validate_api_key
FN:1486,_RNvMNtCscyNIIr1ochp_14auth_framework4authNtB2_13AuthFramework16verify_totp_code
FN:2445,_RNvMNtCscyNIIr1ochp_14auth_framework4authNtB2_13AuthFramework17revoke_permission
FN:1141,_RNvMNtCscyNIIr1ochp_14auth_framework4authNtB2_13AuthFramework17validate_username
FN:2516,_RNvMNtCscyNIIr1ochp_14auth_framework4authNtB2_13AuthFramework18create_abac_policy
FN:1427,_RNvMNtCscyNIIr1ochp_14auth_framework4authNtB2_13AuthFramework18generate_totp_code
FN:2588,_RNvMNtCscyNIIr1ochp_14auth_framework4authNtB2_13AuthFramework18get_user_attribute
FN:2550,_RNvMNtCscyNIIr1ochp_14auth_framework4authNtB2_13AuthFramework18map_user_attribute
FN:1550,_RNvMNtCscyNIIr1ochp_14auth_framework4authNtB2_13AuthFramework19check_ip_rate_limit
FN:2732,_RNvMNtCscyNIIr1ochp_14auth_framework4authNtB2_13AuthFramework19delegate_permission
FN:2282,_RNvMNtCscyNIIr1ochp_14auth_framework4authNtB2_13AuthFramework19synchronize_session
FN:1218,_RNvMNtCscyNIIr1ochp_14auth_framework4authNtB2_13AuthFramework19validate_user_input
FN:925,_RNvMNtCscyNIIr1ochp_14auth_framework4authNtB2_13AuthFramework20cleanup_expired_data
FN:1397,_RNvMNtCscyNIIr1ochp_14auth_framework4authNtB2_13AuthFramework20generate_totp_secret
FN:1579,_RNvMNtCscyNIIr1ochp_14auth_framework4authNtB2_13AuthFramework20get_security_metrics
FN:1749,_RNvMNtCscyNIIr1ochp_14auth_framework4authNtB2_13AuthFramework20get_user_totp_secret
FN:2422,_RNvMNtCscyNIIr1ochp_14auth_framework4authNtB2_13AuthFramework20set_role_inheritance
FN:490,_RNvMNtCscyNIIr1ochp_14auth_framework4authNtB2_13AuthFramework21authenticate_internal
FN:155,_RNvMNtCscyNIIr1ochp_14auth_framework4authNtB2_13AuthFramework21constant_time_compare
FN:1661,_RNvMNtCscyNIIr1ochp_14auth_framework4authNtB2_13AuthFramework21generate_backup_codes
FN:1412,_RNvMNtCscyNIIr1ochp_14auth_framework4authNtB2_13AuthFramework21generate_totp_qr_code
FN:2108,_RNvMNtCscyNIIr1ochp_14auth_framework4authNtB2_13AuthFramework21is_valid_email_format
FN:1621,_RNvMNtCscyNIIr1ochp_14auth_framework4authNtB2_13AuthFramework21register_phone_number
FN:1155,_RNvMNtCscyNIIr1ochp_14auth_framework4authNtB2_13AuthFramework21validate_display_name
FN:2803,_RNvMNtCscyNIIr1ochp_14auth_framework4authNtB2_13AuthFramework22get_active_delegations
FN:2364,_RNvMNtCscyNIIr1ochp_14auth_framework4authNtB2_13AuthFramework22get_monitoring_manager
FN:2857,_RNvMNtCscyNIIr1ochp_14auth_framework4authNtB2_13AuthFramework22get_permission_metrics
FN:1306,_RNvMNtCscyNIIr1ochp_14auth_framework4authNtB2_13AuthFramework22initiate_sms_challenge
FN:2227,_RNvMNtCscyNIIr1ochp_14auth_framework4authNtB2_13AuthFramework23broadcast_session_state
FN:2369,_RNvMNtCscyNIIr1ochp_14auth_framework4authNtB2_13AuthFramework23get_performance_metrics
FN:2614,_RNvMNtCscyNIIr1ochp_14auth_framework4authNtB2_13AuthFramework24check_dynamic_permission
FN:2003,_RNvMNtCscyNIIr1ochp_14auth_framework4authNtB2_13AuthFramework24estimate_failed_attempts
FN:2195,_RNvMNtCscyNIIr1ochp_14auth_framework4authNtB2_13AuthFramework24estimate_remote_sessions
FN:2878,_RNvMNtCscyNIIr1ochp_14auth_framework4authNtB2_13AuthFramework24get_security_audit_stats
FN:1738,_RNvMNtCscyNIIr1ochp_14auth_framework4authNtB2_13AuthFramework24initiate_email_challenge
FN:2381,_RNvMNtCscyNIIr1ochp_14auth_framework4authNtB2_13AuthFramework25export_prometheus_metrics
FN:2495,_RNvMNtCscyNIIr1ochp_14auth_framework4authNtB2_13AuthFramework25get_effective_permissions
FN:2827,_RNvMNtCscyNIIr1ochp_14auth_framework4authNtB2_13AuthFramework25get_permission_audit_logs
FN:957,_RNvMNtCscyNIIr1ochp_14auth_framework4authNtB2_13AuthFramework25is_production_environment
FN:2249,_RNvMNtCscyNIIr1ochp_14auth_framework4authNtB2_13AuthFramework25resolve_session_conflicts
FN:439,_RNvMNtCscyNIIr1ochp_14auth_framework4authNtB2_13AuthFramework26authenticate_with_metadata
FN:1169,_RNvMNtCscyNIIr1ochp_14auth_framework4authNtB2_13AuthFramework26validate_password_strength
FN:2209,_RNvMNtCscyNIIr1ochp_14auth_framework4authNtB2_13AuthFramework27count_synchronized_sessions
FN:2047,_RNvMNtCscyNIIr1ochp_14auth_framework4authNtB2_13AuthFramework27query_audit_events_fallback
FN:2093,_RNvMNtCscyNIIr1ochp_14auth_framework4authNtB2_13AuthFramework28estimate_successful_attempts
FN:1894,_RNvMNtCscyNIIr1ochp_14auth_framework4authNtB2_13AuthFramework28generate_totp_code_with_time
FN:303,_RNvMNtCscyNIIr1ochp_14auth_framework4authNtB2_13AuthFramework28new_initialized_with_storage
FN:1432,_RNvMNtCscyNIIr1ochp_14auth_framework4authNtB2_13AuthFramework29generate_totp_code_for_window
FN:2059,_RNvMNtCscyNIIr1ochp_14auth_framework4authNtB2_13AuthFramework30aggregate_audit_log_statistics
FN:2161,_RNvMNtCscyNIIr1ochp_14auth_framework4authNtB2_13AuthFramework31coordinate_distributed_sessions
FN:1963,_RNvMNtCscyNIIr1ochp_14auth_framework4authNtB2_13AuthFramework34get_failed_attempts_from_audit_log
FN:2020,_RNvMNtCscyNIIr1ochp_14auth_framework4authNtB2_13AuthFramework36query_audit_logs_for_failed_attempts
FN:1988,_RNvMNtCscyNIIr1ochp_14auth_framework4authNtB2_13AuthFramework38get_successful_attempts_from_audit_log
FN:172,_RNvMNtCscyNIIr1ochp_14auth_framework4authNtB2_13AuthFramework3new
FN:997,_RNvMNtCscyNIIr1ochp_14auth_framework4authNtB2_13AuthFramework9get_stats
FN:2992,_RNvMs_NtCscyNIIr1ochp_14auth_framework4authNtB4_18SecurityAuditStats14security_score
FN:3098,_RNvMs_NtCscyNIIr1ochp_14auth_framework4authNtB4_18SecurityAuditStats22security_alert_message
FN:3053,_RNvMs_NtCscyNIIr1ochp_14auth_framework4authNtB4_18SecurityAuditStats28requires_immediate_attention
FN:514,_RNCNCNvMNtCscyNIIr1ochp_14auth_framework4authNtB6_13AuthFramework21authenticate_internal00B8_
FN:1025,_RNCNCNvMNtCscyNIIr1ochp_14auth_framework4authNtB6_13AuthFramework9get_stats00B8_
FN:433,_RNCNvMNtCscyNIIr1ochp_14auth_framework4authNtB4_13AuthFramework12authenticate0B6_
FN:206,_RNCNvMNtCscyNIIr1ochp_14auth_framework4authNtB4_13AuthFramework13new_validated0B6_
FN:1938,_RNCNvMNtCscyNIIr1ochp_14auth_framework4authNtB4_13AuthFramework15log_audit_event0B6_
FN:2942,_RNCNvMNtCscyNIIr1ochp_14auth_framework4authNtB4_13AuthFramework16get_user_profile0B6_
FN:495,_RNCNvMNtCscyNIIr1ochp_14auth_framework4authNtB4_13AuthFramework21authenticate_internal0B6_
FN:2112,_RNCNvMNtCscyNIIr1ochp_14auth_framework4authNtB4_13AuthFramework21is_valid_email_format0B6_
FN:2003,_RNCNvMNtCscyNIIr1ochp_14auth_framework4authNtB4_13AuthFramework24estimate_failed_attempts0B6_
FN:444,_RNCNvMNtCscyNIIr1ochp_14auth_framework4authNtB4_13AuthFramework26authenticate_with_metadata0B6_
FN:2047,_RNCNvMNtCscyNIIr1ochp_14auth_framework4authNtB4_13AuthFramework27query_audit_events_fallback0B6_
FN:2093,_RNCNvMNtCscyNIIr1ochp_14auth_framework4authNtB4_13AuthFramework28estimate_successful_attempts0B6_
FN:1963,_RNCNvMNtCscyNIIr1ochp_14auth_framework4authNtB4_13AuthFramework34get_failed_attempts_from_audit_log0B6_
FN:2020,_RNCNvMNtCscyNIIr1ochp_14auth_framework4authNtB4_13AuthFramework36query_audit_logs_for_failed_attempts0B6_
FN:1988,_RNCNvMNtCscyNIIr1ochp_14auth_framework4authNtB4_13AuthFramework38get_successful_attempts_from_audit_log0B6_
FN:997,_RNCNvMNtCscyNIIr1ochp_14auth_framework4authNtB4_13AuthFramework9get_stats0B6_
FN:313,_RINvMNtCscyNIIr1ochp_14auth_framework4authNtB3_13AuthFramework15register_methodpEB5_
FN:1248,_RINvMNtCscyNIIr1ochp_14auth_framework4authNtB3_13AuthFramework17create_auth_tokenppEB5_
FN:1254,_RNCINvMNtCscyNIIr1ochp_14auth_framework4authNtB5_13AuthFramework17create_auth_tokenppE0B7_
FN:1262,_RNCNCINvMNtCscyNIIr1ochp_14auth_framework4authNtB7_13AuthFramework17create_auth_tokenppE00B9_
FN:1448,_RNCNCNCNvMNtCscyNIIr1ochp_14auth_framework4authNtB8_13AuthFramework29generate_totp_code_for_window000Ba_
FN:343,_RNCNCNvMNtCscyNIIr1ochp_14auth_framework4authNtB6_13AuthFramework10initialize00B8_
FN:677,_RNCNCNvMNtCscyNIIr1ochp_14auth_framework4authNtB6_13AuthFramework13get_user_info00B8_
FN:807,_RNCNCNvMNtCscyNIIr1ochp_14auth_framework4authNtB6_13AuthFramework14revoke_api_key00B8_
FN:2724,_RNCNCNvMNtCscyNIIr1ochp_14auth_framework4authNtB6_13AuthFramework15create_resource00B8_
FN:1776,_RNCNCNvMNtCscyNIIr1ochp_14auth_framework4authNtB6_13AuthFramework15verify_mfa_code00B8_
FN:1823,_RNCNCNvMNtCscyNIIr1ochp_14auth_framework4authNtB6_13AuthFramework15verify_mfa_code0s0_0B8_
FN:1840,_RNCNCNvMNtCscyNIIr1ochp_14auth_framework4authNtB6_13AuthFramework15verify_mfa_code0s1_0B8_
FN:1786,_RNCNCNvMNtCscyNIIr1ochp_14auth_framework4authNtB6_13AuthFramework15verify_mfa_code0s_0B8_
FN:1345,_RNCNCNvMNtCscyNIIr1ochp_14auth_framework4authNtB6_13AuthFramework15verify_sms_code00B8_
FN:779,_RNCNCNvMNtCscyNIIr1ochp_14auth_framework4authNtB6_13AuthFramework16validate_api_key00B8_
FN:1490,_RNCNCNvMNtCscyNIIr1ochp_14auth_framework4authNtB6_13AuthFramework16verify_totp_code00B8_
FN:1506,_RNCNCNvMNtCscyNIIr1ochp_14auth_framework4authNtB6_13AuthFramework16verify_totp_code0s_0B8_
FN:1149,_RNCNCNvMNtCscyNIIr1ochp_14auth_framework4authNtB6_13AuthFramework17validate_username00B8_
FN:2539,_RNCNCNvMNtCscyNIIr1ochp_14auth_framework4authNtB6_13AuthFramework18create_abac_policy00B8_
FN:2580,_RNCNCNvMNtCscyNIIr1ochp_14auth_framework4authNtB6_13AuthFramework18map_user_attribute00B8_
FN:2790,_RNCNCNvMNtCscyNIIr1ochp_14auth_framework4authNtB6_13AuthFramework19delegate_permission00B8_
FN:2780,_RNCNCNvMNtCscyNIIr1ochp_14auth_framework4authNtB6_13AuthFramework19delegate_permission0s0_0B8_
FN:935,_RNCNCNvMNtCscyNIIr1ochp_14auth_framework4authNtB6_13AuthFramework20cleanup_expired_data00B8_
FN:942,_RNCNCNvMNtCscyNIIr1ochp_14auth_framework4authNtB6_13AuthFramework20cleanup_expired_data0s_0B8_
FN:1599,_RNCNCNvMNtCscyNIIr1ochp_14auth_framework4authNtB6_13AuthFramework20get_security_metrics00B8_
FN:1603,_RNCNCNvMNtCscyNIIr1ochp_14auth_framework4authNtB6_13AuthFramework20get_security_metrics0s_0B8_
FN:1673,_RNCNCNvMNtCscyNIIr1ochp_14auth_framework4authNtB6_13AuthFramework21generate_backup_codes00B8_
FN:1695,_RNCNCNvMNtCscyNIIr1ochp_14auth_framework4authNtB6_13AuthFramework21generate_backup_codes0s_0B8_
FN:1640,_RNCNCNvMNtCscyNIIr1ochp_14auth_framework4authNtB6_13AuthFramework21register_phone_number00B8_
FN:2215,_RNCNCNvMNtCscyNIIr1ochp_14auth_framework4authNtB6_13AuthFramework27count_synchronized_sessions00B8_
FN:1907,_RNCNCNvMNtCscyNIIr1ochp_14auth_framework4authNtB6_13AuthFramework28generate_totp_code_with_time00B8_
FN:1914,_RNCNCNvMNtCscyNIIr1ochp_14auth_framework4authNtB6_13AuthFramework28generate_totp_code_with_time0s_0B8_
FN:1445,_RNCNCNvMNtCscyNIIr1ochp_14auth_framework4authNtB6_13AuthFramework29generate_totp_code_for_window00B8_
FN:1461,_RNCNCNvMNtCscyNIIr1ochp_14auth_framework4authNtB6_13AuthFramework29generate_totp_code_for_window0s_0B8_
FN:335,_RNCNvMNtCscyNIIr1ochp_14auth_framework4authNtB4_13AuthFramework10initialize0B6_
FN:2402,_RNCNvMNtCscyNIIr1ochp_14auth_framework4authNtB4_13AuthFramework11assign_role0B6_
FN:2385,_RNCNvMNtCscyNIIr1ochp_14auth_framework4authNtB4_13AuthFramework11create_role0B6_
FN:891,_RNCNvMNtCscyNIIr1ochp_14auth_framework4authNtB4_13AuthFramework11get_session0B6_
FN:589,_RNCNvMNtCscyNIIr1ochp_14auth_framework4authNtB4_13AuthFramework12complete_mfa0B6_
FN:2376,_RNCNvMNtCscyNIIr1ochp_14auth_framework4authNtB4_13AuthFramework12health_check0B6_
FN:726,_RNCNvMNtCscyNIIr1ochp_14auth_framework4authNtB4_13AuthFramework12revoke_token0B6_
FN:667,_RNCNvMNtCscyNIIr1ochp_14auth_framework4authNtB4_13AuthFramework13get_user_info0B6_
FN:703,_RNCNvMNtCscyNIIr1ochp_14auth_framework4authNtB4_13AuthFramework13refresh_token0B6_
FN:2476,_RNCNvMNtCscyNIIr1ochp_14auth_framework4authNtB4_13AuthFramework13user_has_role0B6_
FN:746,_RNCNvMNtCscyNIIr1ochp_14auth_framework4authNtB4_13AuthFramework14create_api_key0B6_
FN:823,_RNCNvMNtCscyNIIr1ochp_14auth_framework4authNtB4_13AuthFramework14create_session0B6_
FN:900,_RNCNvMNtCscyNIIr1ochp_14auth_framework4authNtB4_13AuthFramework14delete_session0B6_
FN:1364,_RNCNvMNtCscyNIIr1ochp_14auth_framework4authNtB4_13AuthFramework14register_email0B6_
FN:799,_RNCNvMNtCscyNIIr1ochp_14auth_framework4authNtB4_13AuthFramework14revoke_api_key0B6_
FN:631,_RNCNvMNtCscyNIIr1ochp_14auth_framework4authNtB4_13AuthFramework14validate_token0B6_
FN:2707,_RNCNvMNtCscyNIIr1ochp_14auth_framework4authNtB4_13AuthFramework15create_resource0B6_
FN:1766,_RNCNvMNtCscyNIIr1ochp_14auth_framework4authNtB4_13AuthFramework15verify_mfa_code0B6_
FN:1323,_RNCNvMNtCscyNIIr1ochp_14auth_framework4authNtB4_13AuthFramework15verify_sms_code0B6_
FN:692,_RNCNvMNtCscyNIIr1ochp_14auth_framework4authNtB4_13AuthFramework16check_permission0B6_
FN:1718,_RNCNvMNtCscyNIIr1ochp_14auth_framework4authNtB4_13AuthFramework16grant_permission0B6_
FN:920,_RNCNvMNtCscyNIIr1ochp_14auth_framework4authNtB4_13AuthFramework16list_user_tokens0B6_
FN:771,_RNCNvMNtCscyNIIr1ochp_14auth_framework4authNtB4_13AuthFramework16validate_api_key0B6_
FN:1486,_RNCNvMNtCscyNIIr1ochp_14auth_framework4authNtB4_13AuthFramework16verify_totp_code0B6_
FN:2450,_RNCNvMNtCscyNIIr1ochp_14auth_framework4authNtB4_13AuthFramework17revoke_permission0B6_
FN:1141,_RNCNvMNtCscyNIIr1ochp_14auth_framework4authNtB4_13AuthFramework17validate_username0B6_
FN:2516,_RNCNvMNtCscyNIIr1ochp_14auth_framework4authNtB4_13AuthFramework18create_abac_policy0B6_
FN:1427,_RNCNvMNtCscyNIIr1ochp_14auth_framework4authNtB4_13AuthFramework18generate_totp_code0B6_
FN:2592,_RNCNvMNtCscyNIIr1ochp_14auth_framework4authNtB4_13AuthFramework18get_user_attribute0B6_
FN:2555,_RNCNvMNtCscyNIIr1ochp_14auth_framework4authNtB4_13AuthFramework18map_user_attribute0B6_
FN:1550,_RNCNvMNtCscyNIIr1ochp_14auth_framework4authNtB4_13AuthFramework19check_ip_rate_limit0B6_
FN:2739,_RNCNvMNtCscyNIIr1ochp_14auth_framework4authNtB4_13AuthFramework19delegate_permission0B6_
FN:2282,_RNCNvMNtCscyNIIr1ochp_14auth_framework4authNtB4_13AuthFramework19synchronize_session0B6_
FN:1218,_RNCNvMNtCscyNIIr1ochp_14auth_framework4authNtB4_13AuthFramework19validate_user_input0B6_
FN:925,_RNCNvMNtCscyNIIr1ochp_14auth_framework4authNtB4_13AuthFramework20cleanup_expired_data0B6_
FN:1397,_RNCNvMNtCscyNIIr1ochp_14auth_framework4authNtB4_13AuthFramework20generate_totp_secret0B6_
FN:1579,_RNCNvMNtCscyNIIr1ochp_14auth_framework4authNtB4_13AuthFramework20get_security_metrics0B6_
FN:1749,_RNCNvMNtCscyNIIr1ochp_14auth_framework4authNtB4_13AuthFramework20get_user_totp_secret0B6_
FN:2422,_RNCNvMNtCscyNIIr1ochp_14auth_framework4authNtB4_13AuthFramework20set_role_inheritance0B6_
FN:1661,_RNCNvMNtCscyNIIr1ochp_14auth_framework4authNtB4_13AuthFramework21generate_backup_codes0B6_
FN:1417,_RNCNvMNtCscyNIIr1ochp_14auth_framework4authNtB4_13AuthFramework21generate_totp_qr_code0B6_
FN:1621,_RNCNvMNtCscyNIIr1ochp_14auth_framework4authNtB4_13AuthFramework21register_phone_number0B6_
FN:1155,_RNCNvMNtCscyNIIr1ochp_14auth_framework4authNtB4_13AuthFramework21validate_display_name0B6_
FN:2803,_RNCNvMNtCscyNIIr1ochp_14auth_framework4authNtB4_13AuthFramework22get_active_delegations0B6_
FN:2859,_RNCNvMNtCscyNIIr1ochp_14auth_framework4authNtB4_13AuthFramework22get_permission_metrics0B6_
FN:1306,_RNCNvMNtCscyNIIr1ochp_14auth_framework4authNtB4_13AuthFramework22initiate_sms_challenge0B6_
FN:2227,_RNCNvMNtCscyNIIr1ochp_14auth_framework4authNtB4_13AuthFramework23broadcast_session_state0B6_
FN:2369,_RNCNvMNtCscyNIIr1ochp_14auth_framework4authNtB4_13AuthFramework23get_performance_metrics0B6_
FN:2620,_RNCNvMNtCscyNIIr1ochp_14auth_framework4authNtB4_13AuthFramework24check_dynamic_permission0B6_
FN:2195,_RNCNvMNtCscyNIIr1ochp_14auth_framework4authNtB4_13AuthFramework24estimate_remote_sessions0B6_
FN:2878,_RNCNvMNtCscyNIIr1ochp_14auth_framework4authNtB4_13AuthFramework24get_security_audit_stats0B6_
FN:1738,_RNCNvMNtCscyNIIr1ochp_14auth_framework4authNtB4_13AuthFramework24initiate_email_challenge0B6_
FN:2381,_RNCNvMNtCscyNIIr1ochp_14auth_framework4authNtB4_13AuthFramework25export_prometheus_metrics0B6_
FN:2495,_RNCNvMNtCscyNIIr1ochp_14auth_framework4authNtB4_13AuthFramework25get_effective_permissions0B6_
FN:2833,_RNCNvMNtCscyNIIr1ochp_14auth_framework4authNtB4_13AuthFramework25get_permission_audit_logs0B6_
FN:2249,_RNCNvMNtCscyNIIr1ochp_14auth_framework4authNtB4_13AuthFramework25resolve_session_conflicts0B6_
FN:1169,_RNCNvMNtCscyNIIr1ochp_14auth_framework4authNtB4_13AuthFramework26validate_password_strength0B6_
FN:2209,_RNCNvMNtCscyNIIr1ochp_14auth_framework4authNtB4_13AuthFramework27count_synchronized_sessions0B6_
FN:1898,_RNCNvMNtCscyNIIr1ochp_14auth_framework4authNtB4_13AuthFramework28generate_totp_code_with_time0B6_
FN:306,_RNCNvMNtCscyNIIr1ochp_14auth_framework4authNtB4_13AuthFramework28new_initialized_with_storage0B6_
FN:1436,_RNCNvMNtCscyNIIr1ochp_14auth_framework4authNtB4_13AuthFramework29generate_totp_code_for_window0B6_
FN:2059,_RNCNvMNtCscyNIIr1ochp_14auth_framework4authNtB4_13AuthFramework30aggregate_audit_log_statistics0B6_
FN:2161,_RNCNvMNtCscyNIIr1ochp_14auth_framework4authNtB4_13AuthFramework31coordinate_distributed_sessions0B6_
FN:343,_RNCNCNvMNtCscyNIIr1ochp_14auth_framework4authNtB6_13AuthFramework10initialize00Cs6gteVbTpd2z_22custom_storage_builder
FN:935,_RNCNCNvMNtCscyNIIr1ochp_14auth_framework4authNtB6_13AuthFramework20cleanup_expired_data00Cs6gteVbTpd2z_22custom_storage_builder
FN:942,_RNCNCNvMNtCscyNIIr1ochp_14auth_framework4authNtB6_13AuthFramework20cleanup_expired_data0s_0Cs6gteVbTpd2z_22custom_storage_builder
FN:335,_RNCNvMNtCscyNIIr1ochp_14auth_framework4authNtB4_13AuthFramework10initialize0Cs6gteVbTpd2z_22custom_storage_builder
FN:925,_RNCNvMNtCscyNIIr1ochp_14auth_framework4authNtB4_13AuthFramework20cleanup_expired_data0Cs6gteVbTpd2z_22custom_storage_builder
FN:306,_RNCNvMNtCscyNIIr1ochp_14auth_framework4authNtB4_13AuthFramework28new_initialized_with_storage0Cs6gteVbTpd2z_22custom_storage_builder
FN:313,_RINvMNtCscyNIIr1ochp_14auth_framework4authNtB3_13AuthFramework15register_methodReECsicSbkS8Jtz5_29edge_case_comprehensive_tests
FN:1248,_RINvMNtCscyNIIr1ochp_14auth_framework4authNtB3_13AuthFramework17create_auth_tokenRNtNtCsaFwVybN8Rvy_5alloc6string6StringReECsicSbkS8Jtz5_29edge_case_comprehensive_tests
FN:1248,_RINvMNtCscyNIIr1ochp_14auth_framework4authNtB3_13AuthFramework17create_auth_tokenReB1h_ECsicSbkS8Jtz5_29edge_case_comprehensive_tests
FN:1254,_RNCINvMNtCscyNIIr1ochp_14auth_framework4authNtB5_13AuthFramework17create_auth_tokenRNtNtCsaFwVybN8Rvy_5alloc6string6StringReE0CsicSbkS8Jtz5_29edge_case_comprehensive_tests
FN:1254,_RNCINvMNtCscyNIIr1ochp_14auth_framework4authNtB5_13AuthFramework17create_auth_tokenReB1j_E0CsicSbkS8Jtz5_29edge_case_comprehensive_tests
FN:1262,_RNCNCINvMNtCscyNIIr1ochp_14auth_framework4authNtB7_13AuthFramework17create_auth_tokenRNtNtCsaFwVybN8Rvy_5alloc6string6StringReE00CsicSbkS8Jtz5_29edge_case_comprehensive_tests
FN:1262,_RNCNCINvMNtCscyNIIr1ochp_14auth_framework4authNtB7_13AuthFramework17create_auth_tokenReB1l_E00CsicSbkS8Jtz5_29edge_case_comprehensive_tests
FN:343,_RNCNCNvMNtCscyNIIr1ochp_14auth_framework4authNtB6_13AuthFramework10initialize00CsicSbkS8Jtz5_29edge_case_comprehensive_tests
FN:1345,_RNCNCNvMNtCscyNIIr1ochp_14auth_framework4authNtB6_13AuthFramework15verify_sms_code00CsicSbkS8Jtz5_29edge_case_comprehensive_tests
FN:1149,_RNCNCNvMNtCscyNIIr1ochp_14auth_framework4authNtB6_13AuthFramework17validate_username00CsicSbkS8Jtz5_29edge_case_comprehensive_tests
FN:935,_RNCNCNvMNtCscyNIIr1ochp_14auth_framework4authNtB6_13AuthFramework20cleanup_expired_data00CsicSbkS8Jtz5_29edge_case_comprehensive_tests
FN:942,_RNCNCNvMNtCscyNIIr1ochp_14auth_framework4authNtB6_13AuthFramework20cleanup_expired_data0s_0CsicSbkS8Jtz5_29edge_case_comprehensive_tests
FN:335,_RNCNvMNtCscyNIIr1ochp_14auth_framework4authNtB4_13AuthFramework10initialize0CsicSbkS8Jtz5_29edge_case_comprehensive_tests
FN:891,_RNCNvMNtCscyNIIr1ochp_14auth_framework4authNtB4_13AuthFramework11get_session0CsicSbkS8Jtz5_29edge_case_comprehensive_tests
FN:900,_RNCNvMNtCscyNIIr1ochp_14auth_framework4authNtB4_13AuthFramework14delete_session0CsicSbkS8Jtz5_29edge_case_comprehensive_tests
FN:631,_RNCNvMNtCscyNIIr1ochp_14auth_framework4authNtB4_13AuthFramework14validate_token0CsicSbkS8Jtz5_29edge_case_comprehensive_tests
FN:1323,_RNCNvMNtCscyNIIr1ochp_14auth_framework4authNtB4_13AuthFramework15verify_sms_code0CsicSbkS8Jtz5_29edge_case_comprehensive_tests
FN:692,_RNCNvMNtCscyNIIr1ochp_14auth_framework4authNtB4_13AuthFramework16check_permission0CsicSbkS8Jtz5_29edge_case_comprehensive_tests
FN:1718,_RNCNvMNtCscyNIIr1ochp_14auth_framework4authNtB4_13AuthFramework16grant_permission0CsicSbkS8Jtz5_29edge_case_comprehensive_tests
FN:1141,_RNCNvMNtCscyNIIr1ochp_14auth_framework4authNtB4_13AuthFramework17validate_username0CsicSbkS8Jtz5_29edge_case_comprehensive_tests
FN:1550,_RNCNvMNtCscyNIIr1ochp_14auth_framework4authNtB4_13AuthFramework19check_ip_rate_limit0CsicSbkS8Jtz5_29edge_case_comprehensive_tests
FN:1218,_RNCNvMNtCscyNIIr1ochp_14auth_framework4authNtB4_13AuthFramework19validate_user_input0CsicSbkS8Jtz5_29edge_case_comprehensive_tests
FN:925,_RNCNvMNtCscyNIIr1ochp_14auth_framework4authNtB4_13AuthFramework20cleanup_expired_data0CsicSbkS8Jtz5_29edge_case_comprehensive_tests
FN:1155,_RNCNvMNtCscyNIIr1ochp_14auth_framework4authNtB4_13AuthFramework21validate_display_name0CsicSbkS8Jtz5_29edge_case_comprehensive_tests
FN:1306,_RNCNvMNtCscyNIIr1ochp_14auth_framework4authNtB4_13AuthFramework22initiate_sms_challenge0CsicSbkS8Jtz5_29edge_case_comprehensive_tests
FN:343,_RNCNCNvMNtCscyNIIr1ochp_14auth_framework4authNtB6_13AuthFramework10initialize00CsbFHLMMuDGG9_24edge_cases_comprehensive
FN:935,_RNCNCNvMNtCscyNIIr1ochp_14auth_framework4authNtB6_13AuthFramework20cleanup_expired_data00CsbFHLMMuDGG9_24edge_cases_comprehensive
FN:942,_RNCNCNvMNtCscyNIIr1ochp_14auth_framework4authNtB6_13AuthFramework20cleanup_expired_data0s_0CsbFHLMMuDGG9_24edge_cases_comprehensive
FN:335,_RNCNvMNtCscyNIIr1ochp_14auth_framework4authNtB4_13AuthFramework10initialize0CsbFHLMMuDGG9_24edge_cases_comprehensive
FN:891,_RNCNvMNtCscyNIIr1ochp_14auth_framework4authNtB4_13AuthFramework11get_session0CsbFHLMMuDGG9_24edge_cases_comprehensive
FN:823,_RNCNvMNtCscyNIIr1ochp_14auth_framework4authNtB4_13AuthFramework14create_session0CsbFHLMMuDGG9_24edge_cases_comprehensive
FN:900,_RNCNvMNtCscyNIIr1ochp_14auth_framework4authNtB4_13AuthFramework14delete_session0CsbFHLMMuDGG9_24edge_cases_comprehensive
FN:631,_RNCNvMNtCscyNIIr1ochp_14auth_framework4authNtB4_13AuthFramework14validate_token0CsbFHLMMuDGG9_24edge_cases_comprehensive
FN:925,_RNCNvMNtCscyNIIr1ochp_14auth_framework4authNtB4_13AuthFramework20cleanup_expired_data0CsbFHLMMuDGG9_24edge_cases_comprehensive
FN:343,_RNCNCNvMNtCscyNIIr1ochp_14auth_framework4authNtB6_13AuthFramework10initialize00CsltvPzVvOkyD_24error_path_comprehensive
FN:935,_RNCNCNvMNtCscyNIIr1ochp_14auth_framework4authNtB6_13AuthFramework20cleanup_expired_data00CsltvPzVvOkyD_24error_path_comprehensive
FN:942,_RNCNCNvMNtCscyNIIr1ochp_14auth_framework4authNtB6_13AuthFramework20cleanup_expired_data0s_0CsltvPzVvOkyD_24error_path_comprehensive
FN:335,_RNCNvMNtCscyNIIr1ochp_14auth_framework4authNtB4_13AuthFramework10initialize0CsltvPzVvOkyD_24error_path_comprehensive
FN:891,_RNCNvMNtCscyNIIr1ochp_14auth_framework4authNtB4_13AuthFramework11get_session0CsltvPzVvOkyD_24error_path_comprehensive
FN:823,_RNCNvMNtCscyNIIr1ochp_14auth_framework4authNtB4_13AuthFramework14create_session0CsltvPzVvOkyD_24error_path_comprehensive
FN:900,_RNCNvMNtCscyNIIr1ochp_14auth_framework4authNtB4_13AuthFramework14delete_session0CsltvPzVvOkyD_24error_path_comprehensive
FN:631,_RNCNvMNtCscyNIIr1ochp_14auth_framework4authNtB4_13AuthFramework14validate_token0CsltvPzVvOkyD_24error_path_comprehensive
FN:925,_RNCNvMNtCscyNIIr1ochp_14auth_framework4authNtB4_13AuthFramework20cleanup_expired_data0CsltvPzVvOkyD_24error_path_comprehensive
FN:313,_RINvMNtCscyNIIr1ochp_14auth_framework4authNtB3_13AuthFramework15register_methodReECs7NqCd0yVQNh_20rfc_compliance_final
FN:1248,_RINvMNtCscyNIIr1ochp_14auth_framework4authNtB3_13AuthFramework17create_auth_tokenReB1h_ECs7NqCd0yVQNh_20rfc_compliance_final
FN:1254,_RNCINvMNtCscyNIIr1ochp_14auth_framework4authNtB5_13AuthFramework17create_auth_tokenReB1j_E0Cs7NqCd0yVQNh_20rfc_compliance_final
FN:1262,_RNCNCINvMNtCscyNIIr1ochp_14auth_framework4authNtB7_13AuthFramework17create_auth_tokenReB1l_E00Cs7NqCd0yVQNh_20rfc_compliance_final
FN:343,_RNCNCNvMNtCscyNIIr1ochp_14auth_framework4authNtB6_13AuthFramework10initialize00Cs7NqCd0yVQNh_20rfc_compliance_final
FN:935,_RNCNCNvMNtCscyNIIr1ochp_14auth_framework4authNtB6_13AuthFramework20cleanup_expired_data00Cs7NqCd0yVQNh_20rfc_compliance_final
FN:942,_RNCNCNvMNtCscyNIIr1ochp_14auth_framework4authNtB6_13AuthFramework20cleanup_expired_data0s_0Cs7NqCd0yVQNh_20rfc_compliance_final
FN:335,_RNCNvMNtCscyNIIr1ochp_14auth_framework4authNtB4_13AuthFramework10initialize0Cs7NqCd0yVQNh_20rfc_compliance_final
FN:631,_RNCNvMNtCscyNIIr1ochp_14auth_framework4authNtB4_13AuthFramework14validate_token0Cs7NqCd0yVQNh_20rfc_compliance_final
FN:692,_RNCNvMNtCscyNIIr1ochp_14auth_framework4authNtB4_13AuthFramework16check_permission0Cs7NqCd0yVQNh_20rfc_compliance_final
FN:1718,_RNCNvMNtCscyNIIr1ochp_14auth_framework4authNtB4_13AuthFramework16grant_permission0Cs7NqCd0yVQNh_20rfc_compliance_final
FN:925,_RNCNvMNtCscyNIIr1ochp_14auth_framework4authNtB4_13AuthFramework20cleanup_expired_data0Cs7NqCd0yVQNh_20rfc_compliance_final
FN:313,_RINvMNtCscyNIIr1ochp_14auth_framework4authNtB3_13AuthFramework15register_methodReECslCKlilea2JM_20rfc_compliance_tests
FN:343,_RNCNCNvMNtCscyNIIr1ochp_14auth_framework4authNtB6_13AuthFramework10initialize00CslCKlilea2JM_20rfc_compliance_tests
FN:935,_RNCNCNvMNtCscyNIIr1ochp_14auth_framework4authNtB6_13AuthFramework20cleanup_expired_data00CslCKlilea2JM_20rfc_compliance_tests
FN:942,_RNCNCNvMNtCscyNIIr1ochp_14auth_framework4authNtB6_13AuthFramework20cleanup_expired_data0s_0CslCKlilea2JM_20rfc_compliance_tests
FN:335,_RNCNvMNtCscyNIIr1ochp_14auth_framework4authNtB4_13AuthFramework10initialize0CslCKlilea2JM_20rfc_compliance_tests
FN:925,_RNCNvMNtCscyNIIr1ochp_14auth_framework4authNtB4_13AuthFramework20cleanup_expired_data0CslCKlilea2JM_20rfc_compliance_tests
FN:343,_RNCNCNvMNtCscyNIIr1ochp_14auth_framework4authNtB6_13AuthFramework10initialize00Csc6kGvynQBi2_22security_comprehensive
FN:935,_RNCNCNvMNtCscyNIIr1ochp_14auth_framework4authNtB6_13AuthFramework20cleanup_expired_data00Csc6kGvynQBi2_22security_comprehensive
FN:942,_RNCNCNvMNtCscyNIIr1ochp_14auth_framework4authNtB6_13AuthFramework20cleanup_expired_data0s_0Csc6kGvynQBi2_22security_comprehensive
FN:335,_RNCNvMNtCscyNIIr1ochp_14auth_framework4authNtB4_13AuthFramework10initialize0Csc6kGvynQBi2_22security_comprehensive
FN:891,_RNCNvMNtCscyNIIr1ochp_14auth_framework4authNtB4_13AuthFramework11get_session0Csc6kGvynQBi2_22security_comprehensive
FN:823,_RNCNvMNtCscyNIIr1ochp_14auth_framework4authNtB4_13AuthFramework14create_session0Csc6kGvynQBi2_22security_comprehensive
FN:900,_RNCNvMNtCscyNIIr1ochp_14auth_framework4authNtB4_13AuthFramework14delete_session0Csc6kGvynQBi2_22security_comprehensive
FN:631,_RNCNvMNtCscyNIIr1ochp_14auth_framework4authNtB4_13AuthFramework14validate_token0Csc6kGvynQBi2_22security_comprehensive
FN:925,_RNCNvMNtCscyNIIr1ochp_14auth_framework4authNtB4_13AuthFramework20cleanup_expired_data0Csc6kGvynQBi2_22security_comprehensive
FN:313,_RINvMNtCscyNIIr1ochp_14auth_framework4authNtB3_13AuthFramework15register_methodReECs9eddOzlogUM_26simple_comprehensive_tests
FN:1248,_RINvMNtCscyNIIr1ochp_14auth_framework4authNtB3_13AuthFramework17create_auth_tokenReB1h_ECs9eddOzlogUM_26simple_comprehensive_tests
FN:1254,_RNCINvMNtCscyNIIr1ochp_14auth_framework4authNtB5_13AuthFramework17create_auth_tokenReB1j_E0Cs9eddOzlogUM_26simple_comprehensive_tests
FN:1262,_RNCNCINvMNtCscyNIIr1ochp_14auth_framework4authNtB7_13AuthFramework17create_auth_tokenReB1l_E00Cs9eddOzlogUM_26simple_comprehensive_tests
FN:343,_RNCNCNvMNtCscyNIIr1ochp_14auth_framework4authNtB6_13AuthFramework10initialize00Cs9eddOzlogUM_26simple_comprehensive_tests
FN:1345,_RNCNCNvMNtCscyNIIr1ochp_14auth_framework4authNtB6_13AuthFramework15verify_sms_code00Cs9eddOzlogUM_26simple_comprehensive_tests
FN:1149,_RNCNCNvMNtCscyNIIr1ochp_14auth_framework4authNtB6_13AuthFramework17validate_username00Cs9eddOzlogUM_26simple_comprehensive_tests
FN:935,_RNCNCNvMNtCscyNIIr1ochp_14auth_framework4authNtB6_13AuthFramework20cleanup_expired_data00Cs9eddOzlogUM_26simple_comprehensive_tests
FN:942,_RNCNCNvMNtCscyNIIr1ochp_14auth_framework4authNtB6_13AuthFramework20cleanup_expired_data0s_0Cs9eddOzlogUM_26simple_comprehensive_tests
FN:1599,_RNCNCNvMNtCscyNIIr1ochp_14auth_framework4authNtB6_13AuthFramework20get_security_metrics00Cs9eddOzlogUM_26simple_comprehensive_tests
FN:1603,_RNCNCNvMNtCscyNIIr1ochp_14auth_framework4authNtB6_13AuthFramework20get_security_metrics0s_0Cs9eddOzlogUM_26simple_comprehensive_tests
FN:335,_RNCNvMNtCscyNIIr1ochp_14auth_framework4authNtB4_13AuthFramework10initialize0Cs9eddOzlogUM_26simple_comprehensive_tests
FN:891,_RNCNvMNtCscyNIIr1ochp_14auth_framework4authNtB4_13AuthFramework11get_session0Cs9eddOzlogUM_26simple_comprehensive_tests
FN:900,_RNCNvMNtCscyNIIr1ochp_14auth_framework4authNtB4_13AuthFramework14delete_session0Cs9eddOzlogUM_26simple_comprehensive_tests
FN:1364,_RNCNvMNtCscyNIIr1ochp_14auth_framework4authNtB4_13AuthFramework14register_email0Cs9eddOzlogUM_26simple_comprehensive_tests
FN:631,_RNCNvMNtCscyNIIr1ochp_14auth_framework4authNtB4_13AuthFramework14validate_token0Cs9eddOzlogUM_26simple_comprehensive_tests
FN:1323,_RNCNvMNtCscyNIIr1ochp_14auth_framework4authNtB4_13AuthFramework15verify_sms_code0Cs9eddOzlogUM_26simple_comprehensive_tests
FN:692,_RNCNvMNtCscyNIIr1ochp_14auth_framework4authNtB4_13AuthFramework16check_permission0Cs9eddOzlogUM_26simple_comprehensive_tests
FN:1718,_RNCNvMNtCscyNIIr1ochp_14auth_framework4authNtB4_13AuthFramework16grant_permission0Cs9eddOzlogUM_26simple_comprehensive_tests
FN:920,_RNCNvMNtCscyNIIr1ochp_14auth_framework4authNtB4_13AuthFramework16list_user_tokens0Cs9eddOzlogUM_26simple_comprehensive_tests
FN:1141,_RNCNvMNtCscyNIIr1ochp_14auth_framework4authNtB4_13AuthFramework17validate_username0Cs9eddOzlogUM_26simple_comprehensive_tests
FN:1218,_RNCNvMNtCscyNIIr1ochp_14auth_framework4authNtB4_13AuthFramework19validate_user_input0Cs9eddOzlogUM_26simple_comprehensive_tests
FN:925,_RNCNvMNtCscyNIIr1ochp_14auth_framework4authNtB4_13AuthFramework20cleanup_expired_data0Cs9eddOzlogUM_26simple_comprehensive_tests
FN:1579,_RNCNvMNtCscyNIIr1ochp_14auth_framework4authNtB4_13AuthFramework20get_security_metrics0Cs9eddOzlogUM_26simple_comprehensive_tests
FN:1155,_RNCNvMNtCscyNIIr1ochp_14auth_framework4authNtB4_13AuthFramework21validate_display_name0Cs9eddOzlogUM_26simple_comprehensive_tests
FN:1306,_RNCNvMNtCscyNIIr1ochp_14auth_framework4authNtB4_13AuthFramework22initiate_sms_challenge0Cs9eddOzlogUM_26simple_comprehensive_tests
FN:1738,_RNCNvMNtCscyNIIr1ochp_14auth_framework4authNtB4_13AuthFramework24initiate_email_challenge0Cs9eddOzlogUM_26simple_comprehensive_tests
FN:1169,_RNCNvMNtCscyNIIr1ochp_14auth_framework4authNtB4_13AuthFramework26validate_password_strength0Cs9eddOzlogUM_26simple_comprehensive_tests
FN:2059,_RNCNvMNtCscyNIIr1ochp_14auth_framework4authNtB4_13AuthFramework30aggregate_audit_log_statistics0Cs9eddOzlogUM_26simple_comprehensive_tests
FN:313,_RINvMNtCscyNIIr1ochp_14auth_framework4authNtB3_13AuthFramework15register_methodReECsfeSduX9iH0O_30simplified_comprehensive_tests
FN:343,_RNCNCNvMNtCscyNIIr1ochp_14auth_framework4authNtB6_13AuthFramework10initialize00CsfeSduX9iH0O_30simplified_comprehensive_tests
FN:935,_RNCNCNvMNtCscyNIIr1ochp_14auth_framework4authNtB6_13AuthFramework20cleanup_expired_data00CsfeSduX9iH0O_30simplified_comprehensive_tests
FN:942,_RNCNCNvMNtCscyNIIr1ochp_14auth_framework4authNtB6_13AuthFramework20cleanup_expired_data0s_0CsfeSduX9iH0O_30simplified_comprehensive_tests
FN:335,_RNCNvMNtCscyNIIr1ochp_14auth_framework4authNtB4_13AuthFramework10initialize0CsfeSduX9iH0O_30simplified_comprehensive_tests
FN:925,_RNCNvMNtCscyNIIr1ochp_14auth_framework4authNtB4_13AuthFramework20cleanup_expired_data0CsfeSduX9iH0O_30simplified_comprehensive_tests
FN:343,_RNCNCNvMNtCscyNIIr1ochp_14auth_framework4authNtB6_13AuthFramework10initialize00Cs1uZYD0dh0SA_18test_coverage_gaps
FN:935,_RNCNCNvMNtCscyNIIr1ochp_14auth_framework4authNtB6_13AuthFramework20cleanup_expired_data00Cs1uZYD0dh0SA_18test_coverage_gaps
FN:942,_RNCNCNvMNtCscyNIIr1ochp_14auth_framework4authNtB6_13AuthFramework20cleanup_expired_data0s_0Cs1uZYD0dh0SA_18test_coverage_gaps
FN:335,_RNCNvMNtCscyNIIr1ochp_14auth_framework4authNtB4_13AuthFramework10initialize0Cs1uZYD0dh0SA_18test_coverage_gaps
FN:891,_RNCNvMNtCscyNIIr1ochp_14auth_framework4authNtB4_13AuthFramework11get_session0Cs1uZYD0dh0SA_18test_coverage_gaps
FN:823,_RNCNvMNtCscyNIIr1ochp_14auth_framework4authNtB4_13AuthFramework14create_session0Cs1uZYD0dh0SA_18test_coverage_gaps
FN:900,_RNCNvMNtCscyNIIr1ochp_14auth_framework4authNtB4_13AuthFramework14delete_session0Cs1uZYD0dh0SA_18test_coverage_gaps
FN:925,_RNCNvMNtCscyNIIr1ochp_14auth_framework4authNtB4_13AuthFramework20cleanup_expired_data0Cs1uZYD0dh0SA_18test_coverage_gaps
FN:313,_RINvMNtCscyNIIr1ochp_14auth_framework4authNtB3_13AuthFramework15register_methodReECsl2ajL3UEBIU_27working_comprehensive_tests
FN:1248,_RINvMNtCscyNIIr1ochp_14auth_framework4authNtB3_13AuthFramework17create_auth_tokenReB1h_ECsl2ajL3UEBIU_27working_comprehensive_tests
FN:1254,_RNCINvMNtCscyNIIr1ochp_14auth_framework4authNtB5_13AuthFramework17create_auth_tokenReB1j_E0Csl2ajL3UEBIU_27working_comprehensive_tests
FN:1262,_RNCNCINvMNtCscyNIIr1ochp_14auth_framework4authNtB7_13AuthFramework17create_auth_tokenReB1l_E00Csl2ajL3UEBIU_27working_comprehensive_tests
FN:1448,_RNCNCNCNvMNtCscyNIIr1ochp_14auth_framework4authNtB8_13AuthFramework29generate_totp_code_for_window000Csl2ajL3UEBIU_27working_comprehensive_tests
FN:343,_RNCNCNvMNtCscyNIIr1ochp_14auth_framework4authNtB6_13AuthFramework10initialize00Csl2ajL3UEBIU_27working_comprehensive_tests
FN:677,_RNCNCNvMNtCscyNIIr1ochp_14auth_framework4authNtB6_13AuthFramework13get_user_info00Csl2ajL3UEBIU_27working_comprehensive_tests
FN:807,_RNCNCNvMNtCscyNIIr1ochp_14auth_framework4authNtB6_13AuthFramework14revoke_api_key00Csl2ajL3UEBIU_27working_comprehensive_tests
FN:779,_RNCNCNvMNtCscyNIIr1ochp_14auth_framework4authNtB6_13AuthFramework16validate_api_key00Csl2ajL3UEBIU_27working_comprehensive_tests
FN:1149,_RNCNCNvMNtCscyNIIr1ochp_14auth_framework4authNtB6_13AuthFramework17validate_username00Csl2ajL3UEBIU_27working_comprehensive_tests
FN:935,_RNCNCNvMNtCscyNIIr1ochp_14auth_framework4authNtB6_13AuthFramework20cleanup_expired_data00Csl2ajL3UEBIU_27working_comprehensive_tests
FN:942,_RNCNCNvMNtCscyNIIr1ochp_14auth_framework4authNtB6_13AuthFramework20cleanup_expired_data0s_0Csl2ajL3UEBIU_27working_comprehensive_tests
FN:1599,_RNCNCNvMNtCscyNIIr1ochp_14auth_framework4authNtB6_13AuthFramework20get_security_metrics00Csl2ajL3UEBIU_27working_comprehensive_tests
FN:1603,_RNCNCNvMNtCscyNIIr1ochp_14auth_framework4authNtB6_13AuthFramework20get_security_metrics0s_0Csl2ajL3UEBIU_27working_comprehensive_tests
FN:1673,_RNCNCNvMNtCscyNIIr1ochp_14auth_framework4authNtB6_13AuthFramework21generate_backup_codes00Csl2ajL3UEBIU_27working_comprehensive_tests
FN:1695,_RNCNCNvMNtCscyNIIr1ochp_14auth_framework4authNtB6_13AuthFramework21generate_backup_codes0s_0Csl2ajL3UEBIU_27working_comprehensive_tests
FN:1640,_RNCNCNvMNtCscyNIIr1ochp_14auth_framework4authNtB6_13AuthFramework21register_phone_number00Csl2ajL3UEBIU_27working_comprehensive_tests
FN:1445,_RNCNCNvMNtCscyNIIr1ochp_14auth_framework4authNtB6_13AuthFramework29generate_totp_code_for_window00Csl2ajL3UEBIU_27working_comprehensive_tests
FN:1461,_RNCNCNvMNtCscyNIIr1ochp_14auth_framework4authNtB6_13AuthFramework29generate_totp_code_for_window0s_0Csl2ajL3UEBIU_27working_comprehensive_tests
FN:335,_RNCNvMNtCscyNIIr1ochp_14auth_framework4authNtB4_13AuthFramework10initialize0Csl2ajL3UEBIU_27working_comprehensive_tests
FN:891,_RNCNvMNtCscyNIIr1ochp_14auth_framework4authNtB4_13AuthFramework11get_session0Csl2ajL3UEBIU_27working_comprehensive_tests
FN:726,_RNCNvMNtCscyNIIr1ochp_14auth_framework4authNtB4_13AuthFramework12revoke_token0Csl2ajL3UEBIU_27working_comprehensive_tests
FN:667,_RNCNvMNtCscyNIIr1ochp_14auth_framework4authNtB4_13AuthFramework13get_user_info0Csl2ajL3UEBIU_27working_comprehensive_tests
FN:746,_RNCNvMNtCscyNIIr1ochp_14auth_framework4authNtB4_13AuthFramework14create_api_key0Csl2ajL3UEBIU_27working_comprehensive_tests
FN:823,_RNCNvMNtCscyNIIr1ochp_14auth_framework4authNtB4_13AuthFramework14create_session0Csl2ajL3UEBIU_27working_comprehensive_tests
FN:900,_RNCNvMNtCscyNIIr1ochp_14auth_framework4authNtB4_13AuthFramework14delete_session0Csl2ajL3UEBIU_27working_comprehensive_tests
FN:1364,_RNCNvMNtCscyNIIr1ochp_14auth_framework4authNtB4_13AuthFramework14register_email0Csl2ajL3UEBIU_27working_comprehensive_tests
FN:799,_RNCNvMNtCscyNIIr1ochp_14auth_framework4authNtB4_13AuthFramework14revoke_api_key0Csl2ajL3UEBIU_27working_comprehensive_tests
FN:631,_RNCNvMNtCscyNIIr1ochp_14auth_framework4authNtB4_13AuthFramework14validate_token0Csl2ajL3UEBIU_27working_comprehensive_tests
FN:692,_RNCNvMNtCscyNIIr1ochp_14auth_framework4authNtB4_13AuthFramework16check_permission0Csl2ajL3UEBIU_27working_comprehensive_tests
FN:920,_RNCNvMNtCscyNIIr1ochp_14auth_framework4authNtB4_13AuthFramework16list_user_tokens0Csl2ajL3UEBIU_27working_comprehensive_tests
FN:771,_RNCNvMNtCscyNIIr1ochp_14auth_framework4authNtB4_13AuthFramework16validate_api_key0Csl2ajL3UEBIU_27working_comprehensive_tests
FN:1141,_RNCNvMNtCscyNIIr1ochp_14auth_framework4authNtB4_13AuthFramework17validate_username0Csl2ajL3UEBIU_27working_comprehensive_tests
FN:1427,_RNCNvMNtCscyNIIr1ochp_14auth_framework4authNtB4_13AuthFramework18generate_totp_code0Csl2ajL3UEBIU_27working_comprehensive_tests
FN:1550,_RNCNvMNtCscyNIIr1ochp_14auth_framework4authNtB4_13AuthFramework19check_ip_rate_limit0Csl2ajL3UEBIU_27working_comprehensive_tests
FN:925,_RNCNvMNtCscyNIIr1ochp_14auth_framework4authNtB4_13AuthFramework20cleanup_expired_data0Csl2ajL3UEBIU_27working_comprehensive_tests
FN:1397,_RNCNvMNtCscyNIIr1ochp_14auth_framework4authNtB4_13AuthFramework20generate_totp_secret0Csl2ajL3UEBIU_27working_comprehensive_tests
FN:1579,_RNCNvMNtCscyNIIr1ochp_14auth_framework4authNtB4_13AuthFramework20get_security_metrics0Csl2ajL3UEBIU_27working_comprehensive_tests
FN:1661,_RNCNvMNtCscyNIIr1ochp_14auth_framework4authNtB4_13AuthFramework21generate_backup_codes0Csl2ajL3UEBIU_27working_comprehensive_tests
FN:1417,_RNCNvMNtCscyNIIr1ochp_14auth_framework4authNtB4_13AuthFramework21generate_totp_qr_code0Csl2ajL3UEBIU_27working_comprehensive_tests
FN:1621,_RNCNvMNtCscyNIIr1ochp_14auth_framework4authNtB4_13AuthFramework21register_phone_number0Csl2ajL3UEBIU_27working_comprehensive_tests
FN:1155,_RNCNvMNtCscyNIIr1ochp_14auth_framework4authNtB4_13AuthFramework21validate_display_name0Csl2ajL3UEBIU_27working_comprehensive_tests
FN:1436,_RNCNvMNtCscyNIIr1ochp_14auth_framework4authNtB4_13AuthFramework29generate_totp_code_for_window0Csl2ajL3UEBIU_27working_comprehensive_tests
FN:2059,_RNCNvMNtCscyNIIr1ochp_14auth_framework4authNtB4_13AuthFramework30aggregate_audit_log_statistics0Csl2ajL3UEBIU_27working_comprehensive_tests
FN:313,_RINvMNtCscyNIIr1ochp_14auth_framework4authNtB3_13AuthFramework15register_methodReECs1NLxqcKBEBs_25working_integration_tests
FN:1248,_RINvMNtCscyNIIr1ochp_14auth_framework4authNtB3_13AuthFramework17create_auth_tokenReB1h_ECs1NLxqcKBEBs_25working_integration_tests
FN:1254,_RNCINvMNtCscyNIIr1ochp_14auth_framework4authNtB5_13AuthFramework17create_auth_tokenReB1j_E0Cs1NLxqcKBEBs_25working_integration_tests
FN:1262,_RNCNCINvMNtCscyNIIr1ochp_14auth_framework4authNtB7_13AuthFramework17create_auth_tokenReB1l_E00Cs1NLxqcKBEBs_25working_integration_tests
FN:343,_RNCNCNvMNtCscyNIIr1ochp_14auth_framework4authNtB6_13AuthFramework10initialize00Cs1NLxqcKBEBs_25working_integration_tests
FN:935,_RNCNCNvMNtCscyNIIr1ochp_14auth_framework4authNtB6_13AuthFramework20cleanup_expired_data00Cs1NLxqcKBEBs_25working_integration_tests
FN:942,_RNCNCNvMNtCscyNIIr1ochp_14auth_framework4authNtB6_13AuthFramework20cleanup_expired_data0s_0Cs1NLxqcKBEBs_25working_integration_tests
FN:335,_RNCNvMNtCscyNIIr1ochp_14auth_framework4authNtB4_13AuthFramework10initialize0Cs1NLxqcKBEBs_25working_integration_tests
FN:631,_RNCNvMNtCscyNIIr1ochp_14auth_framework4authNtB4_13AuthFramework14validate_token0Cs1NLxqcKBEBs_25working_integration_tests
FN:692,_RNCNvMNtCscyNIIr1ochp_14auth_framework4authNtB4_13AuthFramework16check_permission0Cs1NLxqcKBEBs_25working_integration_tests
FN:1718,_RNCNvMNtCscyNIIr1ochp_14auth_framework4authNtB4_13AuthFramework16grant_permission0Cs1NLxqcKBEBs_25working_integration_tests
FN:925,_RNCNvMNtCscyNIIr1ochp_14auth_framework4authNtB4_13AuthFramework20cleanup_expired_data0Cs1NLxqcKBEBs_25working_integration_tests
FNDA:0,_RNCNCNvMNtCsawKQoipWOme_14auth_framework4authNtB6_13AuthFramework10initialize00B8_
FNDA:0,_RNCNCNvMNtCsawKQoipWOme_14auth_framework4authNtB6_13AuthFramework20cleanup_expired_data00B8_
FNDA:0,_RNCNCNvMNtCsawKQoipWOme_14auth_framework4authNtB6_13AuthFramework20cleanup_expired_data0s_0B8_
FNDA:0,_RNCNCNvMNtCsawKQoipWOme_14auth_framework4authNtB6_13AuthFramework21authenticate_internal00B8_
FNDA:0,_RNCNCNvMNtCsawKQoipWOme_14auth_framework4authNtB6_13AuthFramework9get_stats00B8_
FNDA:4,_RNCNvMNtCsawKQoipWOme_14auth_framework4authNtB4_13AuthFramework10initialize0B6_
FNDA:2,_RNCNvMNtCsawKQoipWOme_14auth_framework4authNtB4_13AuthFramework11get_session0B6_
FNDA:0,_RNCNvMNtCsawKQoipWOme_14auth_framework4authNtB4_13AuthFramework12authenticate0B6_
FNDA:1,_RNCNvMNtCsawKQoipWOme_14auth_framework4authNtB4_13AuthFramework13new_validated0B6_
FNDA:1,_RNCNvMNtCsawKQoipWOme_14auth_framework4authNtB4_13AuthFramework14create_session0B6_
FNDA:1,_RNCNvMNtCsawKQoipWOme_14auth_framework4authNtB4_13AuthFramework14delete_session0B6_
FNDA:1,_RNCNvMNtCsawKQoipWOme_14auth_framework4authNtB4_13AuthFramework14validate_token0B6_
FNDA:0,_RNCNvMNtCsawKQoipWOme_14auth_framework4authNtB4_13AuthFramework15log_audit_event0B6_
FNDA:0,_RNCNvMNtCsawKQoipWOme_14auth_framework4authNtB4_13AuthFramework16get_user_profile0B6_
FNDA:5,_RNCNvMNtCsawKQoipWOme_14auth_framework4authNtB4_13AuthFramework20cleanup_expired_data0B6_
FNDA:0,_RNCNvMNtCsawKQoipWOme_14auth_framework4authNtB4_13AuthFramework21authenticate_internal0B6_
FNDA:0,_RNCNvMNtCsawKQoipWOme_14auth_framework4authNtB4_13AuthFramework24estimate_failed_attempts0B6_
FNDA:0,_RNCNvMNtCsawKQoipWOme_14auth_framework4authNtB4_13AuthFramework26authenticate_with_metadata0B6_
FNDA:0,_RNCNvMNtCsawKQoipWOme_14auth_framework4authNtB4_13AuthFramework27query_audit_events_fallback0B6_
FNDA:0,_RNCNvMNtCsawKQoipWOme_14auth_framework4authNtB4_13AuthFramework28estimate_successful_attempts0B6_
FNDA:0,_RNCNvMNtCsawKQoipWOme_14auth_framework4authNtB4_13AuthFramework34get_failed_attempts_from_audit_log0B6_
FNDA:0,_RNCNvMNtCsawKQoipWOme_14auth_framework4authNtB4_13AuthFramework36query_audit_logs_for_failed_attempts0B6_
FNDA:0,_RNCNvMNtCsawKQoipWOme_14auth_framework4authNtB4_13AuthFramework38get_successful_attempts_from_audit_log0B6_
FNDA:0,_RNCNvMNtCsawKQoipWOme_14auth_framework4authNtB4_13AuthFramework9get_stats0B6_
FNDA:1,_RNCNvNtNtCsawKQoipWOme_14auth_framework4auth5testss_21test_token_validation0B7_
FNDA:1,_RNCNvNtNtCsawKQoipWOme_14auth_framework4auth5testss_23test_session_management0B7_
FNDA:1,_RNCNvNtNtCsawKQoipWOme_14auth_framework4auth5testss_24test_method_registration0B7_
FNDA:1,_RNCNvNtNtCsawKQoipWOme_14auth_framework4auth5testss_25test_cleanup_expired_data0B7_
FNDA:1,_RNCNvNtNtCsawKQoipWOme_14auth_framework4auth5testss_29test_framework_initialization0B7_
FNDA:0,_RINvMNtCsawKQoipWOme_14auth_framework4authNtB3_13AuthFramework15register_methodpEB5_
FNDA:0,_RINvMNtCsawKQoipWOme_14auth_framework4authNtB3_13AuthFramework17create_auth_tokenppEB5_
FNDA:0,_RNCINvMNtCsawKQoipWOme_14auth_framework4authNtB5_13AuthFramework17create_auth_tokenppE0B7_
FNDA:0,_RNCNCINvMNtCsawKQoipWOme_14auth_framework4authNtB7_13AuthFramework17create_auth_tokenppE00B9_
FNDA:0,_RNCNCNCNvMNtCsawKQoipWOme_14auth_framework4authNtB8_13AuthFramework29generate_totp_code_for_window000Ba_
FNDA:0,_RNCNCNvMNtCsawKQoipWOme_14auth_framework4authNtB6_13AuthFramework13get_user_info00B8_
FNDA:0,_RNCNCNvMNtCsawKQoipWOme_14auth_framework4authNtB6_13AuthFramework14revoke_api_key00B8_
FNDA:0,_RNCNCNvMNtCsawKQoipWOme_14auth_framework4authNtB6_13AuthFramework15create_resource00B8_
FNDA:0,_RNCNCNvMNtCsawKQoipWOme_14auth_framework4authNtB6_13AuthFramework15verify_mfa_code00B8_
FNDA:0,_RNCNCNvMNtCsawKQoipWOme_14auth_framework4authNtB6_13AuthFramework15verify_mfa_code0s0_0B8_
FNDA:0,_RNCNCNvMNtCsawKQoipWOme_14auth_framework4authNtB6_13AuthFramework15verify_mfa_code0s1_0B8_
FNDA:0,_RNCNCNvMNtCsawKQoipWOme_14auth_framework4authNtB6_13AuthFramework15verify_mfa_code0s_0B8_
FNDA:0,_RNCNCNvMNtCsawKQoipWOme_14auth_framework4authNtB6_13AuthFramework15verify_sms_code00B8_
FNDA:0,_RNCNCNvMNtCsawKQoipWOme_14auth_framework4authNtB6_13AuthFramework16validate_api_key00B8_
FNDA:0,_RNCNCNvMNtCsawKQoipWOme_14auth_framework4authNtB6_13AuthFramework16verify_totp_code00B8_
FNDA:0,_RNCNCNvMNtCsawKQoipWOme_14auth_framework4authNtB6_13AuthFramework16verify_totp_code0s_0B8_
FNDA:0,_RNCNCNvMNtCsawKQoipWOme_14auth_framework4authNtB6_13AuthFramework17validate_username00B8_
FNDA:0,_RNCNCNvMNtCsawKQoipWOme_14auth_framework4authNtB6_13AuthFramework18create_abac_policy00B8_
FNDA:0,_RNCNCNvMNtCsawKQoipWOme_14auth_framework4authNtB6_13AuthFramework18map_user_attribute00B8_
FNDA:0,_RNCNCNvMNtCsawKQoipWOme_14auth_framework4authNtB6_13AuthFramework19delegate_permission00B8_
FNDA:0,_RNCNCNvMNtCsawKQoipWOme_14auth_framework4authNtB6_13AuthFramework19delegate_permission0s0_0B8_
FNDA:0,_RNCNCNvMNtCsawKQoipWOme_14auth_framework4authNtB6_13AuthFramework20get_security_metrics00B8_
FNDA:0,_RNCNCNvMNtCsawKQoipWOme_14auth_framework4authNtB6_13AuthFramework20get_security_metrics0s_0B8_
FNDA:0,_RNCNCNvMNtCsawKQoipWOme_14auth_framework4authNtB6_13AuthFramework21generate_backup_codes00B8_
FNDA:0,_RNCNCNvMNtCsawKQoipWOme_14auth_framework4authNtB6_13AuthFramework21generate_backup_codes0s_0B8_
FNDA:0,_RNCNCNvMNtCsawKQoipWOme_14auth_framework4authNtB6_13AuthFramework21register_phone_number00B8_
FNDA:0,_RNCNCNvMNtCsawKQoipWOme_14auth_framework4authNtB6_13AuthFramework27count_synchronized_sessions00B8_
FNDA:0,_RNCNCNvMNtCsawKQoipWOme_14auth_framework4authNtB6_13AuthFramework28generate_totp_code_with_time00B8_
FNDA:0,_RNCNCNvMNtCsawKQoipWOme_14auth_framework4authNtB6_13AuthFramework28generate_totp_code_with_time0s_0B8_
FNDA:0,_RNCNCNvMNtCsawKQoipWOme_14auth_framework4authNtB6_13AuthFramework29generate_totp_code_for_window00B8_
FNDA:0,_RNCNCNvMNtCsawKQoipWOme_14auth_framework4authNtB6_13AuthFramework29generate_totp_code_for_window0s_0B8_
FNDA:0,_RNCNvMNtCsawKQoipWOme_14auth_framework4authNtB4_13AuthFramework11assign_role0B6_
FNDA:0,_RNCNvMNtCsawKQoipWOme_14auth_framework4authNtB4_13AuthFramework11create_role0B6_
FNDA:0,_RNCNvMNtCsawKQoipWOme_14auth_framework4authNtB4_13AuthFramework12complete_mfa0B6_
FNDA:0,_RNCNvMNtCsawKQoipWOme_14auth_framework4authNtB4_13AuthFramework12health_check0B6_
FNDA:0,_RNCNvMNtCsawKQoipWOme_14auth_framework4authNtB4_13AuthFramework12revoke_token0B6_
FNDA:0,_RNCNvMNtCsawKQoipWOme_14auth_framework4authNtB4_13AuthFramework13get_user_info0B6_
FNDA:0,_RNCNvMNtCsawKQoipWOme_14auth_framework4authNtB4_13AuthFramework13refresh_token0B6_
FNDA:0,_RNCNvMNtCsawKQoipWOme_14auth_framework4authNtB4_13AuthFramework13user_has_role0B6_
FNDA:0,_RNCNvMNtCsawKQoipWOme_14auth_framework4authNtB4_13AuthFramework14create_api_key0B6_
FNDA:0,_RNCNvMNtCsawKQoipWOme_14auth_framework4authNtB4_13AuthFramework14register_email0B6_
FNDA:0,_RNCNvMNtCsawKQoipWOme_14auth_framework4authNtB4_13AuthFramework14revoke_api_key0B6_
FNDA:0,_RNCNvMNtCsawKQoipWOme_14auth_framework4authNtB4_13AuthFramework15create_resource0B6_
FNDA:0,_RNCNvMNtCsawKQoipWOme_14auth_framework4authNtB4_13AuthFramework15verify_mfa_code0B6_
FNDA:0,_RNCNvMNtCsawKQoipWOme_14auth_framework4authNtB4_13AuthFramework15verify_sms_code0B6_
FNDA:0,_RNCNvMNtCsawKQoipWOme_14auth_framework4authNtB4_13AuthFramework16check_permission0B6_
FNDA:0,_RNCNvMNtCsawKQoipWOme_14auth_framework4authNtB4_13AuthFramework16grant_permission0B6_
FNDA:0,_RNCNvMNtCsawKQoipWOme_14auth_framework4authNtB4_13AuthFramework16list_user_tokens0B6_
FNDA:0,_RNCNvMNtCsawKQoipWOme_14auth_framework4authNtB4_13AuthFramework16validate_api_key0B6_
FNDA:0,_RNCNvMNtCsawKQoipWOme_14auth_framework4authNtB4_13AuthFramework16verify_totp_code0B6_
FNDA:0,_RNCNvMNtCsawKQoipWOme_14auth_framework4authNtB4_13AuthFramework17revoke_permission0B6_
FNDA:0,_RNCNvMNtCsawKQoipWOme_14auth_framework4authNtB4_13AuthFramework17validate_username0B6_
FNDA:0,_RNCNvMNtCsawKQoipWOme_14auth_framework4authNtB4_13AuthFramework18create_abac_policy0B6_
FNDA:0,_RNCNvMNtCsawKQoipWOme_14auth_framework4authNtB4_13AuthFramework18generate_totp_code0B6_
FNDA:0,_RNCNvMNtCsawKQoipWOme_14auth_framework4authNtB4_13AuthFramework18get_user_attribute0B6_
FNDA:0,_RNCNvMNtCsawKQoipWOme_14auth_framework4authNtB4_13AuthFramework18map_user_attribute0B6_
FNDA:0,_RNCNvMNtCsawKQoipWOme_14auth_framework4authNtB4_13AuthFramework19check_ip_rate_limit0B6_
FNDA:0,_RNCNvMNtCsawKQoipWOme_14auth_framework4authNtB4_13AuthFramework19delegate_permission0B6_
FNDA:0,_RNCNvMNtCsawKQoipWOme_14auth_framework4authNtB4_13AuthFramework19synchronize_session0B6_
FNDA:0,_RNCNvMNtCsawKQoipWOme_14auth_framework4authNtB4_13AuthFramework19validate_user_input0B6_
FNDA:0,_RNCNvMNtCsawKQoipWOme_14auth_framework4authNtB4_13AuthFramework20generate_totp_secret0B6_
FNDA:0,_RNCNvMNtCsawKQoipWOme_14auth_framework4authNtB4_13AuthFramework20get_security_metrics0B6_
FNDA:0,_RNCNvMNtCsawKQoipWOme_14auth_framework4authNtB4_13AuthFramework20get_user_totp_secret0B6_
FNDA:0,_RNCNvMNtCsawKQoipWOme_14auth_framework4authNtB4_13AuthFramework20set_role_inheritance0B6_
FNDA:0,_RNCNvMNtCsawKQoipWOme_14auth_framework4authNtB4_13AuthFramework21generate_backup_codes0B6_
FNDA:0,_RNCNvMNtCsawKQoipWOme_14auth_framework4authNtB4_13AuthFramework21generate_totp_qr_code0B6_
FNDA:0,_RNCNvMNtCsawKQoipWOme_14auth_framework4authNtB4_13AuthFramework21is_valid_email_format0B6_
FNDA:0,_RNCNvMNtCsawKQoipWOme_14auth_framework4authNtB4_13AuthFramework21register_phone_number0B6_
FNDA:0,_RNCNvMNtCsawKQoipWOme_14auth_framework4authNtB4_13AuthFramework21validate_display_name0B6_
FNDA:0,_RNCNvMNtCsawKQoipWOme_14auth_framework4authNtB4_13AuthFramework22get_active_delegations0B6_
FNDA:0,_RNCNvMNtCsawKQoipWOme_14auth_framework4authNtB4_13AuthFramework22get_permission_metrics0B6_
FNDA:0,_RNCNvMNtCsawKQoipWOme_14auth_framework4authNtB4_13AuthFramework22initiate_sms_challenge0B6_
FNDA:0,_RNCNvMNtCsawKQoipWOme_14auth_framework4authNtB4_13AuthFramework23broadcast_session_state0B6_
FNDA:0,_RNCNvMNtCsawKQoipWOme_14auth_framework4authNtB4_13AuthFramework23get_performance_metrics0B6_
FNDA:0,_RNCNvMNtCsawKQoipWOme_14auth_framework4authNtB4_13AuthFramework24check_dynamic_permission0B6_
FNDA:0,_RNCNvMNtCsawKQoipWOme_14auth_framework4authNtB4_13AuthFramework24estimate_remote_sessions0B6_
FNDA:0,_RNCNvMNtCsawKQoipWOme_14auth_framework4authNtB4_13AuthFramework24get_security_audit_stats0B6_
FNDA:0,_RNCNvMNtCsawKQoipWOme_14auth_framework4authNtB4_13AuthFramework24initiate_email_challenge0B6_
FNDA:0,_RNCNvMNtCsawKQoipWOme_14auth_framework4authNtB4_13AuthFramework25export_prometheus_metrics0B6_
FNDA:0,_RNCNvMNtCsawKQoipWOme_14auth_framework4authNtB4_13AuthFramework25get_effective_permissions0B6_
FNDA:0,_RNCNvMNtCsawKQoipWOme_14auth_framework4authNtB4_13AuthFramework25get_permission_audit_logs0B6_
FNDA:0,_RNCNvMNtCsawKQoipWOme_14auth_framework4authNtB4_13AuthFramework25resolve_session_conflicts0B6_
FNDA:0,_RNCNvMNtCsawKQoipWOme_14auth_framework4authNtB4_13AuthFramework26validate_password_strength0B6_
FNDA:0,_RNCNvMNtCsawKQoipWOme_14auth_framework4authNtB4_13AuthFramework27count_synchronized_sessions0B6_
FNDA:0,_RNCNvMNtCsawKQoipWOme_14auth_framework4authNtB4_13AuthFramework28generate_totp_code_with_time0B6_
FNDA:0,_RNCNvMNtCsawKQoipWOme_14auth_framework4authNtB4_13AuthFramework28new_initialized_with_storage0B6_
FNDA:0,_RNCNvMNtCsawKQoipWOme_14auth_framework4authNtB4_13AuthFramework29generate_totp_code_for_window0B6_
FNDA:0,_RNCNvMNtCsawKQoipWOme_14auth_framework4authNtB4_13AuthFramework30aggregate_audit_log_statistics0B6_
FNDA:0,_RNCNvMNtCsawKQoipWOme_14auth_framework4authNtB4_13AuthFramework31coordinate_distributed_sessions0B6_
FNDA:0,_RNvMNtCsawKQoipWOme_14auth_framework4authNtB2_13AuthFramework11assign_role
FNDA:0,_RNvMNtCsawKQoipWOme_14auth_framework4authNtB2_13AuthFramework11create_role
FNDA:0,_RNvMNtCsawKQoipWOme_14auth_framework4authNtB2_13AuthFramework12complete_mfa
FNDA:0,_RNvMNtCsawKQoipWOme_14auth_framework4authNtB2_13AuthFramework12health_check
FNDA:0,_RNvMNtCsawKQoipWOme_14auth_framework4authNtB2_13AuthFramework12revoke_token
FNDA:0,_RNvMNtCsawKQoipWOme_14auth_framework4authNtB2_13AuthFramework13get_user_info
FNDA:0,_RNvMNtCsawKQoipWOme_14auth_framework4authNtB2_13AuthFramework13refresh_token
FNDA:0,_RNvMNtCsawKQoipWOme_14auth_framework4authNtB2_13AuthFramework13user_has_role
FNDA:0,_RNvMNtCsawKQoipWOme_14auth_framework4authNtB2_13AuthFramework14create_api_key
FNDA:0,_RNvMNtCsawKQoipWOme_14auth_framework4authNtB2_13AuthFramework14register_email
FNDA:0,_RNvMNtCsawKQoipWOme_14auth_framework4authNtB2_13AuthFramework14revoke_api_key
FNDA:0,_RNvMNtCsawKQoipWOme_14auth_framework4authNtB2_13AuthFramework15create_resource
FNDA:0,_RNvMNtCsawKQoipWOme_14auth_framework4authNtB2_13AuthFramework15get_instance_id
FNDA:0,_RNvMNtCsawKQoipWOme_14auth_framework4authNtB2_13AuthFramework15replace_storage
FNDA:0,_RNvMNtCsawKQoipWOme_14auth_framework4authNtB2_13AuthFramework15verify_mfa_code
FNDA:0,_RNvMNtCsawKQoipWOme_14auth_framework4authNtB2_13AuthFramework15verify_sms_code
FNDA:0,_RNvMNtCsawKQoipWOme_14auth_framework4authNtB2_13AuthFramework16check_permission
FNDA:0,_RNvMNtCsawKQoipWOme_14auth_framework4authNtB2_13AuthFramework16grant_permission
FNDA:0,_RNvMNtCsawKQoipWOme_14auth_framework4authNtB2_13AuthFramework16list_user_tokens
FNDA:0,_RNvMNtCsawKQoipWOme_14auth_framework4authNtB2_13AuthFramework16new_with_storage
FNDA:0,_RNvMNtCsawKQoipWOme_14auth_framework4authNtB2_13AuthFramework16validate_api_key
FNDA:0,_RNvMNtCsawKQoipWOme_14auth_framework4authNtB2_13AuthFramework16verify_totp_code
FNDA:0,_RNvMNtCsawKQoipWOme_14auth_framework4authNtB2_13AuthFramework17revoke_permission
FNDA:0,_RNvMNtCsawKQoipWOme_14auth_framework4authNtB2_13AuthFramework17validate_username
FNDA:0,_RNvMNtCsawKQoipWOme_14auth_framework4authNtB2_13AuthFramework18create_abac_policy
FNDA:0,_RNvMNtCsawKQoipWOme_14auth_framework4authNtB2_13AuthFramework18generate_totp_code
FNDA:0,_RNvMNtCsawKQoipWOme_14auth_framework4authNtB2_13AuthFramework18get_user_attribute
FNDA:0,_RNvMNtCsawKQoipWOme_14auth_framework4authNtB2_13AuthFramework18map_user_attribute
FNDA:0,_RNvMNtCsawKQoipWOme_14auth_framework4authNtB2_13AuthFramework19check_ip_rate_limit
FNDA:0,_RNvMNtCsawKQoipWOme_14auth_framework4authNtB2_13AuthFramework19delegate_permission
FNDA:0,_RNvMNtCsawKQoipWOme_14auth_framework4authNtB2_13AuthFramework19synchronize_session
FNDA:0,_RNvMNtCsawKQoipWOme_14auth_framework4authNtB2_13AuthFramework19validate_user_input
FNDA:0,_RNvMNtCsawKQoipWOme_14auth_framework4authNtB2_13AuthFramework20generate_totp_secret
FNDA:0,_RNvMNtCsawKQoipWOme_14auth_framework4authNtB2_13AuthFramework20get_security_metrics
FNDA:0,_RNvMNtCsawKQoipWOme_14auth_framework4authNtB2_13AuthFramework20get_user_totp_secret
FNDA:0,_RNvMNtCsawKQoipWOme_14auth_framework4authNtB2_13AuthFramework20set_role_inheritance
FNDA:0,_RNvMNtCsawKQoipWOme_14auth_framework4authNtB2_13AuthFramework21constant_time_compare
FNDA:0,_RNvMNtCsawKQoipWOme_14auth_framework4authNtB2_13AuthFramework21generate_backup_codes
FNDA:0,_RNvMNtCsawKQoipWOme_14auth_framework4authNtB2_13AuthFramework21generate_totp_qr_code
FNDA:0,_RNvMNtCsawKQoipWOme_14auth_framework4authNtB2_13AuthFramework21is_valid_email_format
FNDA:0,_RNvMNtCsawKQoipWOme_14auth_framework4authNtB2_13AuthFramework21register_phone_number
FNDA:0,_RNvMNtCsawKQoipWOme_14auth_framework4authNtB2_13AuthFramework21validate_display_name
FNDA:0,_RNvMNtCsawKQoipWOme_14auth_framework4authNtB2_13AuthFramework22get_active_delegations
FNDA:0,_RNvMNtCsawKQoipWOme_14auth_framework4authNtB2_13AuthFramework22get_monitoring_manager
FNDA:0,_RNvMNtCsawKQoipWOme_14auth_framework4authNtB2_13AuthFramework22get_permission_metrics
FNDA:0,_RNvMNtCsawKQoipWOme_14auth_framework4authNtB2_13AuthFramework22initiate_sms_challenge
FNDA:0,_RNvMNtCsawKQoipWOme_14auth_framework4authNtB2_13AuthFramework23broadcast_session_state
FNDA:0,_RNvMNtCsawKQoipWOme_14auth_framework4authNtB2_13AuthFramework23get_performance_metrics
FNDA:0,_RNvMNtCsawKQoipWOme_14auth_framework4authNtB2_13AuthFramework24check_dynamic_permission
FNDA:0,_RNvMNtCsawKQoipWOme_14auth_framework4authNtB2_13AuthFramework24estimate_remote_sessions
FNDA:0,_RNvMNtCsawKQoipWOme_14auth_framework4authNtB2_13AuthFramework24get_security_audit_stats
FNDA:0,_RNvMNtCsawKQoipWOme_14auth_framework4authNtB2_13AuthFramework24initiate_email_challenge
FNDA:0,_RNvMNtCsawKQoipWOme_14auth_framework4authNtB2_13AuthFramework25export_prometheus_metrics
FNDA:0,_RNvMNtCsawKQoipWOme_14auth_framework4authNtB2_13AuthFramework25get_effective_permissions
FNDA:0,_RNvMNtCsawKQoipWOme_14auth_framework4authNtB2_13AuthFramework25get_permission_audit_logs
FNDA:0,_RNvMNtCsawKQoipWOme_14auth_framework4authNtB2_13AuthFramework25resolve_session_conflicts
FNDA:0,_RNvMNtCsawKQoipWOme_14auth_framework4authNtB2_13AuthFramework26validate_password_strength
FNDA:0,_RNvMNtCsawKQoipWOme_14auth_framework4authNtB2_13AuthFramework27count_synchronized_sessions
FNDA:0,_RNvMNtCsawKQoipWOme_14auth_framework4authNtB2_13AuthFramework28generate_totp_code_with_time
FNDA:0,_RNvMNtCsawKQoipWOme_14auth_framework4authNtB2_13AuthFramework28new_initialized_with_storage
FNDA:0,_RNvMNtCsawKQoipWOme_14auth_framework4authNtB2_13AuthFramework29generate_totp_code_for_window
FNDA:0,_RNvMNtCsawKQoipWOme_14auth_framework4authNtB2_13AuthFramework30aggregate_audit_log_statistics
FNDA:0,_RNvMNtCsawKQoipWOme_14auth_framework4authNtB2_13AuthFramework31coordinate_distributed_sessions
FNDA:0,_RNvMs_NtCsawKQoipWOme_14auth_framework4authNtB4_18SecurityAuditStats14security_score
FNDA:0,_RNvMs_NtCsawKQoipWOme_14auth_framework4authNtB4_18SecurityAuditStats22security_alert_message
FNDA:0,_RNvMs_NtCsawKQoipWOme_14auth_framework4authNtB4_18SecurityAuditStats28requires_immediate_attention
FNDA:4,_RNvMNtCsawKQoipWOme_14auth_framework4authNtB2_13AuthFramework10initialize
FNDA:2,_RNvMNtCsawKQoipWOme_14auth_framework4authNtB2_13AuthFramework11get_session
FNDA:0,_RNvMNtCsawKQoipWOme_14auth_framework4authNtB2_13AuthFramework12authenticate
FNDA:1,_RNvMNtCsawKQoipWOme_14auth_framework4authNtB2_13AuthFramework13new_validated
FNDA:2,_RNvMNtCsawKQoipWOme_14auth_framework4authNtB2_13AuthFramework13token_manager
FNDA:1,_RNvMNtCsawKQoipWOme_14auth_framework4authNtB2_13AuthFramework14create_session
FNDA:1,_RNvMNtCsawKQoipWOme_14auth_framework4authNtB2_13AuthFramework14delete_session
FNDA:1,_RNvMNtCsawKQoipWOme_14auth_framework4authNtB2_13AuthFramework14validate_token
FNDA:0,_RNvMNtCsawKQoipWOme_14auth_framework4authNtB2_13AuthFramework15log_audit_event
FNDA:0,_RNvMNtCsawKQoipWOme_14auth_framework4authNtB2_13AuthFramework16get_user_profile
FNDA:5,_RNvMNtCsawKQoipWOme_14auth_framework4authNtB2_13AuthFramework20cleanup_expired_data
FNDA:0,_RNvMNtCsawKQoipWOme_14auth_framework4authNtB2_13AuthFramework21authenticate_internal
FNDA:0,_RNvMNtCsawKQoipWOme_14auth_framework4authNtB2_13AuthFramework24estimate_failed_attempts
FNDA:0,_RNvMNtCsawKQoipWOme_14auth_framework4authNtB2_13AuthFramework25is_production_environment
FNDA:0,_RNvMNtCsawKQoipWOme_14auth_framework4authNtB2_13AuthFramework26authenticate_with_metadata
FNDA:0,_RNvMNtCsawKQoipWOme_14auth_framework4authNtB2_13AuthFramework27query_audit_events_fallback
FNDA:0,_RNvMNtCsawKQoipWOme_14auth_framework4authNtB2_13AuthFramework28estimate_successful_attempts
FNDA:0,_RNvMNtCsawKQoipWOme_14auth_framework4authNtB2_13AuthFramework34get_failed_attempts_from_audit_log
FNDA:0,_RNvMNtCsawKQoipWOme_14auth_framework4authNtB2_13AuthFramework36query_audit_logs_for_failed_attempts
FNDA:0,_RNvMNtCsawKQoipWOme_14auth_framework4authNtB2_13AuthFramework38get_successful_attempts_from_audit_log
FNDA:7,_RNvMNtCsawKQoipWOme_14auth_framework4authNtB2_13AuthFramework3new
FNDA:0,_RNvMNtCsawKQoipWOme_14auth_framework4authNtB2_13AuthFramework9get_stats
FNDA:1,_RNvNtNtCsawKQoipWOme_14auth_framework4auth5testss_21test_token_validation
FNDA:1,_RNvNtNtCsawKQoipWOme_14auth_framework4auth5testss_23test_session_management
FNDA:1,_RNvNtNtCsawKQoipWOme_14auth_framework4auth5testss_24test_method_registration
FNDA:1,_RNvNtNtCsawKQoipWOme_14auth_framework4auth5testss_25test_cleanup_expired_data
FNDA:1,_RNvNtNtCsawKQoipWOme_14auth_framework4auth5testss_29test_framework_initialization
FNDA:26,_RINvMNtCscyNIIr1ochp_14auth_framework4authNtB3_13AuthFramework15register_methodReECs4Jvm7VElnFg_23comprehensive_api_tests
FNDA:2,_RINvMNtCscyNIIr1ochp_14auth_framework4authNtB3_13AuthFramework17create_auth_tokenReB1h_ECs4Jvm7VElnFg_23comprehensive_api_tests
FNDA:2,_RNCINvMNtCscyNIIr1ochp_14auth_framework4authNtB5_13AuthFramework17create_auth_tokenReB1j_E0Cs4Jvm7VElnFg_23comprehensive_api_tests
FNDA:1,_RNCNCINvMNtCscyNIIr1ochp_14auth_framework4authNtB7_13AuthFramework17create_auth_tokenReB1l_E00Cs4Jvm7VElnFg_23comprehensive_api_tests
FNDA:0,_RNCNCNvMNtCscyNIIr1ochp_14auth_framework4authNtB6_13AuthFramework10initialize00Cs4Jvm7VElnFg_23comprehensive_api_tests
FNDA:0,_RNCNCNvMNtCscyNIIr1ochp_14auth_framework4authNtB6_13AuthFramework15verify_sms_code00Cs4Jvm7VElnFg_23comprehensive_api_tests
FNDA:2,_RNCNCNvMNtCscyNIIr1ochp_14auth_framework4authNtB6_13AuthFramework16validate_api_key00Cs4Jvm7VElnFg_23comprehensive_api_tests
FNDA:13,_RNCNCNvMNtCscyNIIr1ochp_14auth_framework4authNtB6_13AuthFramework17validate_username00Cs4Jvm7VElnFg_23comprehensive_api_tests
FNDA:0,_RNCNCNvMNtCscyNIIr1ochp_14auth_framework4authNtB6_13AuthFramework20cleanup_expired_data00Cs4Jvm7VElnFg_23comprehensive_api_tests
FNDA:0,_RNCNCNvMNtCscyNIIr1ochp_14auth_framework4authNtB6_13AuthFramework20cleanup_expired_data0s_0Cs4Jvm7VElnFg_23comprehensive_api_tests
FNDA:0,_RNCNCNvMNtCscyNIIr1ochp_14auth_framework4authNtB6_13AuthFramework20get_security_metrics00Cs4Jvm7VElnFg_23comprehensive_api_tests
FNDA:0,_RNCNCNvMNtCscyNIIr1ochp_14auth_framework4authNtB6_13AuthFramework20get_security_metrics0s_0Cs4Jvm7VElnFg_23comprehensive_api_tests
FNDA:44,_RNCNvMNtCscyNIIr1ochp_14auth_framework4authNtB4_13AuthFramework10initialize0Cs4Jvm7VElnFg_23comprehensive_api_tests
FNDA:1,_RNCNvMNtCscyNIIr1ochp_14auth_framework4authNtB4_13AuthFramework11get_session0Cs4Jvm7VElnFg_23comprehensive_api_tests
FNDA:1,_RNCNvMNtCscyNIIr1ochp_14auth_framework4authNtB4_13AuthFramework14delete_session0Cs4Jvm7VElnFg_23comprehensive_api_tests
FNDA:6,_RNCNvMNtCscyNIIr1ochp_14auth_framework4authNtB4_13AuthFramework14register_email0Cs4Jvm7VElnFg_23comprehensive_api_tests
FNDA:1,_RNCNvMNtCscyNIIr1ochp_14auth_framework4authNtB4_13AuthFramework14validate_token0Cs4Jvm7VElnFg_23comprehensive_api_tests
FNDA:1,_RNCNvMNtCscyNIIr1ochp_14auth_framework4authNtB4_13AuthFramework15verify_sms_code0Cs4Jvm7VElnFg_23comprehensive_api_tests
FNDA:1,_RNCNvMNtCscyNIIr1ochp_14auth_framework4authNtB4_13AuthFramework16list_user_tokens0Cs4Jvm7VElnFg_23comprehensive_api_tests
FNDA:2,_RNCNvMNtCscyNIIr1ochp_14auth_framework4authNtB4_13AuthFramework16validate_api_key0Cs4Jvm7VElnFg_23comprehensive_api_tests
FNDA:3,_RNCNvMNtCscyNIIr1ochp_14auth_framework4authNtB4_13AuthFramework17validate_username0Cs4Jvm7VElnFg_23comprehensive_api_tests
FNDA:2,_RNCNvMNtCscyNIIr1ochp_14auth_framework4authNtB4_13AuthFramework19check_ip_rate_limit0Cs4Jvm7VElnFg_23comprehensive_api_tests
FNDA:2,_RNCNvMNtCscyNIIr1ochp_14auth_framework4authNtB4_13AuthFramework19validate_user_input0Cs4Jvm7VElnFg_23comprehensive_api_tests
FNDA:44,_RNCNvMNtCscyNIIr1ochp_14auth_framework4authNtB4_13AuthFramework20cleanup_expired_data0Cs4Jvm7VElnFg_23comprehensive_api_tests
FNDA:1,_RNCNvMNtCscyNIIr1ochp_14auth_framework4authNtB4_13AuthFramework20get_security_metrics0Cs4Jvm7VElnFg_23comprehensive_api_tests
FNDA:2,_RNCNvMNtCscyNIIr1ochp_14auth_framework4authNtB4_13AuthFramework21validate_display_name0Cs4Jvm7VElnFg_23comprehensive_api_tests
FNDA:2,_RNCNvMNtCscyNIIr1ochp_14auth_framework4authNtB4_13AuthFramework22initiate_sms_challenge0Cs4Jvm7VElnFg_23comprehensive_api_tests
FNDA:1,_RNCNvMNtCscyNIIr1ochp_14auth_framework4authNtB4_13AuthFramework24initiate_email_challenge0Cs4Jvm7VElnFg_23comprehensive_api_tests
FNDA:1,_RNCNvMNtCscyNIIr1ochp_14auth_framework4authNtB4_13AuthFramework30aggregate_audit_log_statistics0Cs4Jvm7VElnFg_23comprehensive_api_tests
FNDA:156,_RNvMNtCscyNIIr1ochp_14auth_framework4authNtB2_13AuthFramework10initialize
FNDA:0,_RNvMNtCscyNIIr1ochp_14auth_framework4authNtB2_13AuthFramework11assign_role
FNDA:0,_RNvMNtCscyNIIr1ochp_14auth_framework4authNtB2_13AuthFramework11create_role
FNDA:556,_RNvMNtCscyNIIr1ochp_14auth_framework4authNtB2_13AuthFramework11get_session
FNDA:349,_RNvMNtCscyNIIr1ochp_14auth_framework4authNtB2_13AuthFramework12authenticate
FNDA:0,_RNvMNtCscyNIIr1ochp_14auth_framework4authNtB2_13AuthFramework12complete_mfa
FNDA:0,_RNvMNtCscyNIIr1ochp_14auth_framework4authNtB2_13AuthFramework12health_check
FNDA:2,_RNvMNtCscyNIIr1ochp_14auth_framework4authNtB2_13AuthFramework12revoke_token
FNDA:1,_RNvMNtCscyNIIr1ochp_14auth_framework4authNtB2_13AuthFramework13get_user_info
FNDA:0,_RNvMNtCscyNIIr1ochp_14auth_framework4authNtB2_13AuthFramework13new_validated
FNDA:0,_RNvMNtCscyNIIr1ochp_14auth_framework4authNtB2_13AuthFramework13refresh_token
FNDA:8,_RNvMNtCscyNIIr1ochp_14auth_framework4authNtB2_13AuthFramework13token_manager
FNDA:0,_RNvMNtCscyNIIr1ochp_14auth_framework4authNtB2_13AuthFramework13user_has_role
FNDA:3,_RNvMNtCscyNIIr1ochp_14auth_framework4authNtB2_13AuthFramework14create_api_key
FNDA:16275,_RNvMNtCscyNIIr1ochp_14auth_framework4authNtB2_13AuthFramework14create_session
FNDA:1353,_RNvMNtCscyNIIr1ochp_14auth_framework4authNtB2_13AuthFramework14delete_session
FNDA:14,_RNvMNtCscyNIIr1ochp_14auth_framework4authNtB2_13AuthFramework14register_email
FNDA:2,_RNvMNtCscyNIIr1ochp_14auth_framework4authNtB2_13AuthFramework14revoke_api_key
FNDA:163,_RNvMNtCscyNIIr1ochp_14auth_framework4authNtB2_13AuthFramework14validate_token
FNDA:0,_RNvMNtCscyNIIr1ochp_14auth_framework4authNtB2_13AuthFramework15create_resource
FNDA:0,_RNvMNtCscyNIIr1ochp_14auth_framework4authNtB2_13AuthFramework15get_instance_id
FNDA:199,_RNvMNtCscyNIIr1ochp_14auth_framework4authNtB2_13AuthFramework15log_audit_event
FNDA:3,_RNvMNtCscyNIIr1ochp_14auth_framework4authNtB2_13AuthFramework15replace_storage
FNDA:0,_RNvMNtCscyNIIr1ochp_14auth_framework4authNtB2_13AuthFramework15verify_mfa_code
FNDA:53,_RNvMNtCscyNIIr1ochp_14auth_framework4authNtB2_13AuthFramework15verify_sms_code
FNDA:27,_RNvMNtCscyNIIr1ochp_14auth_framework4authNtB2_13AuthFramework16check_permission
FNDA:0,_RNvMNtCscyNIIr1ochp_14auth_framework4authNtB2_13AuthFramework16get_user_profile
FNDA:8,_RNvMNtCscyNIIr1ochp_14auth_framework4authNtB2_13AuthFramework16grant_permission
FNDA:3,_RNvMNtCscyNIIr1ochp_14auth_framework4authNtB2_13AuthFramework16list_user_tokens
FNDA:2,_RNvMNtCscyNIIr1ochp_14auth_framework4authNtB2_13AuthFramework16new_with_storage
FNDA:5,_RNvMNtCscyNIIr1ochp_14auth_framework4authNtB2_13AuthFramework16validate_api_key
FNDA:0,_RNvMNtCscyNIIr1ochp_14auth_framework4authNtB2_13AuthFramework16verify_totp_code
FNDA:0,_RNvMNtCscyNIIr1ochp_14auth_framework4authNtB2_13AuthFramework17revoke_permission
FNDA:70,_RNvMNtCscyNIIr1ochp_14auth_framework4authNtB2_13AuthFramework17validate_username
FNDA:0,_RNvMNtCscyNIIr1ochp_14auth_framework4authNtB2_13AuthFramework18create_abac_policy
FNDA:2,_RNvMNtCscyNIIr1ochp_14auth_framework4authNtB2_13AuthFramework18generate_totp_code
FNDA:0,_RNvMNtCscyNIIr1ochp_14auth_framework4authNtB2_13AuthFramework18get_user_attribute
FNDA:0,_RNvMNtCscyNIIr1ochp_14auth_framework4authNtB2_13AuthFramework18map_user_attribute
FNDA:105,_RNvMNtCscyNIIr1ochp_14auth_framework4authNtB2_13AuthFramework19check_ip_rate_limit
FNDA:0,_RNvMNtCscyNIIr1ochp_14auth_framework4authNtB2_13AuthFramework19delegate_permission
FNDA:0,_RNvMNtCscyNIIr1ochp_14auth_framework4authNtB2_13AuthFramework19synchronize_session
FNDA:68,_RNvMNtCscyNIIr1ochp_14auth_framework4authNtB2_13AuthFramework19validate_user_input
FNDA:160,_RNvMNtCscyNIIr1ochp_14auth_framework4authNtB2_13AuthFramework20cleanup_expired_data
FNDA:2,_RNvMNtCscyNIIr1ochp_14auth_framework4authNtB2_13AuthFramework20generate_totp_secret
FNDA:4,_RNvMNtCscyNIIr1ochp_14auth_framework4authNtB2_13AuthFramework20get_security_metrics
FNDA:0,_RNvMNtCscyNIIr1ochp_14auth_framework4authNtB2_13AuthFramework20get_user_totp_secret
FNDA:0,_RNvMNtCscyNIIr1ochp_14auth_framework4authNtB2_13AuthFramework20set_role_inheritance
FNDA:346,_RNvMNtCscyNIIr1ochp_14auth_framework4authNtB2_13AuthFramework21authenticate_internal
FNDA:0,_RNvMNtCscyNIIr1ochp_14auth_framework4authNtB2_13AuthFramework21constant_time_compare
FNDA:1,_RNvMNtCscyNIIr1ochp_14auth_framework4authNtB2_13AuthFramework21generate_backup_codes
FNDA:1,_RNvMNtCscyNIIr1ochp_14auth_framework4authNtB2_13AuthFramework21generate_totp_qr_code
FNDA:14,_RNvMNtCscyNIIr1ochp_14auth_framework4authNtB2_13AuthFramework21is_valid_email_format
FNDA:1,_RNvMNtCscyNIIr1ochp_14auth_framework4authNtB2_13AuthFramework21register_phone_number
FNDA:21,_RNvMNtCscyNIIr1ochp_14auth_framework4authNtB2_13AuthFramework21validate_display_name
FNDA:0,_RNvMNtCscyNIIr1ochp_14auth_framework4authNtB2_13AuthFramework22get_active_delegations
FNDA:0,_RNvMNtCscyNIIr1ochp_14auth_framework4authNtB2_13AuthFramework22get_monitoring_manager
FNDA:0,_RNvMNtCscyNIIr1ochp_14auth_framework4authNtB2_13AuthFramework22get_permission_metrics
FNDA:85,_RNvMNtCscyNIIr1ochp_14auth_framework4authNtB2_13AuthFramework22initiate_sms_challenge
FNDA:0,_RNvMNtCscyNIIr1ochp_14auth_framework4authNtB2_13AuthFramework23broadcast_session_state
FNDA:0,_RNvMNtCscyNIIr1ochp_14auth_framework4authNtB2_13AuthFramework23get_performance_metrics
FNDA:0,_RNvMNtCscyNIIr1ochp_14auth_framework4authNtB2_13AuthFramework24check_dynamic_permission
FNDA:1,_RNvMNtCscyNIIr1ochp_14auth_framework4authNtB2_13AuthFramework24estimate_failed_attempts
FNDA:0,_RNvMNtCscyNIIr1ochp_14auth_framework4authNtB2_13AuthFramework24estimate_remote_sessions
FNDA:0,_RNvMNtCscyNIIr1ochp_14auth_framework4authNtB2_13AuthFramework24get_security_audit_stats
FNDA:2,_RNvMNtCscyNIIr1ochp_14auth_framework4authNtB2_13AuthFramework24initiate_email_challenge
FNDA:0,_RNvMNtCscyNIIr1ochp_14auth_framework4authNtB2_13AuthFramework25export_prometheus_metrics
FNDA:0,_RNvMNtCscyNIIr1ochp_14auth_framework4authNtB2_13AuthFramework25get_effective_permissions
FNDA:0,_RNvMNtCscyNIIr1ochp_14auth_framework4authNtB2_13AuthFramework25get_permission_audit_logs
FNDA:0,_RNvMNtCscyNIIr1ochp_14auth_framework4authNtB2_13AuthFramework25is_production_environment
FNDA:0,_RNvMNtCscyNIIr1ochp_14auth_framework4authNtB2_13AuthFramework25resolve_session_conflicts
FNDA:351,_RNvMNtCscyNIIr1ochp_14auth_framework4authNtB2_13AuthFramework26authenticate_with_metadata
FNDA:2,_RNvMNtCscyNIIr1ochp_14auth_framework4authNtB2_13AuthFramework26validate_password_strength
FNDA:0,_RNvMNtCscyNIIr1ochp_14auth_framework4authNtB2_13AuthFramework27count_synchronized_sessions
FNDA:0,_RNvMNtCscyNIIr1ochp_14auth_framework4authNtB2_13AuthFramework27query_audit_events_fallback
FNDA:1,_RNvMNtCscyNIIr1ochp_14auth_framework4authNtB2_13AuthFramework28estimate_successful_attempts
FNDA:0,_RNvMNtCscyNIIr1ochp_14auth_framework4authNtB2_13AuthFramework28generate_totp_code_with_time
FNDA:1,_RNvMNtCscyNIIr1ochp_14auth_framework4authNtB2_13AuthFramework28new_initialized_with_storage
FNDA:2,_RNvMNtCscyNIIr1ochp_14auth_framework4authNtB2_13AuthFramework29generate_totp_code_for_window
FNDA:4,_RNvMNtCscyNIIr1ochp_14auth_framework4authNtB2_13AuthFramework30aggregate_audit_log_statistics
FNDA:0,_RNvMNtCscyNIIr1ochp_14auth_framework4authNtB2_13AuthFramework31coordinate_distributed_sessions
FNDA:5,_RNvMNtCscyNIIr1ochp_14auth_framework4authNtB2_13AuthFramework34get_failed_attempts_from_audit_log
FNDA:9,_RNvMNtCscyNIIr1ochp_14auth_framework4authNtB2_13AuthFramework36query_audit_logs_for_failed_attempts
FNDA:5,_RNvMNtCscyNIIr1ochp_14auth_framework4authNtB2_13AuthFramework38get_successful_attempts_from_audit_log
FNDA:164,_RNvMNtCscyNIIr1ochp_14auth_framework4authNtB2_13AuthFramework3new
FNDA:6,_RNvMNtCscyNIIr1ochp_14auth_framework4authNtB2_13AuthFramework9get_stats
FNDA:0,_RNvMs_NtCscyNIIr1ochp_14auth_framework4authNtB4_18SecurityAuditStats14security_score
FNDA:0,_RNvMs_NtCscyNIIr1ochp_14auth_framework4authNtB4_18SecurityAuditStats22security_alert_message
FNDA:0,_RNvMs_NtCscyNIIr1ochp_14auth_framework4authNtB4_18SecurityAuditStats28requires_immediate_attention
FNDA:147,_RNCNCNvMNtCscyNIIr1ochp_14auth_framework4authNtB6_13AuthFramework21authenticate_internal00B8_
FNDA:0,_RNCNCNvMNtCscyNIIr1ochp_14auth_framework4authNtB6_13AuthFramework9get_stats00B8_
FNDA:349,_RNCNvMNtCscyNIIr1ochp_14auth_framework4authNtB4_13AuthFramework12authenticate0B6_
FNDA:0,_RNCNvMNtCscyNIIr1ochp_14auth_framework4authNtB4_13AuthFramework13new_validated0B6_
FNDA:199,_RNCNvMNtCscyNIIr1ochp_14auth_framework4authNtB4_13AuthFramework15log_audit_event0B6_
FNDA:0,_RNCNvMNtCscyNIIr1ochp_14auth_framework4authNtB4_13AuthFramework16get_user_profile0B6_
FNDA:346,_RNCNvMNtCscyNIIr1ochp_14auth_framework4authNtB4_13AuthFramework21authenticate_internal0B6_
FNDA:89,_RNCNvMNtCscyNIIr1ochp_14auth_framework4authNtB4_13AuthFramework21is_valid_email_format0B6_
FNDA:1,_RNCNvMNtCscyNIIr1ochp_14auth_framework4authNtB4_13AuthFramework24estimate_failed_attempts0B6_
FNDA:351,_RNCNvMNtCscyNIIr1ochp_14auth_framework4authNtB4_13AuthFramework26authenticate_with_metadata0B6_
FNDA:0,_RNCNvMNtCscyNIIr1ochp_14auth_framework4authNtB4_13AuthFramework27query_audit_events_fallback0B6_
FNDA:1,_RNCNvMNtCscyNIIr1ochp_14auth_framework4authNtB4_13AuthFramework28estimate_successful_attempts0B6_
FNDA:5,_RNCNvMNtCscyNIIr1ochp_14auth_framework4authNtB4_13AuthFramework34get_failed_attempts_from_audit_log0B6_
FNDA:9,_RNCNvMNtCscyNIIr1ochp_14auth_framework4authNtB4_13AuthFramework36query_audit_logs_for_failed_attempts0B6_
FNDA:5,_RNCNvMNtCscyNIIr1ochp_14auth_framework4authNtB4_13AuthFramework38get_successful_attempts_from_audit_log0B6_
FNDA:6,_RNCNvMNtCscyNIIr1ochp_14auth_framework4authNtB4_13AuthFramework9get_stats0B6_
FNDA:0,_RINvMNtCscyNIIr1ochp_14auth_framework4authNtB3_13AuthFramework15register_methodpEB5_
FNDA:0,_RINvMNtCscyNIIr1ochp_14auth_framework4authNtB3_13AuthFramework17create_auth_tokenppEB5_
FNDA:0,_RNCINvMNtCscyNIIr1ochp_14auth_framework4authNtB5_13AuthFramework17create_auth_tokenppE0B7_
FNDA:0,_RNCNCINvMNtCscyNIIr1ochp_14auth_framework4authNtB7_13AuthFramework17create_auth_tokenppE00B9_
FNDA:0,_RNCNCNCNvMNtCscyNIIr1ochp_14auth_framework4authNtB8_13AuthFramework29generate_totp_code_for_window000Ba_
FNDA:0,_RNCNCNvMNtCscyNIIr1ochp_14auth_framework4authNtB6_13AuthFramework10initialize00B8_
FNDA:0,_RNCNCNvMNtCscyNIIr1ochp_14auth_framework4authNtB6_13AuthFramework13get_user_info00B8_
FNDA:0,_RNCNCNvMNtCscyNIIr1ochp_14auth_framework4authNtB6_13AuthFramework14revoke_api_key00B8_
FNDA:0,_RNCNCNvMNtCscyNIIr1ochp_14auth_framework4authNtB6_13AuthFramework15create_resource00B8_
FNDA:0,_RNCNCNvMNtCscyNIIr1ochp_14auth_framework4authNtB6_13AuthFramework15verify_mfa_code00B8_
FNDA:0,_RNCNCNvMNtCscyNIIr1ochp_14auth_framework4authNtB6_13AuthFramework15verify_mfa_code0s0_0B8_
FNDA:0,_RNCNCNvMNtCscyNIIr1ochp_14auth_framework4authNtB6_13AuthFramework15verify_mfa_code0s1_0B8_
FNDA:0,_RNCNCNvMNtCscyNIIr1ochp_14auth_framework4authNtB6_13AuthFramework15verify_mfa_code0s_0B8_
FNDA:0,_RNCNCNvMNtCscyNIIr1ochp_14auth_framework4authNtB6_13AuthFramework15verify_sms_code00B8_
FNDA:0,_RNCNCNvMNtCscyNIIr1ochp_14auth_framework4authNtB6_13AuthFramework16validate_api_key00B8_
FNDA:0,_RNCNCNvMNtCscyNIIr1ochp_14auth_framework4authNtB6_13AuthFramework16verify_totp_code00B8_
FNDA:0,_RNCNCNvMNtCscyNIIr1ochp_14auth_framework4authNtB6_13AuthFramework16verify_totp_code0s_0B8_
FNDA:0,_RNCNCNvMNtCscyNIIr1ochp_14auth_framework4authNtB6_13AuthFramework17validate_username00B8_
FNDA:0,_RNCNCNvMNtCscyNIIr1ochp_14auth_framework4authNtB6_13AuthFramework18create_abac_policy00B8_
FNDA:0,_RNCNCNvMNtCscyNIIr1ochp_14auth_framework4authNtB6_13AuthFramework18map_user_attribute00B8_
FNDA:0,_RNCNCNvMNtCscyNIIr1ochp_14auth_framework4authNtB6_13AuthFramework19delegate_permission00B8_
FNDA:0,_RNCNCNvMNtCscyNIIr1ochp_14auth_framework4authNtB6_13AuthFramework19delegate_permission0s0_0B8_
FNDA:0,_RNCNCNvMNtCscyNIIr1ochp_14auth_framework4authNtB6_13AuthFramework20cleanup_expired_data00B8_
FNDA:0,_RNCNCNvMNtCscyNIIr1ochp_14auth_framework4authNtB6_13AuthFramework20cleanup_expired_data0s_0B8_
FNDA:0,_RNCNCNvMNtCscyNIIr1ochp_14auth_framework4authNtB6_13AuthFramework20get_security_metrics00B8_
FNDA:0,_RNCNCNvMNtCscyNIIr1ochp_14auth_framework4authNtB6_13AuthFramework20get_security_metrics0s_0B8_
FNDA:0,_RNCNCNvMNtCscyNIIr1ochp_14auth_framework4authNtB6_13AuthFramework21generate_backup_codes00B8_
FNDA:0,_RNCNCNvMNtCscyNIIr1ochp_14auth_framework4authNtB6_13AuthFramework21generate_backup_codes0s_0B8_
FNDA:0,_RNCNCNvMNtCscyNIIr1ochp_14auth_framework4authNtB6_13AuthFramework21register_phone_number00B8_
FNDA:0,_RNCNCNvMNtCscyNIIr1ochp_14auth_framework4authNtB6_13AuthFramework27count_synchronized_sessions00B8_
FNDA:0,_RNCNCNvMNtCscyNIIr1ochp_14auth_framework4authNtB6_13AuthFramework28generate_totp_code_with_time00B8_
FNDA:0,_RNCNCNvMNtCscyNIIr1ochp_14auth_framework4authNtB6_13AuthFramework28generate_totp_code_with_time0s_0B8_
FNDA:0,_RNCNCNvMNtCscyNIIr1ochp_14auth_framework4authNtB6_13AuthFramework29generate_totp_code_for_window00B8_
FNDA:0,_RNCNCNvMNtCscyNIIr1ochp_14auth_framework4authNtB6_13AuthFramework29generate_totp_code_for_window0s_0B8_
FNDA:0,_RNCNvMNtCscyNIIr1ochp_14auth_framework4authNtB4_13AuthFramework10initialize0B6_
FNDA:0,_RNCNvMNtCscyNIIr1ochp_14auth_framework4authNtB4_13AuthFramework11assign_role0B6_
FNDA:0,_RNCNvMNtCscyNIIr1ochp_14auth_framework4authNtB4_13AuthFramework11create_role0B6_
FNDA:0,_RNCNvMNtCscyNIIr1ochp_14auth_framework4authNtB4_13AuthFramework11get_session0B6_
FNDA:0,_RNCNvMNtCscyNIIr1ochp_14auth_framework4authNtB4_13AuthFramework12complete_mfa0B6_
FNDA:0,_RNCNvMNtCscyNIIr1ochp_14auth_framework4authNtB4_13AuthFramework12health_check0B6_
FNDA:0,_RNCNvMNtCscyNIIr1ochp_14auth_framework4authNtB4_13AuthFramework12revoke_token0B6_
FNDA:0,_RNCNvMNtCscyNIIr1ochp_14auth_framework4authNtB4_13AuthFramework13get_user_info0B6_
FNDA:0,_RNCNvMNtCscyNIIr1ochp_14auth_framework4authNtB4_13AuthFramework13refresh_token0B6_
FNDA:0,_RNCNvMNtCscyNIIr1ochp_14auth_framework4authNtB4_13AuthFramework13user_has_role0B6_
FNDA:0,_RNCNvMNtCscyNIIr1ochp_14auth_framework4authNtB4_13AuthFramework14create_api_key0B6_
FNDA:0,_RNCNvMNtCscyNIIr1ochp_14auth_framework4authNtB4_13AuthFramework14create_session0B6_
FNDA:0,_RNCNvMNtCscyNIIr1ochp_14auth_framework4authNtB4_13AuthFramework14delete_session0B6_
FNDA:0,_RNCNvMNtCscyNIIr1ochp_14auth_framework4authNtB4_13AuthFramework14register_email0B6_
FNDA:0,_RNCNvMNtCscyNIIr1ochp_14auth_framework4authNtB4_13AuthFramework14revoke_api_key0B6_
FNDA:0,_RNCNvMNtCscyNIIr1ochp_14auth_framework4authNtB4_13AuthFramework14validate_token0B6_
FNDA:0,_RNCNvMNtCscyNIIr1ochp_14auth_framework4authNtB4_13AuthFramework15create_resource0B6_
FNDA:0,_RNCNvMNtCscyNIIr1ochp_14auth_framework4authNtB4_13AuthFramework15verify_mfa_code0B6_
FNDA:0,_RNCNvMNtCscyNIIr1ochp_14auth_framework4authNtB4_13AuthFramework15verify_sms_code0B6_
FNDA:0,_RNCNvMNtCscyNIIr1ochp_14auth_framework4authNtB4_13AuthFramework16check_permission0B6_
FNDA:0,_RNCNvMNtCscyNIIr1ochp_14auth_framework4authNtB4_13AuthFramework16grant_permission0B6_
FNDA:0,_RNCNvMNtCscyNIIr1ochp_14auth_framework4authNtB4_13AuthFramework16list_user_tokens0B6_
FNDA:0,_RNCNvMNtCscyNIIr1ochp_14auth_framework4authNtB4_13AuthFramework16validate_api_key0B6_
FNDA:0,_RNCNvMNtCscyNIIr1ochp_14auth_framework4authNtB4_13AuthFramework16verify_totp_code0B6_
FNDA:0,_RNCNvMNtCscyNIIr1ochp_14auth_framework4authNtB4_13AuthFramework17revoke_permission0B6_
FNDA:0,_RNCNvMNtCscyNIIr1ochp_14auth_framework4authNtB4_13AuthFramework17validate_username0B6_
FNDA:0,_RNCNvMNtCscyNIIr1ochp_14auth_framework4authNtB4_13AuthFramework18create_abac_policy0B6_
FNDA:0,_RNCNvMNtCscyNIIr1ochp_14auth_framework4authNtB4_13AuthFramework18generate_totp_code0B6_
FNDA:0,_RNCNvMNtCscyNIIr1ochp_14auth_framework4authNtB4_13AuthFramework18get_user_attribute0B6_
FNDA:0,_RNCNvMNtCscyNIIr1ochp_14auth_framework4authNtB4_13AuthFramework18map_user_attribute0B6_
FNDA:0,_RNCNvMNtCscyNIIr1ochp_14auth_framework4authNtB4_13AuthFramework19check_ip_rate_limit0B6_
FNDA:0,_RNCNvMNtCscyNIIr1ochp_14auth_framework4authNtB4_13AuthFramework19delegate_permission0B6_
FNDA:0,_RNCNvMNtCscyNIIr1ochp_14auth_framework4authNtB4_13AuthFramework19synchronize_session0B6_
FNDA:0,_RNCNvMNtCscyNIIr1ochp_14auth_framework4authNtB4_13AuthFramework19validate_user_input0B6_
FNDA:0,_RNCNvMNtCscyNIIr1ochp_14auth_framework4authNtB4_13AuthFramework20cleanup_expired_data0B6_
FNDA:0,_RNCNvMNtCscyNIIr1ochp_14auth_framework4authNtB4_13AuthFramework20generate_totp_secret0B6_
FNDA:0,_RNCNvMNtCscyNIIr1ochp_14auth_framework4authNtB4_13AuthFramework20get_security_metrics0B6_
FNDA:0,_RNCNvMNtCscyNIIr1ochp_14auth_framework4authNtB4_13AuthFramework20get_user_totp_secret0B6_
FNDA:0,_RNCNvMNtCscyNIIr1ochp_14auth_framework4authNtB4_13AuthFramework20set_role_inheritance0B6_
FNDA:0,_RNCNvMNtCscyNIIr1ochp_14auth_framework4authNtB4_13AuthFramework21generate_backup_codes0B6_
FNDA:0,_RNCNvMNtCscyNIIr1ochp_14auth_framework4authNtB4_13AuthFramework21generate_totp_qr_code0B6_
FNDA:0,_RNCNvMNtCscyNIIr1ochp_14auth_framework4authNtB4_13AuthFramework21register_phone_number0B6_
FNDA:0,_RNCNvMNtCscyNIIr1ochp_14auth_framework4authNtB4_13AuthFramework21validate_display_name0B6_
FNDA:0,_RNCNvMNtCscyNIIr1ochp_14auth_framework4authNtB4_13AuthFramework22get_active_delegations0B6_
FNDA:0,_RNCNvMNtCscyNIIr1ochp_14auth_framework4authNtB4_13AuthFramework22get_permission_metrics0B6_
FNDA:0,_RNCNvMNtCscyNIIr1ochp_14auth_framework4authNtB4_13AuthFramework22initiate_sms_challenge0B6_
FNDA:0,_RNCNvMNtCscyNIIr1ochp_14auth_framework4authNtB4_13AuthFramework23broadcast_session_state0B6_
FNDA:0,_RNCNvMNtCscyNIIr1ochp_14auth_framework4authNtB4_13AuthFramework23get_performance_metrics0B6_
FNDA:0,_RNCNvMNtCscyNIIr1ochp_14auth_framework4authNtB4_13AuthFramework24check_dynamic_permission0B6_
FNDA:0,_RNCNvMNtCscyNIIr1ochp_14auth_framework4authNtB4_13AuthFramework24estimate_remote_sessions0B6_
FNDA:0,_RNCNvMNtCscyNIIr1ochp_14auth_framework4authNtB4_13AuthFramework24get_security_audit_stats0B6_
FNDA:0,_RNCNvMNtCscyNIIr1ochp_14auth_framework4authNtB4_13AuthFramework24initiate_email_challenge0B6_
FNDA:0,_RNCNvMNtCscyNIIr1ochp_14auth_framework4authNtB4_13AuthFramework25export_prometheus_metrics0B6_
FNDA:0,_RNCNvMNtCscyNIIr1ochp_14auth_framework4authNtB4_13AuthFramework25get_effective_permissions0B6_
FNDA:0,_RNCNvMNtCscyNIIr1ochp_14auth_framework4authNtB4_13AuthFramework25get_permission_audit_logs0B6_
FNDA:0,_RNCNvMNtCscyNIIr1ochp_14auth_framework4authNtB4_13AuthFramework25resolve_session_conflicts0B6_
FNDA:0,_RNCNvMNtCscyNIIr1ochp_14auth_framework4authNtB4_13AuthFramework26validate_password_strength0B6_
FNDA:0,_RNCNvMNtCscyNIIr1ochp_14auth_framework4authNtB4_13AuthFramework27count_synchronized_sessions0B6_
FNDA:0,_RNCNvMNtCscyNIIr1ochp_14auth_framework4authNtB4_13AuthFramework28generate_totp_code_with_time0B6_
FNDA:0,_RNCNvMNtCscyNIIr1ochp_14auth_framework4authNtB4_13AuthFramework28new_initialized_with_storage0B6_
FNDA:0,_RNCNvMNtCscyNIIr1ochp_14auth_framework4authNtB4_13AuthFramework29generate_totp_code_for_window0B6_
FNDA:0,_RNCNvMNtCscyNIIr1ochp_14auth_framework4authNtB4_13AuthFramework30aggregate_audit_log_statistics0B6_
FNDA:0,_RNCNvMNtCscyNIIr1ochp_14auth_framework4authNtB4_13AuthFramework31coordinate_distributed_sessions0B6_
FNDA:0,_RNCNCNvMNtCscyNIIr1ochp_14auth_framework4authNtB6_13AuthFramework10initialize00Cs6gteVbTpd2z_22custom_storage_builder
FNDA:0,_RNCNCNvMNtCscyNIIr1ochp_14auth_framework4authNtB6_13AuthFramework20cleanup_expired_data00Cs6gteVbTpd2z_22custom_storage_builder
FNDA:0,_RNCNCNvMNtCscyNIIr1ochp_14auth_framework4authNtB6_13AuthFramework20cleanup_expired_data0s_0Cs6gteVbTpd2z_22custom_storage_builder
FNDA:3,_RNCNvMNtCscyNIIr1ochp_14auth_framework4authNtB4_13AuthFramework10initialize0Cs6gteVbTpd2z_22custom_storage_builder
FNDA:3,_RNCNvMNtCscyNIIr1ochp_14auth_framework4authNtB4_13AuthFramework20cleanup_expired_data0Cs6gteVbTpd2z_22custom_storage_builder
FNDA:1,_RNCNvMNtCscyNIIr1ochp_14auth_framework4authNtB4_13AuthFramework28new_initialized_with_storage0Cs6gteVbTpd2z_22custom_storage_builder
FNDA:34,_RINvMNtCscyNIIr1ochp_14auth_framework4authNtB3_13AuthFramework15register_methodReECsicSbkS8Jtz5_29edge_case_comprehensive_tests
FNDA:1250,_RINvMNtCscyNIIr1ochp_14auth_framework4authNtB3_13AuthFramework17create_auth_tokenRNtNtCsaFwVybN8Rvy_5alloc6string6StringReECsicSbkS8Jtz5_29edge_case_comprehensive_tests
FNDA:5,_RINvMNtCscyNIIr1ochp_14auth_framework4authNtB3_13AuthFramework17create_auth_tokenReB1h_ECsicSbkS8Jtz5_29edge_case_comprehensive_tests
FNDA:1250,_RNCINvMNtCscyNIIr1ochp_14auth_framework4authNtB5_13AuthFramework17create_auth_tokenRNtNtCsaFwVybN8Rvy_5alloc6string6StringReE0CsicSbkS8Jtz5_29edge_case_comprehensive_tests
FNDA:5,_RNCINvMNtCscyNIIr1ochp_14auth_framework4authNtB5_13AuthFramework17create_auth_tokenReB1j_E0CsicSbkS8Jtz5_29edge_case_comprehensive_tests
FNDA:0,_RNCNCINvMNtCscyNIIr1ochp_14auth_framework4authNtB7_13AuthFramework17create_auth_tokenRNtNtCsaFwVybN8Rvy_5alloc6string6StringReE00CsicSbkS8Jtz5_29edge_case_comprehensive_tests
FNDA:1,_RNCNCINvMNtCscyNIIr1ochp_14auth_framework4authNtB7_13AuthFramework17create_auth_tokenReB1l_E00CsicSbkS8Jtz5_29edge_case_comprehensive_tests
FNDA:3,_RNCNCNvMNtCscyNIIr1ochp_14auth_framework4authNtB6_13AuthFramework10initialize00CsicSbkS8Jtz5_29edge_case_comprehensive_tests
FNDA:0,_RNCNCNvMNtCscyNIIr1ochp_14auth_framework4authNtB6_13AuthFramework15verify_sms_code00CsicSbkS8Jtz5_29edge_case_comprehensive_tests
FNDA:890,_RNCNCNvMNtCscyNIIr1ochp_14auth_framework4authNtB6_13AuthFramework17validate_username00CsicSbkS8Jtz5_29edge_case_comprehensive_tests
FNDA:0,_RNCNCNvMNtCscyNIIr1ochp_14auth_framework4authNtB6_13AuthFramework20cleanup_expired_data00CsicSbkS8Jtz5_29edge_case_comprehensive_tests
FNDA:0,_RNCNCNvMNtCscyNIIr1ochp_14auth_framework4authNtB6_13AuthFramework20cleanup_expired_data0s_0CsicSbkS8Jtz5_29edge_case_comprehensive_tests
FNDA:24,_RNCNvMNtCscyNIIr1ochp_14auth_framework4authNtB4_13AuthFramework10initialize0CsicSbkS8Jtz5_29edge_case_comprehensive_tests
FNDA:2,_RNCNvMNtCscyNIIr1ochp_14auth_framework4authNtB4_13AuthFramework11get_session0CsicSbkS8Jtz5_29edge_case_comprehensive_tests
FNDA:1,_RNCNvMNtCscyNIIr1ochp_14auth_framework4authNtB4_13AuthFramework14delete_session0CsicSbkS8Jtz5_29edge_case_comprehensive_tests
FNDA:123,_RNCNvMNtCscyNIIr1ochp_14auth_framework4authNtB4_13AuthFramework14validate_token0CsicSbkS8Jtz5_29edge_case_comprehensive_tests
FNDA:50,_RNCNvMNtCscyNIIr1ochp_14auth_framework4authNtB4_13AuthFramework15verify_sms_code0CsicSbkS8Jtz5_29edge_case_comprehensive_tests
FNDA:20,_RNCNvMNtCscyNIIr1ochp_14auth_framework4authNtB4_13AuthFramework16check_permission0CsicSbkS8Jtz5_29edge_case_comprehensive_tests
FNDA:2,_RNCNvMNtCscyNIIr1ochp_14auth_framework4authNtB4_13AuthFramework16grant_permission0CsicSbkS8Jtz5_29edge_case_comprehensive_tests
FNDA:50,_RNCNvMNtCscyNIIr1ochp_14auth_framework4authNtB4_13AuthFramework17validate_username0CsicSbkS8Jtz5_29edge_case_comprehensive_tests
FNDA:100,_RNCNvMNtCscyNIIr1ochp_14auth_framework4authNtB4_13AuthFramework19check_ip_rate_limit0CsicSbkS8Jtz5_29edge_case_comprehensive_tests
FNDA:60,_RNCNvMNtCscyNIIr1ochp_14auth_framework4authNtB4_13AuthFramework19validate_user_input0CsicSbkS8Jtz5_29edge_case_comprehensive_tests
FNDA:21,_RNCNvMNtCscyNIIr1ochp_14auth_framework4authNtB4_13AuthFramework20cleanup_expired_data0CsicSbkS8Jtz5_29edge_case_comprehensive_tests
FNDA:10,_RNCNvMNtCscyNIIr1ochp_14auth_framework4authNtB4_13AuthFramework21validate_display_name0CsicSbkS8Jtz5_29edge_case_comprehensive_tests
FNDA:80,_RNCNvMNtCscyNIIr1ochp_14auth_framework4authNtB4_13AuthFramework22initiate_sms_challenge0CsicSbkS8Jtz5_29edge_case_comprehensive_tests
FNDA:0,_RNCNCNvMNtCscyNIIr1ochp_14auth_framework4authNtB6_13AuthFramework10initialize00CsbFHLMMuDGG9_24edge_cases_comprehensive
FNDA:0,_RNCNCNvMNtCscyNIIr1ochp_14auth_framework4authNtB6_13AuthFramework20cleanup_expired_data00CsbFHLMMuDGG9_24edge_cases_comprehensive
FNDA:0,_RNCNCNvMNtCscyNIIr1ochp_14auth_framework4authNtB6_13AuthFramework20cleanup_expired_data0s_0CsbFHLMMuDGG9_24edge_cases_comprehensive
FNDA:10,_RNCNvMNtCscyNIIr1ochp_14auth_framework4authNtB4_13AuthFramework10initialize0CsbFHLMMuDGG9_24edge_cases_comprehensive
FNDA:46,_RNCNvMNtCscyNIIr1ochp_14auth_framework4authNtB4_13AuthFramework11get_session0CsbFHLMMuDGG9_24edge_cases_comprehensive
FNDA:37,_RNCNvMNtCscyNIIr1ochp_14auth_framework4authNtB4_13AuthFramework14create_session0CsbFHLMMuDGG9_24edge_cases_comprehensive
FNDA:30,_RNCNvMNtCscyNIIr1ochp_14auth_framework4authNtB4_13AuthFramework14delete_session0CsbFHLMMuDGG9_24edge_cases_comprehensive
FNDA:7,_RNCNvMNtCscyNIIr1ochp_14auth_framework4authNtB4_13AuthFramework14validate_token0CsbFHLMMuDGG9_24edge_cases_comprehensive
FNDA:10,_RNCNvMNtCscyNIIr1ochp_14auth_framework4authNtB4_13AuthFramework20cleanup_expired_data0CsbFHLMMuDGG9_24edge_cases_comprehensive
FNDA:0,_RNCNCNvMNtCscyNIIr1ochp_14auth_framework4authNtB6_13AuthFramework10initialize00CsltvPzVvOkyD_24error_path_comprehensive
FNDA:0,_RNCNCNvMNtCscyNIIr1ochp_14auth_framework4authNtB6_13AuthFramework20cleanup_expired_data00CsltvPzVvOkyD_24error_path_comprehensive
FNDA:0,_RNCNCNvMNtCscyNIIr1ochp_14auth_framework4authNtB6_13AuthFramework20cleanup_expired_data0s_0CsltvPzVvOkyD_24error_path_comprehensive
FNDA:15,_RNCNvMNtCscyNIIr1ochp_14auth_framework4authNtB4_13AuthFramework10initialize0CsltvPzVvOkyD_24error_path_comprehensive
FNDA:59,_RNCNvMNtCscyNIIr1ochp_14auth_framework4authNtB4_13AuthFramework11get_session0CsltvPzVvOkyD_24error_path_comprehensive
FNDA:6057,_RNCNvMNtCscyNIIr1ochp_14auth_framework4authNtB4_13AuthFramework14create_session0CsltvPzVvOkyD_24error_path_comprehensive
FNDA:1158,_RNCNvMNtCscyNIIr1ochp_14auth_framework4authNtB4_13AuthFramework14delete_session0CsltvPzVvOkyD_24error_path_comprehensive
FNDA:10,_RNCNvMNtCscyNIIr1ochp_14auth_framework4authNtB4_13AuthFramework14validate_token0CsltvPzVvOkyD_24error_path_comprehensive
FNDA:20,_RNCNvMNtCscyNIIr1ochp_14auth_framework4authNtB4_13AuthFramework20cleanup_expired_data0CsltvPzVvOkyD_24error_path_comprehensive
FNDA:3,_RINvMNtCscyNIIr1ochp_14auth_framework4authNtB3_13AuthFramework15register_methodReECs7NqCd0yVQNh_20rfc_compliance_final
FNDA:3,_RINvMNtCscyNIIr1ochp_14auth_framework4authNtB3_13AuthFramework17create_auth_tokenReB1h_ECs7NqCd0yVQNh_20rfc_compliance_final
FNDA:3,_RNCINvMNtCscyNIIr1ochp_14auth_framework4authNtB5_13AuthFramework17create_auth_tokenReB1j_E0Cs7NqCd0yVQNh_20rfc_compliance_final
FNDA:0,_RNCNCINvMNtCscyNIIr1ochp_14auth_framework4authNtB7_13AuthFramework17create_auth_tokenReB1l_E00Cs7NqCd0yVQNh_20rfc_compliance_final
FNDA:0,_RNCNCNvMNtCscyNIIr1ochp_14auth_framework4authNtB6_13AuthFramework10initialize00Cs7NqCd0yVQNh_20rfc_compliance_final
FNDA:0,_RNCNCNvMNtCscyNIIr1ochp_14auth_framework4authNtB6_13AuthFramework20cleanup_expired_data00Cs7NqCd0yVQNh_20rfc_compliance_final
FNDA:0,_RNCNCNvMNtCscyNIIr1ochp_14auth_framework4authNtB6_13AuthFramework20cleanup_expired_data0s_0Cs7NqCd0yVQNh_20rfc_compliance_final
FNDA:3,_RNCNvMNtCscyNIIr1ochp_14auth_framework4authNtB4_13AuthFramework10initialize0Cs7NqCd0yVQNh_20rfc_compliance_final
FNDA:6,_RNCNvMNtCscyNIIr1ochp_14auth_framework4authNtB4_13AuthFramework14validate_token0Cs7NqCd0yVQNh_20rfc_compliance_final
FNDA:4,_RNCNvMNtCscyNIIr1ochp_14auth_framework4authNtB4_13AuthFramework16check_permission0Cs7NqCd0yVQNh_20rfc_compliance_final
FNDA:4,_RNCNvMNtCscyNIIr1ochp_14auth_framework4authNtB4_13AuthFramework16grant_permission0Cs7NqCd0yVQNh_20rfc_compliance_final
FNDA:3,_RNCNvMNtCscyNIIr1ochp_14auth_framework4authNtB4_13AuthFramework20cleanup_expired_data0Cs7NqCd0yVQNh_20rfc_compliance_final
FNDA:1,_RINvMNtCscyNIIr1ochp_14auth_framework4authNtB3_13AuthFramework15register_methodReECslCKlilea2JM_20rfc_compliance_tests
FNDA:0,_RNCNCNvMNtCscyNIIr1ochp_14auth_framework4authNtB6_13AuthFramework10initialize00CslCKlilea2JM_20rfc_compliance_tests
FNDA:0,_RNCNCNvMNtCscyNIIr1ochp_14auth_framework4authNtB6_13AuthFramework20cleanup_expired_data00CslCKlilea2JM_20rfc_compliance_tests
FNDA:0,_RNCNCNvMNtCscyNIIr1ochp_14auth_framework4authNtB6_13AuthFramework20cleanup_expired_data0s_0CslCKlilea2JM_20rfc_compliance_tests
FNDA:1,_RNCNvMNtCscyNIIr1ochp_14auth_framework4authNtB4_13AuthFramework10initialize0CslCKlilea2JM_20rfc_compliance_tests
FNDA:1,_RNCNvMNtCscyNIIr1ochp_14auth_framework4authNtB4_13AuthFramework20cleanup_expired_data0CslCKlilea2JM_20rfc_compliance_tests
FNDA:0,_RNCNCNvMNtCscyNIIr1ochp_14auth_framework4authNtB6_13AuthFramework10initialize00Csc6kGvynQBi2_22security_comprehensive
FNDA:0,_RNCNCNvMNtCscyNIIr1ochp_14auth_framework4authNtB6_13AuthFramework20cleanup_expired_data00Csc6kGvynQBi2_22security_comprehensive
FNDA:0,_RNCNCNvMNtCscyNIIr1ochp_14auth_framework4authNtB6_13AuthFramework20cleanup_expired_data0s_0Csc6kGvynQBi2_22security_comprehensive
FNDA:11,_RNCNvMNtCscyNIIr1ochp_14auth_framework4authNtB4_13AuthFramework10initialize0Csc6kGvynQBi2_22security_comprehensive
FNDA:433,_RNCNvMNtCscyNIIr1ochp_14auth_framework4authNtB4_13AuthFramework11get_session0Csc6kGvynQBi2_22security_comprehensive
FNDA:10167,_RNCNvMNtCscyNIIr1ochp_14auth_framework4authNtB4_13AuthFramework14create_session0Csc6kGvynQBi2_22security_comprehensive
FNDA:150,_RNCNvMNtCscyNIIr1ochp_14auth_framework4authNtB4_13AuthFramework14delete_session0Csc6kGvynQBi2_22security_comprehensive
FNDA:4,_RNCNvMNtCscyNIIr1ochp_14auth_framework4authNtB4_13AuthFramework14validate_token0Csc6kGvynQBi2_22security_comprehensive
FNDA:11,_RNCNvMNtCscyNIIr1ochp_14auth_framework4authNtB4_13AuthFramework20cleanup_expired_data0Csc6kGvynQBi2_22security_comprehensive
FNDA:24,_RINvMNtCscyNIIr1ochp_14auth_framework4authNtB3_13AuthFramework15register_methodReECs9eddOzlogUM_26simple_comprehensive_tests
FNDA:4,_RINvMNtCscyNIIr1ochp_14auth_framework4authNtB3_13AuthFramework17create_auth_tokenReB1h_ECs9eddOzlogUM_26simple_comprehensive_tests
FNDA:4,_RNCINvMNtCscyNIIr1ochp_14auth_framework4authNtB5_13AuthFramework17create_auth_tokenReB1j_E0Cs9eddOzlogUM_26simple_comprehensive_tests
FNDA:1,_RNCNCINvMNtCscyNIIr1ochp_14auth_framework4authNtB7_13AuthFramework17create_auth_tokenReB1l_E00Cs9eddOzlogUM_26simple_comprehensive_tests
FNDA:0,_RNCNCNvMNtCscyNIIr1ochp_14auth_framework4authNtB6_13AuthFramework10initialize00Cs9eddOzlogUM_26simple_comprehensive_tests
FNDA:0,_RNCNCNvMNtCscyNIIr1ochp_14auth_framework4authNtB6_13AuthFramework15verify_sms_code00Cs9eddOzlogUM_26simple_comprehensive_tests
FNDA:42,_RNCNCNvMNtCscyNIIr1ochp_14auth_framework4authNtB6_13AuthFramework17validate_username00Cs9eddOzlogUM_26simple_comprehensive_tests
FNDA:0,_RNCNCNvMNtCscyNIIr1ochp_14auth_framework4authNtB6_13AuthFramework20cleanup_expired_data00Cs9eddOzlogUM_26simple_comprehensive_tests
FNDA:0,_RNCNCNvMNtCscyNIIr1ochp_14auth_framework4authNtB6_13AuthFramework20cleanup_expired_data0s_0Cs9eddOzlogUM_26simple_comprehensive_tests
FNDA:0,_RNCNCNvMNtCscyNIIr1ochp_14auth_framework4authNtB6_13AuthFramework20get_security_metrics00Cs9eddOzlogUM_26simple_comprehensive_tests
FNDA:0,_RNCNCNvMNtCscyNIIr1ochp_14auth_framework4authNtB6_13AuthFramework20get_security_metrics0s_0Cs9eddOzlogUM_26simple_comprehensive_tests
FNDA:24,_RNCNvMNtCscyNIIr1ochp_14auth_framework4authNtB4_13AuthFramework10initialize0Cs9eddOzlogUM_26simple_comprehensive_tests
FNDA:1,_RNCNvMNtCscyNIIr1ochp_14auth_framework4authNtB4_13AuthFramework11get_session0Cs9eddOzlogUM_26simple_comprehensive_tests
FNDA:1,_RNCNvMNtCscyNIIr1ochp_14auth_framework4authNtB4_13AuthFramework14delete_session0Cs9eddOzlogUM_26simple_comprehensive_tests
FNDA:7,_RNCNvMNtCscyNIIr1ochp_14auth_framework4authNtB4_13AuthFramework14register_email0Cs9eddOzlogUM_26simple_comprehensive_tests
FNDA:4,_RNCNvMNtCscyNIIr1ochp_14auth_framework4authNtB4_13AuthFramework14validate_token0Cs9eddOzlogUM_26simple_comprehensive_tests
FNDA:2,_RNCNvMNtCscyNIIr1ochp_14auth_framework4authNtB4_13AuthFramework15verify_sms_code0Cs9eddOzlogUM_26simple_comprehensive_tests
FNDA:1,_RNCNvMNtCscyNIIr1ochp_14auth_framework4authNtB4_13AuthFramework16check_permission0Cs9eddOzlogUM_26simple_comprehensive_tests
FNDA:1,_RNCNvMNtCscyNIIr1ochp_14auth_framework4authNtB4_13AuthFramework16grant_permission0Cs9eddOzlogUM_26simple_comprehensive_tests
FNDA:1,_RNCNvMNtCscyNIIr1ochp_14auth_framework4authNtB4_13AuthFramework16list_user_tokens0Cs9eddOzlogUM_26simple_comprehensive_tests
FNDA:7,_RNCNvMNtCscyNIIr1ochp_14auth_framework4authNtB4_13AuthFramework17validate_username0Cs9eddOzlogUM_26simple_comprehensive_tests
FNDA:6,_RNCNvMNtCscyNIIr1ochp_14auth_framework4authNtB4_13AuthFramework19validate_user_input0Cs9eddOzlogUM_26simple_comprehensive_tests
FNDA:25,_RNCNvMNtCscyNIIr1ochp_14auth_framework4authNtB4_13AuthFramework20cleanup_expired_data0Cs9eddOzlogUM_26simple_comprehensive_tests
FNDA:2,_RNCNvMNtCscyNIIr1ochp_14auth_framework4authNtB4_13AuthFramework20get_security_metrics0Cs9eddOzlogUM_26simple_comprehensive_tests
FNDA:5,_RNCNvMNtCscyNIIr1ochp_14auth_framework4authNtB4_13AuthFramework21validate_display_name0Cs9eddOzlogUM_26simple_comprehensive_tests
FNDA:3,_RNCNvMNtCscyNIIr1ochp_14auth_framework4authNtB4_13AuthFramework22initiate_sms_challenge0Cs9eddOzlogUM_26simple_comprehensive_tests
FNDA:1,_RNCNvMNtCscyNIIr1ochp_14auth_framework4authNtB4_13AuthFramework24initiate_email_challenge0Cs9eddOzlogUM_26simple_comprehensive_tests
FNDA:2,_RNCNvMNtCscyNIIr1ochp_14auth_framework4authNtB4_13AuthFramework26validate_password_strength0Cs9eddOzlogUM_26simple_comprehensive_tests
FNDA:2,_RNCNvMNtCscyNIIr1ochp_14auth_framework4authNtB4_13AuthFramework30aggregate_audit_log_statistics0Cs9eddOzlogUM_26simple_comprehensive_tests
FNDA:2,_RINvMNtCscyNIIr1ochp_14auth_framework4authNtB3_13AuthFramework15register_methodReECsfeSduX9iH0O_30simplified_comprehensive_tests
FNDA:0,_RNCNCNvMNtCscyNIIr1ochp_14auth_framework4authNtB6_13AuthFramework10initialize00CsfeSduX9iH0O_30simplified_comprehensive_tests
FNDA:0,_RNCNCNvMNtCscyNIIr1ochp_14auth_framework4authNtB6_13AuthFramework20cleanup_expired_data00CsfeSduX9iH0O_30simplified_comprehensive_tests
FNDA:0,_RNCNCNvMNtCscyNIIr1ochp_14auth_framework4authNtB6_13AuthFramework20cleanup_expired_data0s_0CsfeSduX9iH0O_30simplified_comprehensive_tests
FNDA:3,_RNCNvMNtCscyNIIr1ochp_14auth_framework4authNtB4_13AuthFramework10initialize0CsfeSduX9iH0O_30simplified_comprehensive_tests
FNDA:3,_RNCNvMNtCscyNIIr1ochp_14auth_framework4authNtB4_13AuthFramework20cleanup_expired_data0CsfeSduX9iH0O_30simplified_comprehensive_tests
FNDA:0,_RNCNCNvMNtCscyNIIr1ochp_14auth_framework4authNtB6_13AuthFramework10initialize00Cs1uZYD0dh0SA_18test_coverage_gaps
FNDA:0,_RNCNCNvMNtCscyNIIr1ochp_14auth_framework4authNtB6_13AuthFramework20cleanup_expired_data00Cs1uZYD0dh0SA_18test_coverage_gaps
FNDA:0,_RNCNCNvMNtCscyNIIr1ochp_14auth_framework4authNtB6_13AuthFramework20cleanup_expired_data0s_0Cs1uZYD0dh0SA_18test_coverage_gaps
FNDA:5,_RNCNvMNtCscyNIIr1ochp_14auth_framework4authNtB4_13AuthFramework10initialize0Cs1uZYD0dh0SA_18test_coverage_gaps
FNDA:11,_RNCNvMNtCscyNIIr1ochp_14auth_framework4authNtB4_13AuthFramework11get_session0Cs1uZYD0dh0SA_18test_coverage_gaps
FNDA:11,_RNCNvMNtCscyNIIr1ochp_14auth_framework4authNtB4_13AuthFramework14create_session0Cs1uZYD0dh0SA_18test_coverage_gaps
FNDA:10,_RNCNvMNtCscyNIIr1ochp_14auth_framework4authNtB4_13AuthFramework14delete_session0Cs1uZYD0dh0SA_18test_coverage_gaps
FNDA:5,_RNCNvMNtCscyNIIr1ochp_14auth_framework4authNtB4_13AuthFramework20cleanup_expired_data0Cs1uZYD0dh0SA_18test_coverage_gaps
FNDA:7,_RINvMNtCscyNIIr1ochp_14auth_framework4authNtB3_13AuthFramework15register_methodReECsl2ajL3UEBIU_27working_comprehensive_tests
FNDA:2,_RINvMNtCscyNIIr1ochp_14auth_framework4authNtB3_13AuthFramework17create_auth_tokenReB1h_ECsl2ajL3UEBIU_27working_comprehensive_tests
FNDA:2,_RNCINvMNtCscyNIIr1ochp_14auth_framework4authNtB5_13AuthFramework17create_auth_tokenReB1j_E0Csl2ajL3UEBIU_27working_comprehensive_tests
FNDA:0,_RNCNCINvMNtCscyNIIr1ochp_14auth_framework4authNtB7_13AuthFramework17create_auth_tokenReB1l_E00Csl2ajL3UEBIU_27working_comprehensive_tests
FNDA:0,_RNCNCNCNvMNtCscyNIIr1ochp_14auth_framework4authNtB8_13AuthFramework29generate_totp_code_for_window000Csl2ajL3UEBIU_27working_comprehensive_tests
FNDA:0,_RNCNCNvMNtCscyNIIr1ochp_14auth_framework4authNtB6_13AuthFramework10initialize00Csl2ajL3UEBIU_27working_comprehensive_tests
FNDA:1,_RNCNCNvMNtCscyNIIr1ochp_14auth_framework4authNtB6_13AuthFramework13get_user_info00Csl2ajL3UEBIU_27working_comprehensive_tests
FNDA:2,_RNCNCNvMNtCscyNIIr1ochp_14auth_framework4authNtB6_13AuthFramework14revoke_api_key00Csl2ajL3UEBIU_27working_comprehensive_tests
FNDA:3,_RNCNCNvMNtCscyNIIr1ochp_14auth_framework4authNtB6_13AuthFramework16validate_api_key00Csl2ajL3UEBIU_27working_comprehensive_tests
FNDA:40,_RNCNCNvMNtCscyNIIr1ochp_14auth_framework4authNtB6_13AuthFramework17validate_username00Csl2ajL3UEBIU_27working_comprehensive_tests
FNDA:0,_RNCNCNvMNtCscyNIIr1ochp_14auth_framework4authNtB6_13AuthFramework20cleanup_expired_data00Csl2ajL3UEBIU_27working_comprehensive_tests
FNDA:0,_RNCNCNvMNtCscyNIIr1ochp_14auth_framework4authNtB6_13AuthFramework20cleanup_expired_data0s_0Csl2ajL3UEBIU_27working_comprehensive_tests
FNDA:0,_RNCNCNvMNtCscyNIIr1ochp_14auth_framework4authNtB6_13AuthFramework20get_security_metrics00Csl2ajL3UEBIU_27working_comprehensive_tests
FNDA:0,_RNCNCNvMNtCscyNIIr1ochp_14auth_framework4authNtB6_13AuthFramework20get_security_metrics0s_0Csl2ajL3UEBIU_27working_comprehensive_tests
FNDA:0,_RNCNCNvMNtCscyNIIr1ochp_14auth_framework4authNtB6_13AuthFramework21generate_backup_codes00Csl2ajL3UEBIU_27working_comprehensive_tests
FNDA:0,_RNCNCNvMNtCscyNIIr1ochp_14auth_framework4authNtB6_13AuthFramework21generate_backup_codes0s_0Csl2ajL3UEBIU_27working_comprehensive_tests
FNDA:10,_RNCNCNvMNtCscyNIIr1ochp_14auth_framework4authNtB6_13AuthFramework21register_phone_number00Csl2ajL3UEBIU_27working_comprehensive_tests
FNDA:2,_RNCNCNvMNtCscyNIIr1ochp_14auth_framework4authNtB6_13AuthFramework29generate_totp_code_for_window00Csl2ajL3UEBIU_27working_comprehensive_tests
FNDA:0,_RNCNCNvMNtCscyNIIr1ochp_14auth_framework4authNtB6_13AuthFramework29generate_totp_code_for_window0s_0Csl2ajL3UEBIU_27working_comprehensive_tests
FNDA:11,_RNCNvMNtCscyNIIr1ochp_14auth_framework4authNtB4_13AuthFramework10initialize0Csl2ajL3UEBIU_27working_comprehensive_tests
FNDA:3,_RNCNvMNtCscyNIIr1ochp_14auth_framework4authNtB4_13AuthFramework11get_session0Csl2ajL3UEBIU_27working_comprehensive_tests
FNDA:2,_RNCNvMNtCscyNIIr1ochp_14auth_framework4authNtB4_13AuthFramework12revoke_token0Csl2ajL3UEBIU_27working_comprehensive_tests
FNDA:1,_RNCNvMNtCscyNIIr1ochp_14auth_framework4authNtB4_13AuthFramework13get_user_info0Csl2ajL3UEBIU_27working_comprehensive_tests
FNDA:3,_RNCNvMNtCscyNIIr1ochp_14auth_framework4authNtB4_13AuthFramework14create_api_key0Csl2ajL3UEBIU_27working_comprehensive_tests
FNDA:3,_RNCNvMNtCscyNIIr1ochp_14auth_framework4authNtB4_13AuthFramework14create_session0Csl2ajL3UEBIU_27working_comprehensive_tests
FNDA:2,_RNCNvMNtCscyNIIr1ochp_14auth_framework4authNtB4_13AuthFramework14delete_session0Csl2ajL3UEBIU_27working_comprehensive_tests
FNDA:1,_RNCNvMNtCscyNIIr1ochp_14auth_framework4authNtB4_13AuthFramework14register_email0Csl2ajL3UEBIU_27working_comprehensive_tests
FNDA:2,_RNCNvMNtCscyNIIr1ochp_14auth_framework4authNtB4_13AuthFramework14revoke_api_key0Csl2ajL3UEBIU_27working_comprehensive_tests
FNDA:5,_RNCNvMNtCscyNIIr1ochp_14auth_framework4authNtB4_13AuthFramework14validate_token0Csl2ajL3UEBIU_27working_comprehensive_tests
FNDA:1,_RNCNvMNtCscyNIIr1ochp_14auth_framework4authNtB4_13AuthFramework16check_permission0Csl2ajL3UEBIU_27working_comprehensive_tests
FNDA:1,_RNCNvMNtCscyNIIr1ochp_14auth_framework4authNtB4_13AuthFramework16list_user_tokens0Csl2ajL3UEBIU_27working_comprehensive_tests
FNDA:3,_RNCNvMNtCscyNIIr1ochp_14auth_framework4authNtB4_13AuthFramework16validate_api_key0Csl2ajL3UEBIU_27working_comprehensive_tests
FNDA:10,_RNCNvMNtCscyNIIr1ochp_14auth_framework4authNtB4_13AuthFramework17validate_username0Csl2ajL3UEBIU_27working_comprehensive_tests
FNDA:2,_RNCNvMNtCscyNIIr1ochp_14auth_framework4authNtB4_13AuthFramework18generate_totp_code0Csl2ajL3UEBIU_27working_comprehensive_tests
FNDA:3,_RNCNvMNtCscyNIIr1ochp_14auth_framework4authNtB4_13AuthFramework19check_ip_rate_limit0Csl2ajL3UEBIU_27working_comprehensive_tests
FNDA:12,_RNCNvMNtCscyNIIr1ochp_14auth_framework4authNtB4_13AuthFramework20cleanup_expired_data0Csl2ajL3UEBIU_27working_comprehensive_tests
FNDA:2,_RNCNvMNtCscyNIIr1ochp_14auth_framework4authNtB4_13AuthFramework20generate_totp_secret0Csl2ajL3UEBIU_27working_comprehensive_tests
FNDA:1,_RNCNvMNtCscyNIIr1ochp_14auth_framework4authNtB4_13AuthFramework20get_security_metrics0Csl2ajL3UEBIU_27working_comprehensive_tests
FNDA:1,_RNCNvMNtCscyNIIr1ochp_14auth_framework4authNtB4_13AuthFramework21generate_backup_codes0Csl2ajL3UEBIU_27working_comprehensive_tests
FNDA:1,_RNCNvMNtCscyNIIr1ochp_14auth_framework4authNtB4_13AuthFramework21generate_totp_qr_code0Csl2ajL3UEBIU_27working_comprehensive_tests
FNDA:1,_RNCNvMNtCscyNIIr1ochp_14auth_framework4authNtB4_13AuthFramework21register_phone_number0Csl2ajL3UEBIU_27working_comprehensive_tests
FNDA:4,_RNCNvMNtCscyNIIr1ochp_14auth_framework4authNtB4_13AuthFramework21validate_display_name0Csl2ajL3UEBIU_27working_comprehensive_tests
FNDA:2,_RNCNvMNtCscyNIIr1ochp_14auth_framework4authNtB4_13AuthFramework29generate_totp_code_for_window0Csl2ajL3UEBIU_27working_comprehensive_tests
FNDA:1,_RNCNvMNtCscyNIIr1ochp_14auth_framework4authNtB4_13AuthFramework30aggregate_audit_log_statistics0Csl2ajL3UEBIU_27working_comprehensive_tests
FNDA:2,_RINvMNtCscyNIIr1ochp_14auth_framework4authNtB3_13AuthFramework15register_methodReECs1NLxqcKBEBs_25working_integration_tests
FNDA:2,_RINvMNtCscyNIIr1ochp_14auth_framework4authNtB3_13AuthFramework17create_auth_tokenReB1h_ECs1NLxqcKBEBs_25working_integration_tests
FNDA:2,_RNCINvMNtCscyNIIr1ochp_14auth_framework4authNtB5_13AuthFramework17create_auth_tokenReB1j_E0Cs1NLxqcKBEBs_25working_integration_tests
FNDA:0,_RNCNCINvMNtCscyNIIr1ochp_14auth_framework4authNtB7_13AuthFramework17create_auth_tokenReB1l_E00Cs1NLxqcKBEBs_25working_integration_tests
FNDA:0,_RNCNCNvMNtCscyNIIr1ochp_14auth_framework4authNtB6_13AuthFramework10initialize00Cs1NLxqcKBEBs_25working_integration_tests
FNDA:0,_RNCNCNvMNtCscyNIIr1ochp_14auth_framework4authNtB6_13AuthFramework20cleanup_expired_data00Cs1NLxqcKBEBs_25working_integration_tests
FNDA:0,_RNCNCNvMNtCscyNIIr1ochp_14auth_framework4authNtB6_13AuthFramework20cleanup_expired_data0s_0Cs1NLxqcKBEBs_25working_integration_tests
FNDA:2,_RNCNvMNtCscyNIIr1ochp_14auth_framework4authNtB4_13AuthFramework10initialize0Cs1NLxqcKBEBs_25working_integration_tests
FNDA:3,_RNCNvMNtCscyNIIr1ochp_14auth_framework4authNtB4_13AuthFramework14validate_token0Cs1NLxqcKBEBs_25working_integration_tests
FNDA:1,_RNCNvMNtCscyNIIr1ochp_14auth_framework4authNtB4_13AuthFramework16check_permission0Cs1NLxqcKBEBs_25working_integration_tests
FNDA:1,_RNCNvMNtCscyNIIr1ochp_14auth_framework4authNtB4_13AuthFramework16grant_permission0Cs1NLxqcKBEBs_25working_integration_tests
FNDA:2,_RNCNvMNtCscyNIIr1ochp_14auth_framework4authNtB4_13AuthFramework20cleanup_expired_data0Cs1NLxqcKBEBs_25working_integration_tests
FNF:211
FNH:114
DA:155,0
DA:156,0
DA:157,0
DA:158,0
DA:160,0
DA:161,0
DA:162,0
DA:163,0
DA:164,0
DA:165,0
DA:172,171
DA:174,171
DA:175,171
DA:176,171
DA:179,171
DA:180,171
DA:181,171
DA:183,171
DA:184,171
DA:185,171
DA:186,171
DA:187,171
DA:188,171
DA:189,171
DA:190,171
DA:191,171
DA:192,171
DA:193,171
DA:194,171
DA:195,171
DA:196,171
DA:197,171
DA:198,171
DA:204,1
DA:206,1
DA:207,1
DA:208,1
DA:211,0
DA:212,0
DA:213,0
DA:214,0
DA:215,0
DA:216,0
DA:217,0
DA:218,0
DA:219,0
DA:220,0
DA:221,0
DA:222,0
DA:223,0
DA:224,0
DA:225,0
DA:226,0
DA:227,0
DA:228,0
DA:229,0
DA:230,0
DA:231,0
DA:233,0
DA:234,0
DA:235,0
DA:236,0
DA:237,0
DA:241,0
DA:242,0
DA:243,0
DA:244,0
DA:245,0
DA:246,0
DA:247,0
DA:248,0
DA:249,0
DA:252,0
DA:253,0
DA:254,0
DA:255,0
DA:256,0
DA:258,0
DA:262,0
DA:263,0
DA:265,0
DA:266,0
DA:267,0
DA:268,0
DA:269,0
DA:270,0
DA:271,0
DA:272,0
DA:273,0
DA:274,0
DA:275,0
DA:276,0
DA:277,0
DA:278,0
DA:279,0
DA:280,1
DA:288,3
DA:289,3
DA:290,3
DA:293,2
DA:294,2
DA:295,2
DA:296,2
DA:297,2
DA:303,1
DA:304,1
DA:305,1
DA:306,1
DA:307,1
DA:308,1
DA:309,1
DA:310,1
DA:313,99
DA:314,99
DA:315,99
DA:318,99
DA:319,0
DA:320,0
DA:321,99
DA:323,99
DA:324,99
DA:335,160
DA:336,160
DA:337,4
DA:338,156
DA:340,156
DA:343,156
DA:344,3
DA:345,3
DA:348,153
DA:349,23
DA:350,0
DA:351,0
DA:352,0
DA:353,23
DA:354,23
DA:355,130
DA:356,88
DA:357,0
DA:358,0
DA:359,0
DA:360,88
DA:361,88
DA:362,42
DA:363,42
DA:364,0
DA:365,0
DA:366,0
DA:367,42
DA:368,42
DA:371,0
DA:372,0
DA:373,0
DA:374,0
DA:375,0
DA:376,0
DA:377,0
DA:379,0
DA:380,0
DA:381,0
DA:384,0
DA:388,153
DA:391,153
DA:400,153
DA:401,153
DA:402,153
DA:406,153
DA:407,142
DA:408,142
DA:409,142
DA:410,142
DA:411,142
DA:415,153
DA:416,153
DA:420,153
DA:422,153
DA:423,153
DA:425,153
DA:426,160
DA:429,349
DA:430,349
DA:431,349
DA:432,349
DA:433,349
DA:434,349
DA:435,349
DA:436,349
DA:439,351
DA:440,351
DA:441,351
DA:442,351
DA:443,351
DA:444,351
DA:448,351
DA:451,351
DA:453,351
DA:454,5
DA:455,346
DA:458,346
DA:459,346
DA:460,346
DA:463,346
DA:464,346
DA:465,346
DA:466,346
DA:467,0
DA:470,346
DA:471,199
DA:472,0
DA:473,0
DA:474,0
DA:475,0
DA:477,199
DA:478,199
DA:479,199
DA:480,199
DA:482,0
DA:484,147
DA:486,346
DA:487,351
DA:490,346
DA:491,346
DA:492,346
DA:493,346
DA:494,346
DA:495,346
DA:497,346
DA:498,344
DA:499,344
DA:501,344
DA:504,344
DA:505,0
DA:506,0
DA:509,0
DA:510,344
DA:511,2
DA:514,346
DA:515,147
DA:516,147
DA:519,199
DA:520,0
DA:522,0
DA:526,199
DA:529,199
DA:530,0
DA:531,0
DA:532,0
DA:537,0
DA:540,0
DA:541,0
DA:543,0
DA:546,0
DA:547,0
DA:548,0
DA:553,0
DA:557,0
DA:558,0
DA:559,0
DA:560,0
DA:561,0
DA:562,0
DA:564,0
DA:567,0
DA:568,0
DA:570,0
DA:573,199
DA:574,199
DA:575,0
DA:580,199
DA:581,199
DA:583,199
DA:586,346
DA:589,0
DA:590,0
DA:593,0
DA:594,0
DA:595,0
DA:596,0
DA:598,0
DA:599,0
DA:600,0
DA:601,0
DA:604,0
DA:605,0
DA:606,0
DA:609,0
DA:612,0
DA:613,0
DA:614,0
DA:616,0
DA:617,0
DA:620,0
DA:622,0
DA:623,0
DA:627,0
DA:628,0
DA:631,164
DA:632,164
DA:633,3
DA:634,161
DA:637,161
DA:638,3
DA:639,3
DA:640,158
DA:643,158
DA:644,146
DA:646,12
DA:647,12
DA:652,146
DA:654,139
DA:655,139
DA:656,139
DA:658,139
DA:659,139
DA:661,7
DA:662,7
DA:664,164
DA:667,1
DA:668,1
DA:669,0
DA:670,1
DA:673,1
DA:676,1
DA:677,1
DA:678,1
DA:679,1
DA:680,1
DA:682,1
DA:684,1
DA:687,27
DA:688,27
DA:689,27
DA:690,27
DA:691,27
DA:692,27
DA:693,27
DA:694,0
DA:695,27
DA:697,27
DA:698,27
DA:699,27
DA:700,27
DA:703,0
DA:704,0
DA:707,0
DA:708,0
DA:709,0
DA:711,0
DA:712,0
DA:713,0
DA:714,0
DA:717,0
DA:718,0
DA:720,0
DA:722,0
DA:723,0
DA:726,2
DA:727,2
DA:730,2
DA:731,2
DA:734,2
DA:736,2
DA:738,2
DA:739,2
DA:742,3
DA:743,3
DA:744,3
DA:745,3
DA:746,3
DA:747,3
DA:750,3
DA:753,3
DA:754,3
DA:755,3
DA:757,3
DA:758,0
DA:761,3
DA:762,3
DA:763,3
DA:765,3
DA:767,3
DA:768,3
DA:771,5
DA:772,5
DA:775,5
DA:776,5
DA:777,5
DA:778,5
DA:779,5
DA:782,0
DA:783,0
DA:784,0
DA:787,0
DA:788,0
DA:789,0
DA:790,0
DA:791,0
DA:792,0
DA:793,0
DA:794,0
DA:795,0
DA:796,5
DA:799,2
DA:800,2
DA:803,2
DA:804,2
DA:805,2
DA:806,2
DA:807,2
DA:809,0
DA:811,0
DA:813,0
DA:814,2
DA:817,16276
DA:818,16276
DA:819,16276
DA:820,16276
DA:821,16276
DA:822,16276
DA:823,16276
DA:824,16276
DA:825,2
DA:826,16274
DA:829,16274
DA:830,16274
DA:831,16274
DA:835,16274
DA:836,0
DA:837,0
DA:840,0
DA:841,0
DA:842,0
DA:843,16274
DA:846,16274
DA:848,16274
DA:849,0
DA:850,0
DA:853,0
DA:854,16274
DA:857,16274
DA:858,3
DA:859,3
DA:860,3
DA:861,3
DA:862,16271
DA:863,16271
DA:865,5
DA:866,5
DA:867,5
DA:868,5
DA:869,16266
DA:871,16266
DA:872,16266
DA:873,16266
DA:875,16266
DA:878,16266
DA:879,16266
DA:880,16266
DA:881,16266
DA:882,16266
DA:883,16266
DA:885,16266
DA:887,16266
DA:888,16276
DA:891,558
DA:892,558
DA:893,0
DA:894,558
DA:896,558
DA:897,558
DA:900,1354
DA:901,1354
DA:902,0
DA:903,1354
DA:905,1354
DA:908,1354
DA:909,1354
DA:910,1354
DA:911,1354
DA:912,1354
DA:913,1354
DA:915,1354
DA:916,1354
DA:917,1354
DA:920,3
DA:921,3
DA:922,3
DA:925,165
DA:926,165
DA:929,165
DA:933,165
DA:934,165
DA:935,165
DA:940,165
DA:941,165
DA:942,165
DA:946,165
DA:947,152
DA:948,152
DA:950,165
DA:951,165
DA:957,0
DA:959,0
DA:960,0
DA:962,0
DA:963,0
DA:965,0
DA:966,0
DA:968,0
DA:969,0
DA:971,0
DA:972,0
DA:974,0
DA:975,0
DA:977,0
DA:978,0
DA:980,0
DA:981,0
DA:984,0
DA:985,0
DA:986,0
DA:988,0
DA:989,0
DA:990,0
DA:993,0
DA:994,0
DA:997,6
DA:998,6
DA:1001,6
DA:1004,6
DA:1005,6
DA:1006,6
DA:1012,6
DA:1013,0
DA:1014,6
DA:1018,6
DA:1019,6
DA:1022,6
DA:1023,6
DA:1024,6
DA:1025,6
DA:1026,6
DA:1028,6
DA:1029,0
DA:1038,7
DA:1040,7
DA:1046,6
DA:1047,6
DA:1049,6
DA:1050,0
DA:1051,0
DA:1052,0
DA:1053,0
DA:1054,0
DA:1055,0
DA:1056,0
DA:1057,0
DA:1058,0
DA:1059,0
DA:1060,0
DA:1062,0
DA:1063,0
DA:1074,6
DA:1075,0
DA:1078,0
DA:1082,6
DA:1085,5
DA:1088,5
DA:1089,5
DA:1090,5
DA:1091,5
DA:1092,5
DA:1095,5
DA:1096,5
DA:1098,5
DA:1099,0
DA:1103,5
DA:1104,0
DA:1108,1
DA:1110,1
DA:1111,1
DA:1114,6
DA:1115,6
DA:1116,6
DA:1117,6
DA:1118,6
DA:1120,7
DA:1121,7
DA:1122,7
DA:1125,6
DA:1126,6
DA:1129,6
DA:1130,6
DA:1132,6
DA:1133,6
DA:1136,10
DA:1137,10
DA:1138,10
DA:1141,70
DA:1142,70
DA:1145,70
DA:1146,64
DA:1147,62
DA:1148,62
DA:1149,985
DA:1151,70
DA:1152,70
DA:1155,21
DA:1156,21
DA:1158,21
DA:1159,19
DA:1160,19
DA:1162,21
DA:1163,21
DA:1169,2
DA:1170,2
DA:1172,2
DA:1176,2
DA:1179,2
DA:1182,0
DA:1184,0
DA:1185,0
DA:1189,1
DA:1190,2
DA:1196,0
DA:1197,0
DA:1203,2
DA:1204,1
DA:1205,0
DA:1208,0
DA:1211,1
DA:1214,2
DA:1215,2
DA:1218,68
DA:1219,68
DA:1222,68
DA:1223,64
DA:1224,64
DA:1225,62
DA:1226,62
DA:1227,62
DA:1228,61
DA:1229,60
DA:1230,59
DA:1231,59
DA:1232,57
DA:1233,57
DA:1234,57
DA:1235,55
DA:1236,55
DA:1237,54
DA:1238,54
DA:1239,54
DA:1240,54
DA:1242,68
DA:1243,68
DA:1248,1268
DA:1249,1268
DA:1250,1268
DA:1251,1268
DA:1252,1268
DA:1253,1268
DA:1254,1268
DA:1255,1268
DA:1256,1268
DA:1259,1268
DA:1260,1268
DA:1261,1268
DA:1262,1268
DA:1265,1265
DA:1268,1265
DA:1269,1265
DA:1270,1265
DA:1273,1265
DA:1274,1265
DA:1275,1265
DA:1276,1265
DA:1277,1265
DA:1279,1265
DA:1282,1265
DA:1284,1265
DA:1285,0
DA:1286,0
DA:1289,0
DA:1290,0
DA:1291,0
DA:1292,1265
DA:1295,1265
DA:1298,1265
DA:1299,1265
DA:1300,1265
DA:1302,1265
DA:1303,1268
DA:1306,85
DA:1307,85
DA:1310,85
DA:1311,1
DA:1312,1
DA:1313,1
DA:1314,84
DA:1316,84
DA:1318,84
DA:1319,84
DA:1320,85
DA:1323,53
DA:1324,53
DA:1327,53
DA:1328,0
DA:1329,0
DA:1330,0
DA:1331,53
DA:1333,53
DA:1334,0
DA:1335,0
DA:1336,0
DA:1337,53
DA:1340,53
DA:1341,53
DA:1342,0
DA:1345,0
DA:1347,0
DA:1348,0
DA:1349,0
DA:1353,0
DA:1354,0
DA:1357,53
DA:1358,53
DA:1359,53
DA:1361,53
DA:1364,14
DA:1365,14
DA:1368,14
DA:1369,11
DA:1370,3
DA:1373,3
DA:1377,3
DA:1380,3
DA:1381,3
DA:1383,3
DA:1384,0
DA:1387,3
DA:1389,0
DA:1390,0
DA:1391,0
DA:1394,14
DA:1397,2
DA:1398,2
DA:1401,2
DA:1404,2
DA:1406,2
DA:1408,2
DA:1409,2
DA:1412,1
DA:1413,1
DA:1414,1
DA:1415,1
DA:1416,1
DA:1417,1
DA:1418,1
DA:1419,1
DA:1421,1
DA:1423,1
DA:1424,1
DA:1427,2
DA:1428,2
DA:1429,2
DA:1432,2
DA:1433,2
DA:1434,2
DA:1435,2
DA:1436,2
DA:1438,2
DA:1439,0
DA:1440,0
DA:1441,0
DA:1442,2
DA:1445,2
DA:1446,2
DA:1447,2
DA:1448,2
DA:1449,0
DA:1450,0
DA:1451,0
DA:1452,2
DA:1454,2
DA:1460,2
DA:1461,2
DA:1464,2
DA:1467,2
DA:1470,2
DA:1471,2
DA:1474,2
DA:1475,2
DA:1476,2
DA:1477,2
DA:1478,2
DA:1481,2
DA:1482,2
DA:1483,2
DA:1486,0
DA:1487,0
DA:1490,0
DA:1491,0
DA:1492,0
DA:1495,0
DA:1496,0
DA:1498,0
DA:1499,0
DA:1504,0
DA:1505,0
DA:1506,0
DA:1507,0
DA:1508,0
DA:1509,0
DA:1510,0
DA:1513,0
DA:1514,0
DA:1518,0
DA:1520,0
DA:1521,0
DA:1522,0
DA:1523,0
DA:1526,0
DA:1527,0
DA:1528,0
DA:1529,0
DA:1530,0
DA:1533,0
DA:1534,0
DA:1535,0
DA:1536,0
DA:1538,0
DA:1540,0
DA:1541,0
DA:1543,0
DA:1546,0
DA:1547,0
DA:1550,105
DA:1551,105
DA:1553,105
DA:1555,101
DA:1558,101
DA:1559,0
DA:1560,0
DA:1561,0
DA:1562,0
DA:1563,0
DA:1564,101
DA:1566,101
DA:1567,101
DA:1570,4
DA:1571,0
DA:1574,4
DA:1576,105
DA:1579,4
DA:1580,4
DA:1582,4
DA:1585,4
DA:1586,4
DA:1588,4
DA:1589,4
DA:1593,16
DA:1594,16
DA:1595,16
DA:1596,16
DA:1597,16
DA:1598,16
DA:1599,16
DA:1600,16
DA:1602,16
DA:1603,16
DA:1604,16
DA:1609,4
DA:1610,4
DA:1613,4
DA:1614,4
DA:1615,4
DA:1617,4
DA:1618,4
DA:1621,1
DA:1622,1
DA:1625,1
DA:1626,0
DA:1627,0
DA:1628,0
DA:1629,1
DA:1632,1
DA:1633,0
DA:1634,0
DA:1635,0
DA:1636,1
DA:1639,1
DA:1640,10
DA:1641,0
DA:1642,0
DA:1643,0
DA:1644,1
DA:1647,1
DA:1648,1
DA:1649,1
DA:1650,1
DA:1652,1
DA:1653,0
DA:1657,1
DA:1658,1
DA:1661,1
DA:1662,1
DA:1666,1
DA:1667,1
DA:1669,1
DA:1671,10
DA:1672,10
DA:1673,10
DA:1676,10
DA:1679,10
DA:1680,10
DA:1681,10
DA:1682,10
DA:1683,10
DA:1684,10
DA:1687,10
DA:1691,1
DA:1692,11
DA:1694,10
DA:1695,10
DA:1696,10
DA:1700,1
DA:1701,1
DA:1702,1
DA:1703,1
DA:1704,1
DA:1706,1
DA:1710,1
DA:1711,1
DA:1713,8
DA:1714,8
DA:1715,8
DA:1716,8
DA:1717,8
DA:1718,8
DA:1719,8
DA:1720,0
DA:1725,8
DA:1726,8
DA:1727,8
DA:1729,8
DA:1730,0
DA:1734,8
DA:1735,8
DA:1738,2
DA:1739,2
DA:1741,2
DA:1743,2
DA:1745,2
DA:1746,2
DA:1749,0
DA:1753,0
DA:1754,0
DA:1755,0
DA:1756,0
DA:1759,0
DA:1760,0
DA:1761,0
DA:1762,0
DA:1763,0
DA:1766,0
DA:1768,0
DA:1769,0
DA:1770,0
DA:1773,0
DA:1776,0
DA:1777,0
DA:1778,0
DA:1780,0
DA:1781,0
DA:1782,0
DA:1784,0
DA:1785,0
DA:1786,0
DA:1787,0
DA:1788,0
DA:1789,0
DA:1790,0
DA:1795,0
DA:1797,0
DA:1798,0
DA:1799,0
DA:1802,0
DA:1803,0
DA:1804,0
DA:1805,0
DA:1806,0
DA:1807,0
DA:1808,0
DA:1809,0
DA:1812,0
DA:1813,0
DA:1814,0
DA:1815,0
DA:1818,0
DA:1823,0
DA:1824,0
DA:1825,0
DA:1827,0
DA:1828,0
DA:1829,0
DA:1831,0
DA:1832,0
DA:1833,0
DA:1835,0
DA:1840,0
DA:1841,0
DA:1842,0
DA:1844,0
DA:1845,0
DA:1846,0
DA:1848,0
DA:1849,0
DA:1850,0
DA:1852,0
DA:1857,0
DA:1858,0
DA:1859,0
DA:1862,0
DA:1863,0
DA:1864,0
DA:1865,0
DA:1866,0
DA:1869,0
DA:1870,0
DA:1872,0
DA:1873,0
DA:1874,0
DA:1875,0
DA:1876,0
DA:1877,0
DA:1878,0
DA:1879,0
DA:1881,0
DA:1883,0
DA:1888,0
DA:1891,0
DA:1894,0
DA:1895,0
DA:1896,0
DA:1897,0
DA:1898,0
DA:1906,0
DA:1907,0
DA:1910,0
DA:1913,0
DA:1914,0
DA:1916,0
DA:1917,0
DA:1920,0
DA:1921,0
DA:1922,0
DA:1923,0
DA:1924,0
DA:1927,0
DA:1928,0
DA:1929,0
DA:1932,199
DA:1933,199
DA:1934,199
DA:1935,199
DA:1936,199
DA:1937,199
DA:1938,199
DA:1939,199
DA:1940,199
DA:1941,199
DA:1942,199
DA:1943,0
DA:1944,0
DA:1947,199
DA:1948,199
DA:1953,0
DA:1954,0
DA:1955,0
DA:1956,0
DA:1958,0
DA:1959,0
DA:1960,199
DA:1963,5
DA:1968,5
DA:1969,5
DA:1970,5
DA:1971,0
DA:1974,5
DA:1976,0
DA:1977,0
DA:1978,0
DA:1982,0
DA:1985,5
DA:1988,5
DA:1993,5
DA:1994,5
DA:1998,5
DA:1999,5
DA:2000,5
DA:2003,1
DA:2005,1
DA:2006,1
DA:2009,1
DA:2011,1
DA:2012,0
DA:2016,1
DA:2017,1
DA:2020,9
DA:2021,9
DA:2026,9
DA:2027,9
DA:2028,9
DA:2031,9
DA:2032,9
DA:2033,0
DA:2034,0
DA:2037,9
DA:2038,0
DA:2043,9
DA:2044,9
DA:2047,0
DA:2048,0
DA:2049,0
DA:2053,0
DA:2055,0
DA:2056,0
DA:2059,4
DA:2061,4
DA:2063,4
DA:2064,4
DA:2065,4
DA:2070,4
DA:2071,4
DA:2072,4
DA:2073,4
DA:2074,4
DA:2075,4
DA:2076,4
DA:2077,4
DA:2079,4
DA:2082,4
DA:2083,0
DA:2089,4
DA:2090,4
DA:2093,1
DA:2095,1
DA:2096,1
DA:2099,1
DA:2100,0
DA:2104,1
DA:2105,1
DA:2108,14
DA:2110,14
DA:2111,9
DA:2112,89
DA:2113,7
DA:2114,6
DA:2116,8
DA:2117,6
DA:2120,6
DA:2121,6
DA:2122,0
DA:2123,6
DA:2125,6
DA:2126,6
DA:2129,6
DA:2130,0
DA:2131,6
DA:2134,6
DA:2135,6
DA:2136,4
DA:2137,3
DA:2138,3
DA:2139,3
DA:2141,3
DA:2142,3
DA:2145,3
DA:2146,3
DA:2147,0
DA:2148,3
DA:2151,9
DA:2152,6
DA:2153,0
DA:2154,6
DA:2157,3
DA:2158,14
DA:2161,0
DA:2163,0
DA:2165,0
DA:2166,0
DA:2167,0
DA:2170,0
DA:2171,0
DA:2172,0
DA:2173,0
DA:2175,0
DA:2179,0
DA:2182,0
DA:2184,0
DA:2185,0
DA:2191,0
DA:2192,0
DA:2195,0
DA:2198,0
DA:2199,0
DA:2202,0
DA:2204,0
DA:2205,0
DA:2206,0
DA:2209,0
DA:2210,0
DA:2213,0
DA:2214,0
DA:2215,0
DA:2217,0
DA:2218,0
DA:2219,0
DA:2220,0
DA:2222,0
DA:2223,0
DA:2224,0
DA:2227,0
DA:2229,0
DA:2231,0
DA:2233,0
DA:2234,0
DA:2241,0
DA:2242,0
DA:2243,0
DA:2245,0
DA:2246,0
DA:2249,0
DA:2251,0
DA:2254,0
DA:2255,0
DA:2256,0
DA:2257,0
DA:2259,0
DA:2262,0
DA:2264,0
DA:2265,0
DA:2266,0
DA:2269,0
DA:2270,0
DA:2273,0
DA:2274,0
DA:2277,0
DA:2278,0
DA:2279,0
DA:2282,0
DA:2284,0
DA:2286,0
DA:2288,0
DA:2290,0
DA:2291,0
DA:2292,0
DA:2293,0
DA:2295,0
DA:2296,0
DA:2297,0
DA:2299,0
DA:2300,0
DA:2301,0
DA:2305,0
DA:2306,0
DA:2309,0
DA:2312,0
DA:2313,0
DA:2314,0
DA:2315,0
DA:2318,0
DA:2319,0
DA:2322,0
DA:2324,0
DA:2325,0
DA:2364,0
DA:2365,0
DA:2366,0
DA:2369,0
DA:2370,0
DA:2371,0
DA:2374,0
DA:2375,0
DA:2376,0
DA:2377,0
DA:2378,0
DA:2381,0
DA:2382,0
DA:2383,0
DA:2385,0
DA:2386,0
DA:2389,0
DA:2390,0
DA:2391,0
DA:2394,0
DA:2395,0
DA:2397,0
DA:2398,0
DA:2399,0
DA:2402,0
DA:2403,0
DA:2406,0
DA:2407,0
DA:2408,0
DA:2409,0
DA:2410,0
DA:2411,0
DA:2414,0
DA:2415,0
DA:2417,0
DA:2418,0
DA:2419,0
DA:2422,0
DA:2423,0
DA:2424,0
DA:2429,0
DA:2430,0
DA:2431,0
DA:2434,0
DA:2435,0
DA:2437,0
DA:2438,0
DA:2441,0
DA:2442,0
DA:2445,0
DA:2446,0
DA:2447,0
DA:2448,0
DA:2449,0
DA:2450,0
DA:2451,0
DA:2452,0
DA:2457,0
DA:2458,0
DA:2459,0
DA:2460,0
DA:2461,0
DA:2464,0
DA:2465,0
DA:2466,0
DA:2468,0
DA:2469,0
DA:2472,0
DA:2473,0
DA:2476,0
DA:2477,0
DA:2480,0
DA:2481,0
DA:2482,0
DA:2483,0
DA:2484,0
DA:2487,0
DA:2488,0
DA:2490,0
DA:2491,0
DA:2492,0
DA:2495,0
DA:2496,0
DA:2499,0
DA:2500,0
DA:2501,0
DA:2504,0
DA:2505,0
DA:2507,0
DA:2508,0
DA:2510,0
DA:2512,0
DA:2513,0
DA:2516,0
DA:2517,0
DA:2520,0
DA:2521,0
DA:2522,0
DA:2523,0
DA:2524,0
DA:2525,0
DA:2528,0
DA:2529,0
DA:2530,0
DA:2531,0
DA:2532,0
DA:2533,0
DA:2537,0
DA:2538,0
DA:2539,0
DA:2540,0
DA:2542,0
DA:2543,0
DA:2546,0
DA:2547,0
DA:2550,0
DA:2551,0
DA:2552,0
DA:2553,0
DA:2554,0
DA:2555,0
DA:2556,0
DA:2557,0
DA:2562,0
DA:2563,0
DA:2564,0
DA:2565,0
DA:2566,0
DA:2569,0
DA:2570,0
DA:2571,0
DA:2572,0
DA:2574,0
DA:2577,0
DA:2579,0
DA:2580,0
DA:2581,0
DA:2583,0
DA:2584,0
DA:2585,0
DA:2588,0
DA:2589,0
DA:2590,0
DA:2591,0
DA:2592,0
DA:2593,0
DA:2596,0
DA:2597,0
DA:2598,0
DA:2599,0
DA:2600,0
DA:2603,0
DA:2604,0
DA:2605,0
DA:2606,0
DA:2607,0
DA:2609,0
DA:2611,0
DA:2614,0
DA:2615,0
DA:2616,0
DA:2617,0
DA:2618,0
DA:2619,0
DA:2620,0
DA:2621,0
DA:2622,0
DA:2627,0
DA:2628,0
DA:2629,0
DA:2630,0
DA:2631,0
DA:2634,0
DA:2635,0
DA:2636,0
DA:2637,0
DA:2639,0
DA:2643,0
DA:2646,0
DA:2647,0
DA:2648,0
DA:2649,0
DA:2650,0
DA:2651,0
DA:2652,0
DA:2653,0
DA:2654,0
DA:2657,0
DA:2659,0
DA:2660,0
DA:2661,0
DA:2662,0
DA:2663,0
DA:2664,0
DA:2665,0
DA:2666,0
DA:2667,0
DA:2668,0
DA:2669,0
DA:2672,0
DA:2673,0
DA:2674,0
DA:2676,0
DA:2677,0
DA:2678,0
DA:2681,0
DA:2684,0
DA:2685,0
DA:2687,0
DA:2688,0
DA:2689,0
DA:2690,0
DA:2691,0
DA:2692,0
DA:2695,0
DA:2696,0
DA:2697,0
DA:2699,0
DA:2700,0
DA:2703,0
DA:2704,0
DA:2707,0
DA:2708,0
DA:2711,0
DA:2712,0
DA:2713,0
DA:2716,0
DA:2717,0
DA:2718,0
DA:2719,0
DA:2722,0
DA:2723,0
DA:2724,0
DA:2725,0
DA:2727,0
DA:2728,0
DA:2729,0
DA:2732,0
DA:2733,0
DA:2734,0
DA:2735,0
DA:2736,0
DA:2737,0
DA:2738,0
DA:2739,0
DA:2740,0
DA:2741,0
DA:2746,0
DA:2747,0
DA:2748,0
DA:2749,0
DA:2751,0
DA:2752,0
DA:2753,0
DA:2754,0
DA:2757,0
DA:2758,0
DA:2759,0
DA:2760,0
DA:2761,0
DA:2763,0
DA:2764,0
DA:2765,0
DA:2766,0
DA:2767,0
DA:2770,0
DA:2771,0
DA:2772,0
DA:2773,0
DA:2774,0
DA:2775,0
DA:2776,0
DA:2777,0
DA:2778,0
DA:2779,0
DA:2780,0
DA:2781,0
DA:2782,0
DA:2783,0
DA:2784,0
DA:2788,0
DA:2789,0
DA:2790,0
DA:2791,0
DA:2792,0
DA:2793,0
DA:2795,0
DA:2796,0
DA:2799,0
DA:2800,0
DA:2803,0
DA:2804,0
DA:2807,0
DA:2808,0
DA:2809,0
DA:2813,0
DA:2814,0
DA:2815,0
DA:2818,0
DA:2819,0
DA:2820,0
DA:2823,0
DA:2824,0
DA:2827,0
DA:2828,0
DA:2829,0
DA:2830,0
DA:2831,0
DA:2832,0
DA:2833,0
DA:2834,0
DA:2835,0
DA:2841,0
DA:2842,0
DA:2843,0
DA:2844,0
DA:2848,0
DA:2849,0
DA:2850,0
DA:2852,0
DA:2853,0
DA:2854,0
DA:2857,0
DA:2858,0
DA:2859,0
DA:2860,0
DA:2862,0
DA:2865,0
DA:2866,0
DA:2867,0
DA:2868,0
DA:2869,0
DA:2870,0
DA:2872,0
DA:2873,0
DA:2874,0
DA:2878,0
DA:2879,0
DA:2880,0
DA:2883,0
DA:2884,0
DA:2885,0
DA:2888,0
DA:2889,0
DA:2890,0
DA:2891,0
DA:2892,0
DA:2893,0
DA:2894,0
DA:2895,0
DA:2896,0
DA:2897,0
DA:2898,0
DA:2899,0
DA:2900,0
DA:2901,0
DA:2902,0
DA:2905,0
DA:2906,0
DA:2907,0
DA:2908,0
DA:2909,0
DA:2912,0
DA:2913,0
DA:2914,0
DA:2915,0
DA:2916,0
DA:2917,0
DA:2918,0
DA:2919,0
DA:2920,0
DA:2921,0
DA:2922,0
DA:2923,0
DA:2924,0
DA:2925,0
DA:2926,0
DA:2928,0
DA:2929,0
DA:2930,0
DA:2931,0
DA:2932,0
DA:2933,0
DA:2934,0
DA:2935,0
DA:2936,0
DA:2937,0
DA:2938,0
DA:2939,0
DA:2942,0
DA:2944,0
DA:2946,0
DA:2947,0
DA:2948,0
DA:2949,0
DA:2950,0
DA:2951,0
DA:2952,0
DA:2953,0
DA:2954,0
DA:2955,0
DA:2956,0
DA:2957,0
DA:2960,0
DA:2961,0
DA:2962,0
DA:2963,0
DA:2964,0
DA:2965,0
DA:2966,0
DA:2967,0
DA:2968,0
DA:2969,0
DA:2970,0
DA:2971,0
DA:2992,0
DA:2993,0
DA:2996,0
DA:2997,0
DA:2998,0
DA:2999,0
DA:3000,0
DA:3001,0
DA:3002,0
DA:3005,0
DA:3006,0
DA:3007,0
DA:3010,0
DA:3011,0
DA:3012,0
DA:3014,0
DA:3015,0
DA:3053,0
DA:3054,0
DA:3055,0
DA:3056,0
DA:3057,0
DA:3098,0
DA:3099,0
DA:3100,0
DA:3101,0
DA:3103,0
DA:3105,0
DA:3106,0
DA:3107,0
DA:3108,0
DA:3109,0
DA:3110,0
DA:3112,0
DA:3113,0
DA:3114,0
DA:3115,0
DA:3116,0
DA:3117,0
DA:3119,0
DA:3120,0
DA:3121,0
DA:3122,0
DA:3123,0
DA:3124,0
DA:3126,0
DA:3127,0
DA:3128,0
DA:3129,0
DA:3130,0
DA:3167,1
DA:3168,1
DA:3169,1
DA:3170,1
DA:3171,1
DA:3172,1
DA:3173,1
DA:3174,1
DA:3175,1
DA:3176,1
DA:3177,1
DA:3178,1
DA:3179,1
DA:3181,1
DA:3182,1
DA:3183,1
DA:3186,1
DA:3191,1
DA:3192,1
DA:3193,1
DA:3194,1
DA:3195,1
DA:3196,1
DA:3197,1
DA:3198,1
DA:3199,1
DA:3200,1
DA:3201,1
DA:3202,1
DA:3205,1
DA:3209,1
DA:3212,1
DA:3213,1
DA:3214,1
DA:3215,1
DA:3216,1
DA:3217,1
DA:3218,1
DA:3219,1
DA:3220,1
DA:3221,1
DA:3222,1
DA:3223,1
DA:3224,1
DA:3225,1
DA:3227,1
DA:3228,1
DA:3229,1
DA:3230,1
DA:3233,1
DA:3235,1
DA:3236,1
DA:3239,1
DA:3240,1
DA:3241,1
DA:3242,1
DA:3243,1
DA:3244,1
DA:3245,1
DA:3246,1
DA:3247,1
DA:3248,1
DA:3249,1
DA:3250,1
DA:3251,1
DA:3252,1
DA:3254,1
DA:3255,1
DA:3256,1
DA:3257,1
DA:3258,1
DA:3259,1
DA:3260,1
DA:3261,1
DA:3262,1
DA:3264,1
DA:3265,1
DA:3267,1
DA:3268,1
DA:3269,1
DA:3270,1
DA:3273,1
DA:3274,1
DA:3275,1
DA:3276,1
DA:3277,1
DA:3278,1
DA:3279,1
DA:3280,1
DA:3281,1
DA:3282,1
DA:3283,1
DA:3284,1
DA:3285,1
DA:3286,1
DA:3289,1
DA:3290,1
BRF:0
BRH:0
LF:1963
LH:882
end_of_record
SF:C:\Users\cires\OneDrive\Documents\projects\AuthFramework\src\auth_modular\mfa\backup_codes.rs
FN:43,_RNCNCNvMNtNtNtCsawKQoipWOme_14auth_framework12auth_modular3mfa12backup_codesNtB6_18BackupCodesManager11verify_code00Bc_
FN:53,_RNCNCNvMNtNtNtCsawKQoipWOme_14auth_framework12auth_modular3mfa12backup_codesNtB6_18BackupCodesManager11verify_code0s_0Bc_
FN:24,_RNCNCNvMNtNtNtCsawKQoipWOme_14auth_framework12auth_modular3mfa12backup_codesNtB6_18BackupCodesManager14generate_codes00Bc_
FN:39,_RNCNvMNtNtNtCsawKQoipWOme_14auth_framework12auth_modular3mfa12backup_codesNtB4_18BackupCodesManager11verify_code0Ba_
FN:20,_RNCNvMNtNtNtCsawKQoipWOme_14auth_framework12auth_modular3mfa12backup_codesNtB4_18BackupCodesManager14generate_codes0Ba_
FN:87,_RNCNvMNtNtNtCsawKQoipWOme_14auth_framework12auth_modular3mfa12backup_codesNtB4_18BackupCodesManager16has_backup_codes0Ba_
FN:93,_RNCNvMNtNtNtCsawKQoipWOme_14auth_framework12auth_modular3mfa12backup_codesNtB4_18BackupCodesManager16regenerate_codes0Ba_
FN:73,_RNCNvMNtNtNtCsawKQoipWOme_14auth_framework12auth_modular3mfa12backup_codesNtB4_18BackupCodesManager19get_remaining_count0Ba_
FN:39,_RNvMNtNtNtCsawKQoipWOme_14auth_framework12auth_modular3mfa12backup_codesNtB2_18BackupCodesManager11verify_code
FN:20,_RNvMNtNtNtCsawKQoipWOme_14auth_framework12auth_modular3mfa12backup_codesNtB2_18BackupCodesManager14generate_codes
FN:87,_RNvMNtNtNtCsawKQoipWOme_14auth_framework12auth_modular3mfa12backup_codesNtB2_18BackupCodesManager16has_backup_codes
FN:93,_RNvMNtNtNtCsawKQoipWOme_14auth_framework12auth_modular3mfa12backup_codesNtB2_18BackupCodesManager16regenerate_codes
FN:73,_RNvMNtNtNtCsawKQoipWOme_14auth_framework12auth_modular3mfa12backup_codesNtB2_18BackupCodesManager19get_remaining_count
FN:15,_RNvMNtNtNtCsawKQoipWOme_14auth_framework12auth_modular3mfa12backup_codesNtB2_18BackupCodesManager3new
FN:43,_RNCNCNvMNtNtNtCscyNIIr1ochp_14auth_framework12auth_modular3mfa12backup_codesNtB6_18BackupCodesManager11verify_code00Bc_
FN:53,_RNCNCNvMNtNtNtCscyNIIr1ochp_14auth_framework12auth_modular3mfa12backup_codesNtB6_18BackupCodesManager11verify_code0s_0Bc_
FN:24,_RNCNCNvMNtNtNtCscyNIIr1ochp_14auth_framework12auth_modular3mfa12backup_codesNtB6_18BackupCodesManager14generate_codes00Bc_
FN:39,_RNCNvMNtNtNtCscyNIIr1ochp_14auth_framework12auth_modular3mfa12backup_codesNtB4_18BackupCodesManager11verify_code0Ba_
FN:20,_RNCNvMNtNtNtCscyNIIr1ochp_14auth_framework12auth_modular3mfa12backup_codesNtB4_18BackupCodesManager14generate_codes0Ba_
FN:87,_RNCNvMNtNtNtCscyNIIr1ochp_14auth_framework12auth_modular3mfa12backup_codesNtB4_18BackupCodesManager16has_backup_codes0Ba_
FN:93,_RNCNvMNtNtNtCscyNIIr1ochp_14auth_framework12auth_modular3mfa12backup_codesNtB4_18BackupCodesManager16regenerate_codes0Ba_
FN:73,_RNCNvMNtNtNtCscyNIIr1ochp_14auth_framework12auth_modular3mfa12backup_codesNtB4_18BackupCodesManager19get_remaining_count0Ba_
FN:39,_RNvMNtNtNtCscyNIIr1ochp_14auth_framework12auth_modular3mfa12backup_codesNtB2_18BackupCodesManager11verify_code
FN:20,_RNvMNtNtNtCscyNIIr1ochp_14auth_framework12auth_modular3mfa12backup_codesNtB2_18BackupCodesManager14generate_codes
FN:87,_RNvMNtNtNtCscyNIIr1ochp_14auth_framework12auth_modular3mfa12backup_codesNtB2_18BackupCodesManager16has_backup_codes
FN:93,_RNvMNtNtNtCscyNIIr1ochp_14auth_framework12auth_modular3mfa12backup_codesNtB2_18BackupCodesManager16regenerate_codes
FN:73,_RNvMNtNtNtCscyNIIr1ochp_14auth_framework12auth_modular3mfa12backup_codesNtB2_18BackupCodesManager19get_remaining_count
FN:15,_RNvMNtNtNtCscyNIIr1ochp_14auth_framework12auth_modular3mfa12backup_codesNtB2_18BackupCodesManager3new
FNDA:0,_RNCNCNvMNtNtNtCsawKQoipWOme_14auth_framework12auth_modular3mfa12backup_codesNtB6_18BackupCodesManager11verify_code00Bc_
FNDA:0,_RNCNCNvMNtNtNtCsawKQoipWOme_14auth_framework12auth_modular3mfa12backup_codesNtB6_18BackupCodesManager11verify_code0s_0Bc_
FNDA:0,_RNCNCNvMNtNtNtCsawKQoipWOme_14auth_framework12auth_modular3mfa12backup_codesNtB6_18BackupCodesManager14generate_codes00Bc_
FNDA:0,_RNCNvMNtNtNtCsawKQoipWOme_14auth_framework12auth_modular3mfa12backup_codesNtB4_18BackupCodesManager11verify_code0Ba_
FNDA:0,_RNCNvMNtNtNtCsawKQoipWOme_14auth_framework12auth_modular3mfa12backup_codesNtB4_18BackupCodesManager14generate_codes0Ba_
FNDA:0,_RNCNvMNtNtNtCsawKQoipWOme_14auth_framework12auth_modular3mfa12backup_codesNtB4_18BackupCodesManager16has_backup_codes0Ba_
FNDA:0,_RNCNvMNtNtNtCsawKQoipWOme_14auth_framework12auth_modular3mfa12backup_codesNtB4_18BackupCodesManager16regenerate_codes0Ba_
FNDA:0,_RNCNvMNtNtNtCsawKQoipWOme_14auth_framework12auth_modular3mfa12backup_codesNtB4_18BackupCodesManager19get_remaining_count0Ba_
FNDA:0,_RNvMNtNtNtCsawKQoipWOme_14auth_framework12auth_modular3mfa12backup_codesNtB2_18BackupCodesManager11verify_code
FNDA:0,_RNvMNtNtNtCsawKQoipWOme_14auth_framework12auth_modular3mfa12backup_codesNtB2_18BackupCodesManager14generate_codes
FNDA:0,_RNvMNtNtNtCsawKQoipWOme_14auth_framework12auth_modular3mfa12backup_codesNtB2_18BackupCodesManager16has_backup_codes
FNDA:0,_RNvMNtNtNtCsawKQoipWOme_14auth_framework12auth_modular3mfa12backup_codesNtB2_18BackupCodesManager16regenerate_codes
FNDA:0,_RNvMNtNtNtCsawKQoipWOme_14auth_framework12auth_modular3mfa12backup_codesNtB2_18BackupCodesManager19get_remaining_count
FNDA:2,_RNvMNtNtNtCsawKQoipWOme_14auth_framework12auth_modular3mfa12backup_codesNtB2_18BackupCodesManager3new
FNDA:0,_RNCNCNvMNtNtNtCscyNIIr1ochp_14auth_framework12auth_modular3mfa12backup_codesNtB6_18BackupCodesManager11verify_code00Bc_
FNDA:0,_RNCNCNvMNtNtNtCscyNIIr1ochp_14auth_framework12auth_modular3mfa12backup_codesNtB6_18BackupCodesManager11verify_code0s_0Bc_
FNDA:0,_RNCNCNvMNtNtNtCscyNIIr1ochp_14auth_framework12auth_modular3mfa12backup_codesNtB6_18BackupCodesManager14generate_codes00Bc_
FNDA:0,_RNCNvMNtNtNtCscyNIIr1ochp_14auth_framework12auth_modular3mfa12backup_codesNtB4_18BackupCodesManager11verify_code0Ba_
FNDA:0,_RNCNvMNtNtNtCscyNIIr1ochp_14auth_framework12auth_modular3mfa12backup_codesNtB4_18BackupCodesManager14generate_codes0Ba_
FNDA:0,_RNCNvMNtNtNtCscyNIIr1ochp_14auth_framework12auth_modular3mfa12backup_codesNtB4_18BackupCodesManager16has_backup_codes0Ba_
FNDA:0,_RNCNvMNtNtNtCscyNIIr1ochp_14auth_framework12auth_modular3mfa12backup_codesNtB4_18BackupCodesManager16regenerate_codes0Ba_
FNDA:0,_RNCNvMNtNtNtCscyNIIr1ochp_14auth_framework12auth_modular3mfa12backup_codesNtB4_18BackupCodesManager19get_remaining_count0Ba_
FNDA:0,_RNvMNtNtNtCscyNIIr1ochp_14auth_framework12auth_modular3mfa12backup_codesNtB2_18BackupCodesManager11verify_code
FNDA:0,_RNvMNtNtNtCscyNIIr1ochp_14auth_framework12auth_modular3mfa12backup_codesNtB2_18BackupCodesManager14generate_codes
FNDA:0,_RNvMNtNtNtCscyNIIr1ochp_14auth_framework12auth_modular3mfa12backup_codesNtB2_18BackupCodesManager16has_backup_codes
FNDA:0,_RNvMNtNtNtCscyNIIr1ochp_14auth_framework12auth_modular3mfa12backup_codesNtB2_18BackupCodesManager16regenerate_codes
FNDA:0,_RNvMNtNtNtCscyNIIr1ochp_14auth_framework12auth_modular3mfa12backup_codesNtB2_18BackupCodesManager19get_remaining_count
FNDA:0,_RNvMNtNtNtCscyNIIr1ochp_14auth_framework12auth_modular3mfa12backup_codesNtB2_18BackupCodesManager3new
FNF:14
FNH:1
DA:15,2
DA:16,2
DA:17,2
DA:20,0
DA:21,0
DA:23,0
DA:24,0
DA:25,0
DA:28,0
DA:29,0
DA:30,0
DA:31,0
DA:32,0
DA:34,0
DA:35,0
DA:36,0
DA:39,0
DA:40,0
DA:43,0
DA:44,0
DA:45,0
DA:48,0
DA:49,0
DA:50,0
DA:51,0
DA:53,0
DA:55,0
DA:56,0
DA:57,0
DA:58,0
DA:59,0
DA:60,0
DA:62,0
DA:63,0
DA:65,0
DA:68,0
DA:70,0
DA:73,0
DA:74,0
DA:76,0
DA:77,0
DA:78,0
DA:79,0
DA:80,0
DA:82,0
DA:84,0
DA:87,0
DA:88,0
DA:89,0
DA:90,0
DA:93,0
DA:94,0
DA:97,0
DA:98,0
BRF:0
BRH:0
LF:62
LH:3
end_of_record
SF:C:\Users\cires\OneDrive\Documents\projects\AuthFramework\src\auth_modular\mfa\email.rs
FN:183,_RNCNCNvMs_NtNtNtCsawKQoipWOme_14auth_framework12auth_modular3mfa5emailNtB8_12EmailManager11verify_code00Be_
FN:247,_RNCNCNvMs_NtNtNtCsawKQoipWOme_14auth_framework12auth_modular3mfa5emailNtB8_12EmailManager14get_user_email00Be_
FN:307,_RNCNCNvMs_NtNtNtCsawKQoipWOme_14auth_framework12auth_modular3mfa5emailNtB8_12EmailManager17send_via_sendgrid00Be_
FN:211,_RNCNCNvMs_NtNtNtCsawKQoipWOme_14auth_framework12auth_modular3mfa5emailNtB8_12EmailManager9send_code00Be_
FN:165,_RNCNvMs_NtNtNtCsawKQoipWOme_14auth_framework12auth_modular3mfa5emailNtB6_12EmailManager11verify_code0Bc_
FN:146,_RNCNvMs_NtNtNtCsawKQoipWOme_14auth_framework12auth_modular3mfa5emailNtB6_12EmailManager13generate_code0Bc_
FN:351,_RNCNvMs_NtNtNtCsawKQoipWOme_14auth_framework12auth_modular3mfa5emailNtB6_12EmailManager13send_via_smtp0Bc_
FN:243,_RNCNvMs_NtNtNtCsawKQoipWOme_14auth_framework12auth_modular3mfa5emailNtB6_12EmailManager14get_user_email0Bc_
FN:101,_RNCNvMs_NtNtNtCsawKQoipWOme_14auth_framework12auth_modular3mfa5emailNtB6_12EmailManager14register_email0Bc_
FN:388,_RNCNvMs_NtNtNtCsawKQoipWOme_14auth_framework12auth_modular3mfa5emailNtB6_12EmailManager15send_email_code0Bc_
FN:326,_RNCNvMs_NtNtNtCsawKQoipWOme_14auth_framework12auth_modular3mfa5emailNtB6_12EmailManager16send_via_aws_ses0Bc_
FN:278,_RNCNvMs_NtNtNtCsawKQoipWOme_14auth_framework12auth_modular3mfa5emailNtB6_12EmailManager17send_via_sendgrid0Bc_
FN:136,_RNCNvMs_NtNtNtCsawKQoipWOme_14auth_framework12auth_modular3mfa5emailNtB6_12EmailManager18initiate_challenge0Bc_
FN:261,_RNCNvMs_NtNtNtCsawKQoipWOme_14auth_framework12auth_modular3mfa5emailNtB6_12EmailManager23send_email_via_provider0Bc_
FN:378,_RNCNvMs_NtNtNtCsawKQoipWOme_14auth_framework12auth_modular3mfa5emailNtB6_12EmailManager9has_email0Bc_
FN:205,_RNCNvMs_NtNtNtCsawKQoipWOme_14auth_framework12auth_modular3mfa5emailNtB6_12EmailManager9send_code0Bc_
FN:165,_RNvMs_NtNtNtCsawKQoipWOme_14auth_framework12auth_modular3mfa5emailNtB4_12EmailManager11verify_code
FN:146,_RNvMs_NtNtNtCsawKQoipWOme_14auth_framework12auth_modular3mfa5emailNtB4_12EmailManager13generate_code
FN:351,_RNvMs_NtNtNtCsawKQoipWOme_14auth_framework12auth_modular3mfa5emailNtB4_12EmailManager13send_via_smtp
FN:243,_RNvMs_NtNtNtCsawKQoipWOme_14auth_framework12auth_modular3mfa5emailNtB4_12EmailManager14get_user_email
FN:101,_RNvMs_NtNtNtCsawKQoipWOme_14auth_framework12auth_modular3mfa5emailNtB4_12EmailManager14register_email
FN:90,_RNvMs_NtNtNtCsawKQoipWOme_14auth_framework12auth_modular3mfa5emailNtB4_12EmailManager15new_with_config
FN:388,_RNvMs_NtNtNtCsawKQoipWOme_14auth_framework12auth_modular3mfa5emailNtB4_12EmailManager15send_email_code
FN:326,_RNvMs_NtNtNtCsawKQoipWOme_14auth_framework12auth_modular3mfa5emailNtB4_12EmailManager16send_via_aws_ses
FN:278,_RNvMs_NtNtNtCsawKQoipWOme_14auth_framework12auth_modular3mfa5emailNtB4_12EmailManager17send_via_sendgrid
FN:136,_RNvMs_NtNtNtCsawKQoipWOme_14auth_framework12auth_modular3mfa5emailNtB4_12EmailManager18initiate_challenge
FN:256,_RNvMs_NtNtNtCsawKQoipWOme_14auth_framework12auth_modular3mfa5emailNtB4_12EmailManager23send_email_via_provider
FN:378,_RNvMs_NtNtNtCsawKQoipWOme_14auth_framework12auth_modular3mfa5emailNtB4_12EmailManager9has_email
FN:205,_RNvMs_NtNtNtCsawKQoipWOme_14auth_framework12auth_modular3mfa5emailNtB4_12EmailManager9send_code
FN:82,_RNvMs_NtNtNtCsawKQoipWOme_14auth_framework12auth_modular3mfa5emailNtB4_12EmailManager3new
FN:64,_RNvXNtNtNtCsawKQoipWOme_14auth_framework12auth_modular3mfa5emailNtB2_19EmailProviderConfigNtNtCsf36jwlS2r7m_4core7default7Default7default
FN:183,_RNCNCNvMs_NtNtNtCscyNIIr1ochp_14auth_framework12auth_modular3mfa5emailNtB8_12EmailManager11verify_code00Be_
FN:247,_RNCNCNvMs_NtNtNtCscyNIIr1ochp_14auth_framework12auth_modular3mfa5emailNtB8_12EmailManager14get_user_email00Be_
FN:307,_RNCNCNvMs_NtNtNtCscyNIIr1ochp_14auth_framework12auth_modular3mfa5emailNtB8_12EmailManager17send_via_sendgrid00Be_
FN:211,_RNCNCNvMs_NtNtNtCscyNIIr1ochp_14auth_framework12auth_modular3mfa5emailNtB8_12EmailManager9send_code00Be_
FN:165,_RNCNvMs_NtNtNtCscyNIIr1ochp_14auth_framework12auth_modular3mfa5emailNtB6_12EmailManager11verify_code0Bc_
FN:146,_RNCNvMs_NtNtNtCscyNIIr1ochp_14auth_framework12auth_modular3mfa5emailNtB6_12EmailManager13generate_code0Bc_
FN:351,_RNCNvMs_NtNtNtCscyNIIr1ochp_14auth_framework12auth_modular3mfa5emailNtB6_12EmailManager13send_via_smtp0Bc_
FN:243,_RNCNvMs_NtNtNtCscyNIIr1ochp_14auth_framework12auth_modular3mfa5emailNtB6_12EmailManager14get_user_email0Bc_
FN:101,_RNCNvMs_NtNtNtCscyNIIr1ochp_14auth_framework12auth_modular3mfa5emailNtB6_12EmailManager14register_email0Bc_
FN:388,_RNCNvMs_NtNtNtCscyNIIr1ochp_14auth_framework12auth_modular3mfa5emailNtB6_12EmailManager15send_email_code0Bc_
FN:326,_RNCNvMs_NtNtNtCscyNIIr1ochp_14auth_framework12auth_modular3mfa5emailNtB6_12EmailManager16send_via_aws_ses0Bc_
FN:278,_RNCNvMs_NtNtNtCscyNIIr1ochp_14auth_framework12auth_modular3mfa5emailNtB6_12EmailManager17send_via_sendgrid0Bc_
FN:136,_RNCNvMs_NtNtNtCscyNIIr1ochp_14auth_framework12auth_modular3mfa5emailNtB6_12EmailManager18initiate_challenge0Bc_
FN:261,_RNCNvMs_NtNtNtCscyNIIr1ochp_14auth_framework12auth_modular3mfa5emailNtB6_12EmailManager23send_email_via_provider0Bc_
FN:378,_RNCNvMs_NtNtNtCscyNIIr1ochp_14auth_framework12auth_modular3mfa5emailNtB6_12EmailManager9has_email0Bc_
FN:205,_RNCNvMs_NtNtNtCscyNIIr1ochp_14auth_framework12auth_modular3mfa5emailNtB6_12EmailManager9send_code0Bc_
FN:165,_RNvMs_NtNtNtCscyNIIr1ochp_14auth_framework12auth_modular3mfa5emailNtB4_12EmailManager11verify_code
FN:146,_RNvMs_NtNtNtCscyNIIr1ochp_14auth_framework12auth_modular3mfa5emailNtB4_12EmailManager13generate_code
FN:351,_RNvMs_NtNtNtCscyNIIr1ochp_14auth_framework12auth_modular3mfa5emailNtB4_12EmailManager13send_via_smtp
FN:243,_RNvMs_NtNtNtCscyNIIr1ochp_14auth_framework12auth_modular3mfa5emailNtB4_12EmailManager14get_user_email
FN:101,_RNvMs_NtNtNtCscyNIIr1ochp_14auth_framework12auth_modular3mfa5emailNtB4_12EmailManager14register_email
FN:90,_RNvMs_NtNtNtCscyNIIr1ochp_14auth_framework12auth_modular3mfa5emailNtB4_12EmailManager15new_with_config
FN:388,_RNvMs_NtNtNtCscyNIIr1ochp_14auth_framework12auth_modular3mfa5emailNtB4_12EmailManager15send_email_code
FN:326,_RNvMs_NtNtNtCscyNIIr1ochp_14auth_framework12auth_modular3mfa5emailNtB4_12EmailManager16send_via_aws_ses
FN:278,_RNvMs_NtNtNtCscyNIIr1ochp_14auth_framework12auth_modular3mfa5emailNtB4_12EmailManager17send_via_sendgrid
FN:136,_RNvMs_NtNtNtCscyNIIr1ochp_14auth_framework12auth_modular3mfa5emailNtB4_12EmailManager18initiate_challenge
FN:256,_RNvMs_NtNtNtCscyNIIr1ochp_14auth_framework12auth_modular3mfa5emailNtB4_12EmailManager23send_email_via_provider
FN:82,_RNvMs_NtNtNtCscyNIIr1ochp_14auth_framework12auth_modular3mfa5emailNtB4_12EmailManager3new
FN:378,_RNvMs_NtNtNtCscyNIIr1ochp_14auth_framework12auth_modular3mfa5emailNtB4_12EmailManager9has_email
FN:205,_RNvMs_NtNtNtCscyNIIr1ochp_14auth_framework12auth_modular3mfa5emailNtB4_12EmailManager9send_code
FN:64,_RNvXNtNtNtCscyNIIr1ochp_14auth_framework12auth_modular3mfa5emailNtB2_19EmailProviderConfigNtNtCsf36jwlS2r7m_4core7default7Default7default
FNDA:0,_RNCNCNvMs_NtNtNtCsawKQoipWOme_14auth_framework12auth_modular3mfa5emailNtB8_12EmailManager11verify_code00Be_
FNDA:0,_RNCNCNvMs_NtNtNtCsawKQoipWOme_14auth_framework12auth_modular3mfa5emailNtB8_12EmailManager14get_user_email00Be_
FNDA:0,_RNCNCNvMs_NtNtNtCsawKQoipWOme_14auth_framework12auth_modular3mfa5emailNtB8_12EmailManager17send_via_sendgrid00Be_
FNDA:0,_RNCNCNvMs_NtNtNtCsawKQoipWOme_14auth_framework12auth_modular3mfa5emailNtB8_12EmailManager9send_code00Be_
FNDA:0,_RNCNvMs_NtNtNtCsawKQoipWOme_14auth_framework12auth_modular3mfa5emailNtB6_12EmailManager11verify_code0Bc_
FNDA:0,_RNCNvMs_NtNtNtCsawKQoipWOme_14auth_framework12auth_modular3mfa5emailNtB6_12EmailManager13generate_code0Bc_
FNDA:0,_RNCNvMs_NtNtNtCsawKQoipWOme_14auth_framework12auth_modular3mfa5emailNtB6_12EmailManager13send_via_smtp0Bc_
FNDA:0,_RNCNvMs_NtNtNtCsawKQoipWOme_14auth_framework12auth_modular3mfa5emailNtB6_12EmailManager14get_user_email0Bc_
FNDA:0,_RNCNvMs_NtNtNtCsawKQoipWOme_14auth_framework12auth_modular3mfa5emailNtB6_12EmailManager14register_email0Bc_
FNDA:0,_RNCNvMs_NtNtNtCsawKQoipWOme_14auth_framework12auth_modular3mfa5emailNtB6_12EmailManager15send_email_code0Bc_
FNDA:0,_RNCNvMs_NtNtNtCsawKQoipWOme_14auth_framework12auth_modular3mfa5emailNtB6_12EmailManager16send_via_aws_ses0Bc_
FNDA:0,_RNCNvMs_NtNtNtCsawKQoipWOme_14auth_framework12auth_modular3mfa5emailNtB6_12EmailManager17send_via_sendgrid0Bc_
FNDA:0,_RNCNvMs_NtNtNtCsawKQoipWOme_14auth_framework12auth_modular3mfa5emailNtB6_12EmailManager18initiate_challenge0Bc_
FNDA:0,_RNCNvMs_NtNtNtCsawKQoipWOme_14auth_framework12auth_modular3mfa5emailNtB6_12EmailManager23send_email_via_provider0Bc_
FNDA:0,_RNCNvMs_NtNtNtCsawKQoipWOme_14auth_framework12auth_modular3mfa5emailNtB6_12EmailManager9has_email0Bc_
FNDA:0,_RNCNvMs_NtNtNtCsawKQoipWOme_14auth_framework12auth_modular3mfa5emailNtB6_12EmailManager9send_code0Bc_
FNDA:0,_RNvMs_NtNtNtCsawKQoipWOme_14auth_framework12auth_modular3mfa5emailNtB4_12EmailManager11verify_code
FNDA:0,_RNvMs_NtNtNtCsawKQoipWOme_14auth_framework12auth_modular3mfa5emailNtB4_12EmailManager13generate_code
FNDA:0,_RNvMs_NtNtNtCsawKQoipWOme_14auth_framework12auth_modular3mfa5emailNtB4_12EmailManager13send_via_smtp
FNDA:0,_RNvMs_NtNtNtCsawKQoipWOme_14auth_framework12auth_modular3mfa5emailNtB4_12EmailManager14get_user_email
FNDA:0,_RNvMs_NtNtNtCsawKQoipWOme_14auth_framework12auth_modular3mfa5emailNtB4_12EmailManager14register_email
FNDA:0,_RNvMs_NtNtNtCsawKQoipWOme_14auth_framework12auth_modular3mfa5emailNtB4_12EmailManager15new_with_config
FNDA:0,_RNvMs_NtNtNtCsawKQoipWOme_14auth_framework12auth_modular3mfa5emailNtB4_12EmailManager15send_email_code
FNDA:0,_RNvMs_NtNtNtCsawKQoipWOme_14auth_framework12auth_modular3mfa5emailNtB4_12EmailManager16send_via_aws_ses
FNDA:0,_RNvMs_NtNtNtCsawKQoipWOme_14auth_framework12auth_modular3mfa5emailNtB4_12EmailManager17send_via_sendgrid
FNDA:0,_RNvMs_NtNtNtCsawKQoipWOme_14auth_framework12auth_modular3mfa5emailNtB4_12EmailManager18initiate_challenge
FNDA:0,_RNvMs_NtNtNtCsawKQoipWOme_14auth_framework12auth_modular3mfa5emailNtB4_12EmailManager23send_email_via_provider
FNDA:0,_RNvMs_NtNtNtCsawKQoipWOme_14auth_framework12auth_modular3mfa5emailNtB4_12EmailManager9has_email
FNDA:0,_RNvMs_NtNtNtCsawKQoipWOme_14auth_framework12auth_modular3mfa5emailNtB4_12EmailManager9send_code
FNDA:2,_RNvMs_NtNtNtCsawKQoipWOme_14auth_framework12auth_modular3mfa5emailNtB4_12EmailManager3new
FNDA:2,_RNvXNtNtNtCsawKQoipWOme_14auth_framework12auth_modular3mfa5emailNtB2_19EmailProviderConfigNtNtCsf36jwlS2r7m_4core7default7Default7default
FNDA:0,_RNCNCNvMs_NtNtNtCscyNIIr1ochp_14auth_framework12auth_modular3mfa5emailNtB8_12EmailManager11verify_code00Be_
FNDA:0,_RNCNCNvMs_NtNtNtCscyNIIr1ochp_14auth_framework12auth_modular3mfa5emailNtB8_12EmailManager14get_user_email00Be_
FNDA:0,_RNCNCNvMs_NtNtNtCscyNIIr1ochp_14auth_framework12auth_modular3mfa5emailNtB8_12EmailManager17send_via_sendgrid00Be_
FNDA:0,_RNCNCNvMs_NtNtNtCscyNIIr1ochp_14auth_framework12auth_modular3mfa5emailNtB8_12EmailManager9send_code00Be_
FNDA:0,_RNCNvMs_NtNtNtCscyNIIr1ochp_14auth_framework12auth_modular3mfa5emailNtB6_12EmailManager11verify_code0Bc_
FNDA:0,_RNCNvMs_NtNtNtCscyNIIr1ochp_14auth_framework12auth_modular3mfa5emailNtB6_12EmailManager13generate_code0Bc_
FNDA:0,_RNCNvMs_NtNtNtCscyNIIr1ochp_14auth_framework12auth_modular3mfa5emailNtB6_12EmailManager13send_via_smtp0Bc_
FNDA:0,_RNCNvMs_NtNtNtCscyNIIr1ochp_14auth_framework12auth_modular3mfa5emailNtB6_12EmailManager14get_user_email0Bc_
FNDA:0,_RNCNvMs_NtNtNtCscyNIIr1ochp_14auth_framework12auth_modular3mfa5emailNtB6_12EmailManager14register_email0Bc_
FNDA:0,_RNCNvMs_NtNtNtCscyNIIr1ochp_14auth_framework12auth_modular3mfa5emailNtB6_12EmailManager15send_email_code0Bc_
FNDA:0,_RNCNvMs_NtNtNtCscyNIIr1ochp_14auth_framework12auth_modular3mfa5emailNtB6_12EmailManager16send_via_aws_ses0Bc_
FNDA:0,_RNCNvMs_NtNtNtCscyNIIr1ochp_14auth_framework12auth_modular3mfa5emailNtB6_12EmailManager17send_via_sendgrid0Bc_
FNDA:0,_RNCNvMs_NtNtNtCscyNIIr1ochp_14auth_framework12auth_modular3mfa5emailNtB6_12EmailManager18initiate_challenge0Bc_
FNDA:0,_RNCNvMs_NtNtNtCscyNIIr1ochp_14auth_framework12auth_modular3mfa5emailNtB6_12EmailManager23send_email_via_provider0Bc_
FNDA:0,_RNCNvMs_NtNtNtCscyNIIr1ochp_14auth_framework12auth_modular3mfa5emailNtB6_12EmailManager9has_email0Bc_
FNDA:0,_RNCNvMs_NtNtNtCscyNIIr1ochp_14auth_framework12auth_modular3mfa5emailNtB6_12EmailManager9send_code0Bc_
FNDA:0,_RNvMs_NtNtNtCscyNIIr1ochp_14auth_framework12auth_modular3mfa5emailNtB4_12EmailManager11verify_code
FNDA:0,_RNvMs_NtNtNtCscyNIIr1ochp_14auth_framework12auth_modular3mfa5emailNtB4_12EmailManager13generate_code
FNDA:0,_RNvMs_NtNtNtCscyNIIr1ochp_14auth_framework12auth_modular3mfa5emailNtB4_12EmailManager13send_via_smtp
FNDA:0,_RNvMs_NtNtNtCscyNIIr1ochp_14auth_framework12auth_modular3mfa5emailNtB4_12EmailManager14get_user_email
FNDA:0,_RNvMs_NtNtNtCscyNIIr1ochp_14auth_framework12auth_modular3mfa5emailNtB4_12EmailManager14register_email
FNDA:0,_RNvMs_NtNtNtCscyNIIr1ochp_14auth_framework12auth_modular3mfa5emailNtB4_12EmailManager15new_with_config
FNDA:0,_RNvMs_NtNtNtCscyNIIr1ochp_14auth_framework12auth_modular3mfa5emailNtB4_12EmailManager15send_email_code
FNDA:0,_RNvMs_NtNtNtCscyNIIr1ochp_14auth_framework12auth_modular3mfa5emailNtB4_12EmailManager16send_via_aws_ses
FNDA:0,_RNvMs_NtNtNtCscyNIIr1ochp_14auth_framework12auth_modular3mfa5emailNtB4_12EmailManager17send_via_sendgrid
FNDA:0,_RNvMs_NtNtNtCscyNIIr1ochp_14auth_framework12auth_modular3mfa5emailNtB4_12EmailManager18initiate_challenge
FNDA:0,_RNvMs_NtNtNtCscyNIIr1ochp_14auth_framework12auth_modular3mfa5emailNtB4_12EmailManager23send_email_via_provider
FNDA:0,_RNvMs_NtNtNtCscyNIIr1ochp_14auth_framework12auth_modular3mfa5emailNtB4_12EmailManager3new
FNDA:0,_RNvMs_NtNtNtCscyNIIr1ochp_14auth_framework12auth_modular3mfa5emailNtB4_12EmailManager9has_email
FNDA:0,_RNvMs_NtNtNtCscyNIIr1ochp_14auth_framework12auth_modular3mfa5emailNtB4_12EmailManager9send_code
FNDA:0,_RNvXNtNtNtCscyNIIr1ochp_14auth_framework12auth_modular3mfa5emailNtB2_19EmailProviderConfigNtNtCsf36jwlS2r7m_4core7default7Default7default
FNF:31
FNH:2
DA:64,2
DA:65,2
DA:66,2
DA:67,2
DA:68,2
DA:69,2
DA:70,2
DA:71,2
DA:82,2
DA:83,2
DA:84,2
DA:85,2
DA:86,2
DA:87,2
DA:90,0
DA:91,0
DA:92,0
DA:93,0
DA:94,0
DA:95,0
DA:96,0
DA:97,0
DA:98,0
DA:101,0
DA:102,0
DA:105,0
DA:106,0
DA:107,0
DA:110,0
DA:111,0
DA:112,0
DA:113,0
DA:114,0
DA:117,0
DA:118,0
DA:119,0
DA:120,0
DA:122,0
DA:123,0
DA:124,0
DA:125,0
DA:128,0
DA:129,0
DA:131,0
DA:132,0
DA:133,0
DA:136,0
DA:137,0
DA:139,0
DA:141,0
DA:142,0
DA:143,0
DA:146,0
DA:147,0
DA:149,0
DA:152,0
DA:153,0
DA:154,0
DA:155,0
DA:156,0
DA:157,0
DA:158,0
DA:159,0
DA:161,0
DA:162,0
DA:165,0
DA:166,0
DA:169,0
DA:170,0
DA:171,0
DA:173,0
DA:174,0
DA:175,0
DA:178,0
DA:179,0
DA:180,0
DA:183,0
DA:185,0
DA:186,0
DA:187,0
DA:190,0
DA:192,0
DA:194,0
DA:195,0
DA:197,0
DA:200,0
DA:202,0
DA:205,0
DA:206,0
DA:209,0
DA:210,0
DA:211,0
DA:212,0
DA:213,0
DA:216,0
DA:217,0
DA:218,0
DA:219,0
DA:221,0
DA:222,0
DA:225,0
DA:227,0
DA:228,0
DA:229,0
DA:232,0
DA:236,0
DA:237,0
DA:238,0
DA:240,0
DA:243,0
DA:244,0
DA:246,0
DA:247,0
DA:248,0
DA:249,0
DA:251,0
DA:253,0
DA:256,0
DA:257,0
DA:258,0
DA:259,0
DA:260,0
DA:261,0
DA:262,0
DA:263,0
DA:264,0
DA:265,0
DA:268,0
DA:269,0
DA:270,0
DA:271,0
DA:272,0
DA:275,0
DA:278,0
DA:279,0
DA:280,0
DA:281,0
DA:282,0
DA:283,0
DA:285,0
DA:286,0
DA:287,0
DA:289,0
DA:290,0
DA:291,0
DA:293,0
DA:294,0
DA:295,0
DA:296,0
DA:300,0
DA:301,0
DA:302,0
DA:303,0
DA:304,0
DA:305,0
DA:306,0
DA:307,0
DA:309,0
DA:310,0
DA:311,0
DA:312,0
DA:314,0
DA:315,0
DA:316,0
DA:317,0
DA:318,0
DA:321,0
DA:323,0
DA:326,0
DA:328,0
DA:331,0
DA:335,0
DA:336,0
DA:338,0
DA:339,0
DA:340,0
DA:341,0
DA:342,0
DA:344,0
DA:346,0
DA:348,0
DA:351,0
DA:353,0
DA:354,0
DA:357,0
DA:358,0
DA:361,0
DA:362,0
DA:364,0
DA:365,0
DA:366,0
DA:367,0
DA:368,0
DA:369,0
DA:371,0
DA:373,0
DA:375,0
DA:378,0
DA:379,0
DA:380,0
DA:381,0
DA:382,0
DA:383,0
DA:385,0
DA:388,0
DA:390,0
DA:393,0
DA:396,0
DA:397,0
DA:398,0
DA:399,0
DA:400,0
DA:401,0
DA:402,0
DA:403,0
DA:405,0
DA:406,0
BRF:0
BRH:0
LF:235
LH:14
end_of_record
SF:C:\Users\cires\OneDrive\Documents\projects\AuthFramework\src\auth_modular\mfa\mod.rs
FN:182,_RNCNCNvMNtNtCsawKQoipWOme_14auth_framework12auth_modular3mfaNtB6_10MfaManager26cleanup_expired_challenges00Ba_
FN:177,_RNCNvMNtNtCsawKQoipWOme_14auth_framework12auth_modular3mfaNtB4_10MfaManager26cleanup_expired_challenges0B8_
FN:580,_RNCNCNvMNtNtCsawKQoipWOme_14auth_framework12auth_modular3mfaNtB6_10MfaManager20create_sms_challenge00Ba_
FN:596,_RNCNCNvMNtNtCsawKQoipWOme_14auth_framework12auth_modular3mfaNtB6_10MfaManager22create_email_challenge00Ba_
FN:461,_RNCNCNvMNtNtCsawKQoipWOme_14auth_framework12auth_modular3mfaNtB6_10MfaManager23perform_method_fallback00Ba_
FN:463,_RNCNCNvMNtNtCsawKQoipWOme_14auth_framework12auth_modular3mfaNtB6_10MfaManager23perform_method_fallback0s_0Ba_
FN:515,_RNCNCNvMNtNtCsawKQoipWOme_14auth_framework12auth_modular3mfaNtB6_10MfaManager26get_cross_method_challenge00Ba_
FN:161,_RNCNvMNtNtCsawKQoipWOme_14auth_framework12auth_modular3mfaNtB4_10MfaManager13get_challenge0B8_
FN:605,_RNCNvMNtNtCsawKQoipWOme_14auth_framework12auth_modular3mfaNtB4_10MfaManager14get_email_hint0B8_
FN:600,_RNCNvMNtNtCsawKQoipWOme_14auth_framework12auth_modular3mfaNtB4_10MfaManager14get_phone_hint0B8_
FN:151,_RNCNvMNtNtCsawKQoipWOme_14auth_framework12auth_modular3mfaNtB4_10MfaManager15store_challenge0B8_
FN:167,_RNCNvMNtNtCsawKQoipWOme_14auth_framework12auth_modular3mfaNtB4_10MfaManager16remove_challenge0B8_
FN:572,_RNCNvMNtNtCsawKQoipWOme_14auth_framework12auth_modular3mfaNtB4_10MfaManager20create_sms_challenge0B8_
FN:612,_RNCNvMNtNtCsawKQoipWOme_14auth_framework12auth_modular3mfaNtB4_10MfaManager20emergency_mfa_bypass0B8_
FN:561,_RNCNvMNtNtCsawKQoipWOme_14auth_framework12auth_modular3mfaNtB4_10MfaManager21create_totp_challenge0B8_
FN:383,_RNCNvMNtNtCsawKQoipWOme_14auth_framework12auth_modular3mfaNtB4_10MfaManager21get_available_methods0B8_
FN:546,_RNCNvMNtNtCsawKQoipWOme_14auth_framework12auth_modular3mfaNtB4_10MfaManager21get_remaining_methods0B8_
FN:480,_RNCNvMNtNtCsawKQoipWOme_14auth_framework12auth_modular3mfaNtB4_10MfaManager22adapt_required_methods0B8_
FN:588,_RNCNvMNtNtCsawKQoipWOme_14auth_framework12auth_modular3mfaNtB4_10MfaManager22create_email_challenge0B8_
FN:427,_RNCNvMNtNtCsawKQoipWOme_14auth_framework12auth_modular3mfaNtB4_10MfaManager23perform_method_fallback0B8_
FN:290,_RNCNvMNtNtCsawKQoipWOme_14auth_framework12auth_modular3mfaNtB4_10MfaManager26complete_cross_method_step0B8_
FN:188,_RNCNvMNtNtCsawKQoipWOme_14auth_framework12auth_modular3mfaNtB4_10MfaManager26get_active_challenge_count0B8_
FN:511,_RNCNvMNtNtCsawKQoipWOme_14auth_framework12auth_modular3mfaNtB4_10MfaManager26get_cross_method_challenge0B8_
FN:531,_RNCNvMNtNtCsawKQoipWOme_14auth_framework12auth_modular3mfaNtB4_10MfaManager29update_cross_method_challenge0B8_
FN:198,_RNCNvMNtNtCsawKQoipWOme_14auth_framework12auth_modular3mfaNtB4_10MfaManager31initiate_step_up_authentication0B8_
FN:161,_RNvMNtNtCsawKQoipWOme_14auth_framework12auth_modular3mfaNtB2_10MfaManager13get_challenge
FN:605,_RNvMNtNtCsawKQoipWOme_14auth_framework12auth_modular3mfaNtB2_10MfaManager14get_email_hint
FN:600,_RNvMNtNtCsawKQoipWOme_14auth_framework12auth_modular3mfaNtB2_10MfaManager14get_phone_hint
FN:151,_RNvMNtNtCsawKQoipWOme_14auth_framework12auth_modular3mfaNtB2_10MfaManager15store_challenge
FN:167,_RNvMNtNtCsawKQoipWOme_14auth_framework12auth_modular3mfaNtB2_10MfaManager16remove_challenge
FN:568,_RNvMNtNtCsawKQoipWOme_14auth_framework12auth_modular3mfaNtB2_10MfaManager20create_sms_challenge
FN:612,_RNvMNtNtCsawKQoipWOme_14auth_framework12auth_modular3mfaNtB2_10MfaManager20emergency_mfa_bypass
FN:557,_RNvMNtNtCsawKQoipWOme_14auth_framework12auth_modular3mfaNtB2_10MfaManager21create_totp_challenge
FN:383,_RNvMNtNtCsawKQoipWOme_14auth_framework12auth_modular3mfaNtB2_10MfaManager21get_available_methods
FN:542,_RNvMNtNtCsawKQoipWOme_14auth_framework12auth_modular3mfaNtB2_10MfaManager21get_remaining_methods
FN:476,_RNvMNtNtCsawKQoipWOme_14auth_framework12auth_modular3mfaNtB2_10MfaManager22adapt_required_methods
FN:584,_RNvMNtNtCsawKQoipWOme_14auth_framework12auth_modular3mfaNtB2_10MfaManager22create_email_challenge
FN:136,_RNvMNtNtCsawKQoipWOme_14auth_framework12auth_modular3mfaNtB2_10MfaManager22new_with_smskit_config
FN:422,_RNvMNtNtCsawKQoipWOme_14auth_framework12auth_modular3mfaNtB2_10MfaManager23perform_method_fallback
FN:285,_RNvMNtNtCsawKQoipWOme_14auth_framework12auth_modular3mfaNtB2_10MfaManager26complete_cross_method_step
FN:188,_RNvMNtNtCsawKQoipWOme_14auth_framework12auth_modular3mfaNtB2_10MfaManager26get_active_challenge_count
FN:511,_RNvMNtNtCsawKQoipWOme_14auth_framework12auth_modular3mfaNtB2_10MfaManager26get_cross_method_challenge
FN:528,_RNvMNtNtCsawKQoipWOme_14auth_framework12auth_modular3mfaNtB2_10MfaManager29update_cross_method_challenge
FN:193,_RNvMNtNtCsawKQoipWOme_14auth_framework12auth_modular3mfaNtB2_10MfaManager31initiate_step_up_authentication
FN:177,_RNvMNtNtCsawKQoipWOme_14auth_framework12auth_modular3mfaNtB2_10MfaManager26cleanup_expired_challenges
FN:124,_RNvMNtNtCsawKQoipWOme_14auth_framework12auth_modular3mfaNtB2_10MfaManager3new
FN:546,_RNCNvMNtNtCscyNIIr1ochp_14auth_framework12auth_modular3mfaNtB4_10MfaManager21get_remaining_methods0B8_
FN:580,_RNCNCNvMNtNtCscyNIIr1ochp_14auth_framework12auth_modular3mfaNtB6_10MfaManager20create_sms_challenge00Ba_
FN:596,_RNCNCNvMNtNtCscyNIIr1ochp_14auth_framework12auth_modular3mfaNtB6_10MfaManager22create_email_challenge00Ba_
FN:461,_RNCNCNvMNtNtCscyNIIr1ochp_14auth_framework12auth_modular3mfaNtB6_10MfaManager23perform_method_fallback00Ba_
FN:463,_RNCNCNvMNtNtCscyNIIr1ochp_14auth_framework12auth_modular3mfaNtB6_10MfaManager23perform_method_fallback0s_0Ba_
FN:182,_RNCNCNvMNtNtCscyNIIr1ochp_14auth_framework12auth_modular3mfaNtB6_10MfaManager26cleanup_expired_challenges00Ba_
FN:515,_RNCNCNvMNtNtCscyNIIr1ochp_14auth_framework12auth_modular3mfaNtB6_10MfaManager26get_cross_method_challenge00Ba_
FN:161,_RNCNvMNtNtCscyNIIr1ochp_14auth_framework12auth_modular3mfaNtB4_10MfaManager13get_challenge0B8_
FN:605,_RNCNvMNtNtCscyNIIr1ochp_14auth_framework12auth_modular3mfaNtB4_10MfaManager14get_email_hint0B8_
FN:600,_RNCNvMNtNtCscyNIIr1ochp_14auth_framework12auth_modular3mfaNtB4_10MfaManager14get_phone_hint0B8_
FN:151,_RNCNvMNtNtCscyNIIr1ochp_14auth_framework12auth_modular3mfaNtB4_10MfaManager15store_challenge0B8_
FN:167,_RNCNvMNtNtCscyNIIr1ochp_14auth_framework12auth_modular3mfaNtB4_10MfaManager16remove_challenge0B8_
FN:572,_RNCNvMNtNtCscyNIIr1ochp_14auth_framework12auth_modular3mfaNtB4_10MfaManager20create_sms_challenge0B8_
FN:612,_RNCNvMNtNtCscyNIIr1ochp_14auth_framework12auth_modular3mfaNtB4_10MfaManager20emergency_mfa_bypass0B8_
FN:561,_RNCNvMNtNtCscyNIIr1ochp_14auth_framework12auth_modular3mfaNtB4_10MfaManager21create_totp_challenge0B8_
FN:383,_RNCNvMNtNtCscyNIIr1ochp_14auth_framework12auth_modular3mfaNtB4_10MfaManager21get_available_methods0B8_
FN:480,_RNCNvMNtNtCscyNIIr1ochp_14auth_framework12auth_modular3mfaNtB4_10MfaManager22adapt_required_methods0B8_
FN:588,_RNCNvMNtNtCscyNIIr1ochp_14auth_framework12auth_modular3mfaNtB4_10MfaManager22create_email_challenge0B8_
FN:427,_RNCNvMNtNtCscyNIIr1ochp_14auth_framework12auth_modular3mfaNtB4_10MfaManager23perform_method_fallback0B8_
FN:177,_RNCNvMNtNtCscyNIIr1ochp_14auth_framework12auth_modular3mfaNtB4_10MfaManager26cleanup_expired_challenges0B8_
FN:290,_RNCNvMNtNtCscyNIIr1ochp_14auth_framework12auth_modular3mfaNtB4_10MfaManager26complete_cross_method_step0B8_
FN:188,_RNCNvMNtNtCscyNIIr1ochp_14auth_framework12auth_modular3mfaNtB4_10MfaManager26get_active_challenge_count0B8_
FN:511,_RNCNvMNtNtCscyNIIr1ochp_14auth_framework12auth_modular3mfaNtB4_10MfaManager26get_cross_method_challenge0B8_
FN:531,_RNCNvMNtNtCscyNIIr1ochp_14auth_framework12auth_modular3mfaNtB4_10MfaManager29update_cross_method_challenge0B8_
FN:198,_RNCNvMNtNtCscyNIIr1ochp_14auth_framework12auth_modular3mfaNtB4_10MfaManager31initiate_step_up_authentication0B8_
FN:161,_RNvMNtNtCscyNIIr1ochp_14auth_framework12auth_modular3mfaNtB2_10MfaManager13get_challenge
FN:605,_RNvMNtNtCscyNIIr1ochp_14auth_framework12auth_modular3mfaNtB2_10MfaManager14get_email_hint
FN:600,_RNvMNtNtCscyNIIr1ochp_14auth_framework12auth_modular3mfaNtB2_10MfaManager14get_phone_hint
FN:151,_RNvMNtNtCscyNIIr1ochp_14auth_framework12auth_modular3mfaNtB2_10MfaManager15store_challenge
FN:167,_RNvMNtNtCscyNIIr1ochp_14auth_framework12auth_modular3mfaNtB2_10MfaManager16remove_challenge
FN:568,_RNvMNtNtCscyNIIr1ochp_14auth_framework12auth_modular3mfaNtB2_10MfaManager20create_sms_challenge
FN:612,_RNvMNtNtCscyNIIr1ochp_14auth_framework12auth_modular3mfaNtB2_10MfaManager20emergency_mfa_bypass
FN:557,_RNvMNtNtCscyNIIr1ochp_14auth_framework12auth_modular3mfaNtB2_10MfaManager21create_totp_challenge
FN:383,_RNvMNtNtCscyNIIr1ochp_14auth_framework12auth_modular3mfaNtB2_10MfaManager21get_available_methods
FN:542,_RNvMNtNtCscyNIIr1ochp_14auth_framework12auth_modular3mfaNtB2_10MfaManager21get_remaining_methods
FN:476,_RNvMNtNtCscyNIIr1ochp_14auth_framework12auth_modular3mfaNtB2_10MfaManager22adapt_required_methods
FN:584,_RNvMNtNtCscyNIIr1ochp_14auth_framework12auth_modular3mfaNtB2_10MfaManager22create_email_challenge
FN:136,_RNvMNtNtCscyNIIr1ochp_14auth_framework12auth_modular3mfaNtB2_10MfaManager22new_with_smskit_config
FN:422,_RNvMNtNtCscyNIIr1ochp_14auth_framework12auth_modular3mfaNtB2_10MfaManager23perform_method_fallback
FN:177,_RNvMNtNtCscyNIIr1ochp_14auth_framework12auth_modular3mfaNtB2_10MfaManager26cleanup_expired_challenges
FN:285,_RNvMNtNtCscyNIIr1ochp_14auth_framework12auth_modular3mfaNtB2_10MfaManager26complete_cross_method_step
FN:188,_RNvMNtNtCscyNIIr1ochp_14auth_framework12auth_modular3mfaNtB2_10MfaManager26get_active_challenge_count
FN:511,_RNvMNtNtCscyNIIr1ochp_14auth_framework12auth_modular3mfaNtB2_10MfaManager26get_cross_method_challenge
FN:528,_RNvMNtNtCscyNIIr1ochp_14auth_framework12auth_modular3mfaNtB2_10MfaManager29update_cross_method_challenge
FN:193,_RNvMNtNtCscyNIIr1ochp_14auth_framework12auth_modular3mfaNtB2_10MfaManager31initiate_step_up_authentication
FN:124,_RNvMNtNtCscyNIIr1ochp_14auth_framework12auth_modular3mfaNtB2_10MfaManager3new
FNDA:0,_RNCNCNvMNtNtCsawKQoipWOme_14auth_framework12auth_modular3mfaNtB6_10MfaManager26cleanup_expired_challenges00Ba_
FNDA:1,_RNCNvMNtNtCsawKQoipWOme_14auth_framework12auth_modular3mfaNtB4_10MfaManager26cleanup_expired_challenges0B8_
FNDA:0,_RNCNCNvMNtNtCsawKQoipWOme_14auth_framework12auth_modular3mfaNtB6_10MfaManager20create_sms_challenge00Ba_
FNDA:0,_RNCNCNvMNtNtCsawKQoipWOme_14auth_framework12auth_modular3mfaNtB6_10MfaManager22create_email_challenge00Ba_
FNDA:0,_RNCNCNvMNtNtCsawKQoipWOme_14auth_framework12auth_modular3mfaNtB6_10MfaManager23perform_method_fallback00Ba_
FNDA:0,_RNCNCNvMNtNtCsawKQoipWOme_14auth_framework12auth_modular3mfaNtB6_10MfaManager23perform_method_fallback0s_0Ba_
FNDA:0,_RNCNCNvMNtNtCsawKQoipWOme_14auth_framework12auth_modular3mfaNtB6_10MfaManager26get_cross_method_challenge00Ba_
FNDA:0,_RNCNvMNtNtCsawKQoipWOme_14auth_framework12auth_modular3mfaNtB4_10MfaManager13get_challenge0B8_
FNDA:0,_RNCNvMNtNtCsawKQoipWOme_14auth_framework12auth_modular3mfaNtB4_10MfaManager14get_email_hint0B8_
FNDA:0,_RNCNvMNtNtCsawKQoipWOme_14auth_framework12auth_modular3mfaNtB4_10MfaManager14get_phone_hint0B8_
FNDA:0,_RNCNvMNtNtCsawKQoipWOme_14auth_framework12auth_modular3mfaNtB4_10MfaManager15store_challenge0B8_
FNDA:0,_RNCNvMNtNtCsawKQoipWOme_14auth_framework12auth_modular3mfaNtB4_10MfaManager16remove_challenge0B8_
FNDA:0,_RNCNvMNtNtCsawKQoipWOme_14auth_framework12auth_modular3mfaNtB4_10MfaManager20create_sms_challenge0B8_
FNDA:0,_RNCNvMNtNtCsawKQoipWOme_14auth_framework12auth_modular3mfaNtB4_10MfaManager20emergency_mfa_bypass0B8_
FNDA:0,_RNCNvMNtNtCsawKQoipWOme_14auth_framework12auth_modular3mfaNtB4_10MfaManager21create_totp_challenge0B8_
FNDA:0,_RNCNvMNtNtCsawKQoipWOme_14auth_framework12auth_modular3mfaNtB4_10MfaManager21get_available_methods0B8_
FNDA:0,_RNCNvMNtNtCsawKQoipWOme_14auth_framework12auth_modular3mfaNtB4_10MfaManager21get_remaining_methods0B8_
FNDA:0,_RNCNvMNtNtCsawKQoipWOme_14auth_framework12auth_modular3mfaNtB4_10MfaManager22adapt_required_methods0B8_
FNDA:0,_RNCNvMNtNtCsawKQoipWOme_14auth_framework12auth_modular3mfaNtB4_10MfaManager22create_email_challenge0B8_
FNDA:0,_RNCNvMNtNtCsawKQoipWOme_14auth_framework12auth_modular3mfaNtB4_10MfaManager23perform_method_fallback0B8_
FNDA:0,_RNCNvMNtNtCsawKQoipWOme_14auth_framework12auth_modular3mfaNtB4_10MfaManager26complete_cross_method_step0B8_
FNDA:0,_RNCNvMNtNtCsawKQoipWOme_14auth_framework12auth_modular3mfaNtB4_10MfaManager26get_active_challenge_count0B8_
FNDA:0,_RNCNvMNtNtCsawKQoipWOme_14auth_framework12auth_modular3mfaNtB4_10MfaManager26get_cross_method_challenge0B8_
FNDA:0,_RNCNvMNtNtCsawKQoipWOme_14auth_framework12auth_modular3mfaNtB4_10MfaManager29update_cross_method_challenge0B8_
FNDA:0,_RNCNvMNtNtCsawKQoipWOme_14auth_framework12auth_modular3mfaNtB4_10MfaManager31initiate_step_up_authentication0B8_
FNDA:0,_RNvMNtNtCsawKQoipWOme_14auth_framework12auth_modular3mfaNtB2_10MfaManager13get_challenge
FNDA:0,_RNvMNtNtCsawKQoipWOme_14auth_framework12auth_modular3mfaNtB2_10MfaManager14get_email_hint
FNDA:0,_RNvMNtNtCsawKQoipWOme_14auth_framework12auth_modular3mfaNtB2_10MfaManager14get_phone_hint
FNDA:0,_RNvMNtNtCsawKQoipWOme_14auth_framework12auth_modular3mfaNtB2_10MfaManager15store_challenge
FNDA:0,_RNvMNtNtCsawKQoipWOme_14auth_framework12auth_modular3mfaNtB2_10MfaManager16remove_challenge
FNDA:0,_RNvMNtNtCsawKQoipWOme_14auth_framework12auth_modular3mfaNtB2_10MfaManager20create_sms_challenge
FNDA:0,_RNvMNtNtCsawKQoipWOme_14auth_framework12auth_modular3mfaNtB2_10MfaManager20emergency_mfa_bypass
FNDA:0,_RNvMNtNtCsawKQoipWOme_14auth_framework12auth_modular3mfaNtB2_10MfaManager21create_totp_challenge
FNDA:0,_RNvMNtNtCsawKQoipWOme_14auth_framework12auth_modular3mfaNtB2_10MfaManager21get_available_methods
FNDA:0,_RNvMNtNtCsawKQoipWOme_14auth_framework12auth_modular3mfaNtB2_10MfaManager21get_remaining_methods
FNDA:0,_RNvMNtNtCsawKQoipWOme_14auth_framework12auth_modular3mfaNtB2_10MfaManager22adapt_required_methods
FNDA:0,_RNvMNtNtCsawKQoipWOme_14auth_framework12auth_modular3mfaNtB2_10MfaManager22create_email_challenge
FNDA:0,_RNvMNtNtCsawKQoipWOme_14auth_framework12auth_modular3mfaNtB2_10MfaManager22new_with_smskit_config
FNDA:0,_RNvMNtNtCsawKQoipWOme_14auth_framework12auth_modular3mfaNtB2_10MfaManager23perform_method_fallback
FNDA:0,_RNvMNtNtCsawKQoipWOme_14auth_framework12auth_modular3mfaNtB2_10MfaManager26complete_cross_method_step
FNDA:0,_RNvMNtNtCsawKQoipWOme_14auth_framework12auth_modular3mfaNtB2_10MfaManager26get_active_challenge_count
FNDA:0,_RNvMNtNtCsawKQoipWOme_14auth_framework12auth_modular3mfaNtB2_10MfaManager26get_cross_method_challenge
FNDA:0,_RNvMNtNtCsawKQoipWOme_14auth_framework12auth_modular3mfaNtB2_10MfaManager29update_cross_method_challenge
FNDA:0,_RNvMNtNtCsawKQoipWOme_14auth_framework12auth_modular3mfaNtB2_10MfaManager31initiate_step_up_authentication
FNDA:1,_RNvMNtNtCsawKQoipWOme_14auth_framework12auth_modular3mfaNtB2_10MfaManager26cleanup_expired_challenges
FNDA:2,_RNvMNtNtCsawKQoipWOme_14auth_framework12auth_modular3mfaNtB2_10MfaManager3new
FNDA:0,_RNCNvMNtNtCscyNIIr1ochp_14auth_framework12auth_modular3mfaNtB4_10MfaManager21get_remaining_methods0B8_
FNDA:0,_RNCNCNvMNtNtCscyNIIr1ochp_14auth_framework12auth_modular3mfaNtB6_10MfaManager20create_sms_challenge00Ba_
FNDA:0,_RNCNCNvMNtNtCscyNIIr1ochp_14auth_framework12auth_modular3mfaNtB6_10MfaManager22create_email_challenge00Ba_
FNDA:0,_RNCNCNvMNtNtCscyNIIr1ochp_14auth_framework12auth_modular3mfaNtB6_10MfaManager23perform_method_fallback00Ba_
FNDA:0,_RNCNCNvMNtNtCscyNIIr1ochp_14auth_framework12auth_modular3mfaNtB6_10MfaManager23perform_method_fallback0s_0Ba_
FNDA:0,_RNCNCNvMNtNtCscyNIIr1ochp_14auth_framework12auth_modular3mfaNtB6_10MfaManager26cleanup_expired_challenges00Ba_
FNDA:0,_RNCNCNvMNtNtCscyNIIr1ochp_14auth_framework12auth_modular3mfaNtB6_10MfaManager26get_cross_method_challenge00Ba_
FNDA:0,_RNCNvMNtNtCscyNIIr1ochp_14auth_framework12auth_modular3mfaNtB4_10MfaManager13get_challenge0B8_
FNDA:0,_RNCNvMNtNtCscyNIIr1ochp_14auth_framework12auth_modular3mfaNtB4_10MfaManager14get_email_hint0B8_
FNDA:0,_RNCNvMNtNtCscyNIIr1ochp_14auth_framework12auth_modular3mfaNtB4_10MfaManager14get_phone_hint0B8_
FNDA:0,_RNCNvMNtNtCscyNIIr1ochp_14auth_framework12auth_modular3mfaNtB4_10MfaManager15store_challenge0B8_
FNDA:0,_RNCNvMNtNtCscyNIIr1ochp_14auth_framework12auth_modular3mfaNtB4_10MfaManager16remove_challenge0B8_
FNDA:0,_RNCNvMNtNtCscyNIIr1ochp_14auth_framework12auth_modular3mfaNtB4_10MfaManager20create_sms_challenge0B8_
FNDA:0,_RNCNvMNtNtCscyNIIr1ochp_14auth_framework12auth_modular3mfaNtB4_10MfaManager20emergency_mfa_bypass0B8_
FNDA:0,_RNCNvMNtNtCscyNIIr1ochp_14auth_framework12auth_modular3mfaNtB4_10MfaManager21create_totp_challenge0B8_
FNDA:0,_RNCNvMNtNtCscyNIIr1ochp_14auth_framework12auth_modular3mfaNtB4_10MfaManager21get_available_methods0B8_
FNDA:0,_RNCNvMNtNtCscyNIIr1ochp_14auth_framework12auth_modular3mfaNtB4_10MfaManager22adapt_required_methods0B8_
FNDA:0,_RNCNvMNtNtCscyNIIr1ochp_14auth_framework12auth_modular3mfaNtB4_10MfaManager22create_email_challenge0B8_
FNDA:0,_RNCNvMNtNtCscyNIIr1ochp_14auth_framework12auth_modular3mfaNtB4_10MfaManager23perform_method_fallback0B8_
FNDA:0,_RNCNvMNtNtCscyNIIr1ochp_14auth_framework12auth_modular3mfaNtB4_10MfaManager26cleanup_expired_challenges0B8_
FNDA:0,_RNCNvMNtNtCscyNIIr1ochp_14auth_framework12auth_modular3mfaNtB4_10MfaManager26complete_cross_method_step0B8_
FNDA:0,_RNCNvMNtNtCscyNIIr1ochp_14auth_framework12auth_modular3mfaNtB4_10MfaManager26get_active_challenge_count0B8_
FNDA:0,_RNCNvMNtNtCscyNIIr1ochp_14auth_framework12auth_modular3mfaNtB4_10MfaManager26get_cross_method_challenge0B8_
FNDA:0,_RNCNvMNtNtCscyNIIr1ochp_14auth_framework12auth_modular3mfaNtB4_10MfaManager29update_cross_method_challenge0B8_
FNDA:0,_RNCNvMNtNtCscyNIIr1ochp_14auth_framework12auth_modular3mfaNtB4_10MfaManager31initiate_step_up_authentication0B8_
FNDA:0,_RNvMNtNtCscyNIIr1ochp_14auth_framework12auth_modular3mfaNtB2_10MfaManager13get_challenge
FNDA:0,_RNvMNtNtCscyNIIr1ochp_14auth_framework12auth_modular3mfaNtB2_10MfaManager14get_email_hint
FNDA:0,_RNvMNtNtCscyNIIr1ochp_14auth_framework12auth_modular3mfaNtB2_10MfaManager14get_phone_hint
FNDA:0,_RNvMNtNtCscyNIIr1ochp_14auth_framework12auth_modular3mfaNtB2_10MfaManager15store_challenge
FNDA:0,_RNvMNtNtCscyNIIr1ochp_14auth_framework12auth_modular3mfaNtB2_10MfaManager16remove_challenge
FNDA:0,_RNvMNtNtCscyNIIr1ochp_14auth_framework12auth_modular3mfaNtB2_10MfaManager20create_sms_challenge
FNDA:0,_RNvMNtNtCscyNIIr1ochp_14auth_framework12auth_modular3mfaNtB2_10MfaManager20emergency_mfa_bypass
FNDA:0,_RNvMNtNtCscyNIIr1ochp_14auth_framework12auth_modular3mfaNtB2_10MfaManager21create_totp_challenge
FNDA:0,_RNvMNtNtCscyNIIr1ochp_14auth_framework12auth_modular3mfaNtB2_10MfaManager21get_available_methods
FNDA:0,_RNvMNtNtCscyNIIr1ochp_14auth_framework12auth_modular3mfaNtB2_10MfaManager21get_remaining_methods
FNDA:0,_RNvMNtNtCscyNIIr1ochp_14auth_framework12auth_modular3mfaNtB2_10MfaManager22adapt_required_methods
FNDA:0,_RNvMNtNtCscyNIIr1ochp_14auth_framework12auth_modular3mfaNtB2_10MfaManager22create_email_challenge
FNDA:0,_RNvMNtNtCscyNIIr1ochp_14auth_framework12auth_modular3mfaNtB2_10MfaManager22new_with_smskit_config
FNDA:0,_RNvMNtNtCscyNIIr1ochp_14auth_framework12auth_modular3mfaNtB2_10MfaManager23perform_method_fallback
FNDA:0,_RNvMNtNtCscyNIIr1ochp_14auth_framework12auth_modular3mfaNtB2_10MfaManager26cleanup_expired_challenges
FNDA:0,_RNvMNtNtCscyNIIr1ochp_14auth_framework12auth_modular3mfaNtB2_10MfaManager26complete_cross_method_step
FNDA:0,_RNvMNtNtCscyNIIr1ochp_14auth_framework12auth_modular3mfaNtB2_10MfaManager26get_active_challenge_count
FNDA:0,_RNvMNtNtCscyNIIr1ochp_14auth_framework12auth_modular3mfaNtB2_10MfaManager26get_cross_method_challenge
FNDA:0,_RNvMNtNtCscyNIIr1ochp_14auth_framework12auth_modular3mfaNtB2_10MfaManager29update_cross_method_challenge
FNDA:0,_RNvMNtNtCscyNIIr1ochp_14auth_framework12auth_modular3mfaNtB2_10MfaManager31initiate_step_up_authentication
FNDA:0,_RNvMNtNtCscyNIIr1ochp_14auth_framework12auth_modular3mfaNtB2_10MfaManager3new
FNF:46
FNH:3
DA:124,2
DA:125,2
DA:126,2
DA:127,2
DA:128,2
DA:129,2
DA:130,2
DA:131,2
DA:132,2
DA:133,2
DA:136,0
DA:137,0
DA:138,0
DA:139,0
DA:141,0
DA:142,0
DA:143,0
DA:144,0
DA:145,0
DA:146,0
DA:148,0
DA:151,0
DA:152,0
DA:154,0
DA:155,0
DA:157,0
DA:158,0
DA:161,0
DA:162,0
DA:163,0
DA:164,0
DA:167,0
DA:168,0
DA:170,0
DA:171,0
DA:173,0
DA:174,0
DA:177,1
DA:178,1
DA:180,1
DA:181,1
DA:182,1
DA:184,1
DA:185,1
DA:188,0
DA:189,0
DA:190,0
DA:193,0
DA:194,0
DA:195,0
DA:196,0
DA:197,0
DA:198,0
DA:199,0
DA:200,0
DA:206,0
DA:207,0
DA:208,0
DA:211,0
DA:214,0
DA:215,0
DA:217,0
DA:218,0
DA:220,0
DA:221,0
DA:224,0
DA:225,0
DA:228,0
DA:229,0
DA:232,0
DA:233,0
DA:234,0
DA:235,0
DA:236,0
DA:240,0
DA:243,0
DA:244,0
DA:245,0
DA:246,0
DA:247,0
DA:248,0
DA:249,0
DA:250,0
DA:251,0
DA:252,0
DA:256,0
DA:257,0
DA:258,0
DA:260,0
DA:261,0
DA:262,0
DA:263,0
DA:264,0
DA:266,0
DA:267,0
DA:268,0
DA:269,0
DA:271,0
DA:277,0
DA:278,0
DA:279,0
DA:281,0
DA:282,0
DA:285,0
DA:286,0
DA:287,0
DA:288,0
DA:289,0
DA:290,0
DA:291,0
DA:292,0
DA:298,0
DA:300,0
DA:301,0
DA:302,0
DA:303,0
DA:304,0
DA:305,0
DA:306,0
DA:307,0
DA:308,0
DA:311,0
DA:313,0
DA:314,0
DA:315,0
DA:318,0
DA:319,0
DA:320,0
DA:323,0
DA:324,0
DA:325,0
DA:328,0
DA:329,0
DA:330,0
DA:334,0
DA:336,0
DA:338,0
DA:339,0
DA:340,0
DA:343,0
DA:345,0
DA:347,0
DA:348,0
DA:354,0
DA:355,0
DA:357,0
DA:358,0
DA:359,0
DA:363,0
DA:364,0
DA:367,0
DA:368,0
DA:369,0
DA:370,0
DA:371,0
DA:372,0
DA:374,0
DA:375,0
DA:376,0
DA:377,0
DA:380,0
DA:383,0
DA:384,0
DA:386,0
DA:389,0
DA:390,0
DA:391,0
DA:394,0
DA:395,0
DA:396,0
DA:399,0
DA:400,0
DA:401,0
DA:404,0
DA:405,0
DA:406,0
DA:407,0
DA:408,0
DA:409,0
DA:410,0
DA:411,0
DA:413,0
DA:414,0
DA:418,0
DA:419,0
DA:422,0
DA:423,0
DA:424,0
DA:425,0
DA:426,0
DA:427,0
DA:428,0
DA:429,0
DA:434,0
DA:437,0
DA:438,0
DA:440,0
DA:441,0
DA:442,0
DA:443,0
DA:444,0
DA:445,0
DA:446,0
DA:447,0
DA:450,0
DA:451,0
DA:457,0
DA:458,0
DA:459,0
DA:460,0
DA:461,0
DA:462,0
DA:463,0
DA:464,0
DA:465,0
DA:467,0
DA:470,0
DA:471,0
DA:472,0
DA:473,0
DA:476,0
DA:477,0
DA:478,0
DA:479,0
DA:480,0
DA:481,0
DA:483,0
DA:484,0
DA:485,0
DA:486,0
DA:487,0
DA:488,0
DA:489,0
DA:490,0
DA:491,0
DA:494,0
DA:495,0
DA:496,0
DA:497,0
DA:498,0
DA:499,0
DA:501,0
DA:502,0
DA:503,0
DA:504,0
DA:507,0
DA:508,0
DA:511,0
DA:512,0
DA:513,0
DA:514,0
DA:515,0
DA:517,0
DA:518,0
DA:519,0
DA:521,0
DA:522,0
DA:523,0
DA:525,0
DA:526,0
DA:528,0
DA:529,0
DA:530,0
DA:531,0
DA:532,0
DA:533,0
DA:534,0
DA:535,0
DA:536,0
DA:538,0
DA:539,0
DA:540,0
DA:542,0
DA:543,0
DA:544,0
DA:545,0
DA:546,0
DA:547,0
DA:548,0
DA:550,0
DA:552,0
DA:553,0
DA:554,0
DA:557,0
DA:558,0
DA:559,0
DA:560,0
DA:561,0
DA:562,0
DA:563,0
DA:564,0
DA:565,0
DA:566,0
DA:568,0
DA:569,0
DA:570,0
DA:571,0
DA:572,0
DA:573,0
DA:575,0
DA:576,0
DA:577,0
DA:578,0
DA:579,0
DA:580,0
DA:582,0
DA:584,0
DA:585,0
DA:586,0
DA:587,0
DA:588,0
DA:589,0
DA:591,0
DA:592,0
DA:593,0
DA:594,0
DA:595,0
DA:596,0
DA:598,0
DA:600,0
DA:602,0
DA:603,0
DA:605,0
DA:607,0
DA:608,0
DA:612,0
DA:613,0
DA:616,0
DA:617,0
DA:618,0
DA:621,0
DA:622,0
DA:623,0
DA:624,0
DA:626,0
DA:627,0
DA:628,0
DA:629,0
DA:630,0
DA:631,0
DA:632,0
DA:634,0
DA:636,0
DA:637,0
DA:639,0
BRF:0
BRH:0
LF:370
LH:18
end_of_record
SF:C:\Users\cires\OneDrive\Documents\projects\AuthFramework\src\auth_modular\mfa\sms_kit.rs
FN:255,_RNCNCNvMs0_NtNtNtCsawKQoipWOme_14auth_framework12auth_modular3mfa7sms_kitNtB9_13SmsKitManager11verify_code00Bf_
FN:379,_RNCNCNvMs0_NtNtNtCsawKQoipWOme_14auth_framework12auth_modular3mfa7sms_kitNtB9_13SmsKitManager14get_user_phone00Bf_
FN:137,_RNCNCNvMs0_NtNtNtCsawKQoipWOme_14auth_framework12auth_modular3mfa7sms_kitNtB9_13SmsKitManager21register_phone_number00Bf_
FN:281,_RNCNCNvMs0_NtNtNtCsawKQoipWOme_14auth_framework12auth_modular3mfa7sms_kitNtB9_13SmsKitManager9send_code00Bf_
FN:241,_RNCNvMs0_NtNtNtCsawKQoipWOme_14auth_framework12auth_modular3mfa7sms_kitNtB7_13SmsKitManager11verify_code0Bd_
FN:224,_RNCNvMs0_NtNtNtCsawKQoipWOme_14auth_framework12auth_modular3mfa7sms_kitNtB7_13SmsKitManager13generate_code0Bd_
FN:213,_RNCNvMs0_NtNtNtCsawKQoipWOme_14auth_framework12auth_modular3mfa7sms_kitNtB7_13SmsKitManager13get_sms_count0Bd_
FN:375,_RNCNvMs0_NtNtNtCsawKQoipWOme_14auth_framework12auth_modular3mfa7sms_kitNtB7_13SmsKitManager14get_user_phone0Bd_
FN:388,_RNCNvMs0_NtNtNtCsawKQoipWOme_14auth_framework12auth_modular3mfa7sms_kitNtB7_13SmsKitManager16has_phone_number0Bd_
FN:178,_RNCNvMs0_NtNtNtCsawKQoipWOme_14auth_framework12auth_modular3mfa7sms_kitNtB7_13SmsKitManager17check_rate_limits0Bd_
FN:163,_RNCNvMs0_NtNtNtCsawKQoipWOme_14auth_framework12auth_modular3mfa7sms_kitNtB7_13SmsKitManager18initiate_challenge0Bd_
FN:337,_RNCNvMs0_NtNtNtCsawKQoipWOme_14auth_framework12auth_modular3mfa7sms_kitNtB7_13SmsKitManager18update_rate_limits0Bd_
FN:123,_RNCNvMs0_NtNtNtCsawKQoipWOme_14auth_framework12auth_modular3mfa7sms_kitNtB7_13SmsKitManager21register_phone_number0Bd_
FN:309,_RNCNvMs0_NtNtNtCsawKQoipWOme_14auth_framework12auth_modular3mfa7sms_kitNtB7_13SmsKitManager22send_sms_with_fallback0Bd_
FN:398,_RNCNvMs0_NtNtNtCsawKQoipWOme_14auth_framework12auth_modular3mfa7sms_kitNtB7_13SmsKitManager22send_verification_code0Bd_
FN:275,_RNCNvMs0_NtNtNtCsawKQoipWOme_14auth_framework12auth_modular3mfa7sms_kitNtB7_13SmsKitManager9send_code0Bd_
FN:241,_RNvMs0_NtNtNtCsawKQoipWOme_14auth_framework12auth_modular3mfa7sms_kitNtB5_13SmsKitManager11verify_code
FN:224,_RNvMs0_NtNtNtCsawKQoipWOme_14auth_framework12auth_modular3mfa7sms_kitNtB5_13SmsKitManager13generate_code
FN:213,_RNvMs0_NtNtNtCsawKQoipWOme_14auth_framework12auth_modular3mfa7sms_kitNtB5_13SmsKitManager13get_sms_count
FN:375,_RNvMs0_NtNtNtCsawKQoipWOme_14auth_framework12auth_modular3mfa7sms_kitNtB5_13SmsKitManager14get_user_phone
FN:117,_RNvMs0_NtNtNtCsawKQoipWOme_14auth_framework12auth_modular3mfa7sms_kitNtB5_13SmsKitManager15new_with_config
FN:388,_RNvMs0_NtNtNtCsawKQoipWOme_14auth_framework12auth_modular3mfa7sms_kitNtB5_13SmsKitManager16has_phone_number
FN:178,_RNvMs0_NtNtNtCsawKQoipWOme_14auth_framework12auth_modular3mfa7sms_kitNtB5_13SmsKitManager17check_rate_limits
FN:163,_RNvMs0_NtNtNtCsawKQoipWOme_14auth_framework12auth_modular3mfa7sms_kitNtB5_13SmsKitManager18initiate_challenge
FN:337,_RNvMs0_NtNtNtCsawKQoipWOme_14auth_framework12auth_modular3mfa7sms_kitNtB5_13SmsKitManager18update_rate_limits
FN:123,_RNvMs0_NtNtNtCsawKQoipWOme_14auth_framework12auth_modular3mfa7sms_kitNtB5_13SmsKitManager21register_phone_number
FN:309,_RNvMs0_NtNtNtCsawKQoipWOme_14auth_framework12auth_modular3mfa7sms_kitNtB5_13SmsKitManager22send_sms_with_fallback
FN:398,_RNvMs0_NtNtNtCsawKQoipWOme_14auth_framework12auth_modular3mfa7sms_kitNtB5_13SmsKitManager22send_verification_code
FN:275,_RNvMs0_NtNtNtCsawKQoipWOme_14auth_framework12auth_modular3mfa7sms_kitNtB5_13SmsKitManager9send_code
FN:109,_RNvMs0_NtNtNtCsawKQoipWOme_14auth_framework12auth_modular3mfa7sms_kitNtB5_13SmsKitManager3new
FN:30,_RNvXNtNtNtCsawKQoipWOme_14auth_framework12auth_modular3mfa7sms_kitNtB2_12SmsKitConfigNtNtCsf36jwlS2r7m_4core7default7Default7default
FN:92,_RNvXs_NtNtNtCsawKQoipWOme_14auth_framework12auth_modular3mfa7sms_kitNtB4_15RateLimitConfigNtNtCsf36jwlS2r7m_4core7default7Default7default
FN:241,_RNvMs0_NtNtNtCscyNIIr1ochp_14auth_framework12auth_modular3mfa7sms_kitNtB5_13SmsKitManager11verify_code
FN:224,_RNvMs0_NtNtNtCscyNIIr1ochp_14auth_framework12auth_modular3mfa7sms_kitNtB5_13SmsKitManager13generate_code
FN:213,_RNvMs0_NtNtNtCscyNIIr1ochp_14auth_framework12auth_modular3mfa7sms_kitNtB5_13SmsKitManager13get_sms_count
FN:375,_RNvMs0_NtNtNtCscyNIIr1ochp_14auth_framework12auth_modular3mfa7sms_kitNtB5_13SmsKitManager14get_user_phone
FN:117,_RNvMs0_NtNtNtCscyNIIr1ochp_14auth_framework12auth_modular3mfa7sms_kitNtB5_13SmsKitManager15new_with_config
FN:388,_RNvMs0_NtNtNtCscyNIIr1ochp_14auth_framework12auth_modular3mfa7sms_kitNtB5_13SmsKitManager16has_phone_number
FN:178,_RNvMs0_NtNtNtCscyNIIr1ochp_14auth_framework12auth_modular3mfa7sms_kitNtB5_13SmsKitManager17check_rate_limits
FN:163,_RNvMs0_NtNtNtCscyNIIr1ochp_14auth_framework12auth_modular3mfa7sms_kitNtB5_13SmsKitManager18initiate_challenge
FN:337,_RNvMs0_NtNtNtCscyNIIr1ochp_14auth_framework12auth_modular3mfa7sms_kitNtB5_13SmsKitManager18update_rate_limits
FN:123,_RNvMs0_NtNtNtCscyNIIr1ochp_14auth_framework12auth_modular3mfa7sms_kitNtB5_13SmsKitManager21register_phone_number
FN:309,_RNvMs0_NtNtNtCscyNIIr1ochp_14auth_framework12auth_modular3mfa7sms_kitNtB5_13SmsKitManager22send_sms_with_fallback
FN:398,_RNvMs0_NtNtNtCscyNIIr1ochp_14auth_framework12auth_modular3mfa7sms_kitNtB5_13SmsKitManager22send_verification_code
FN:109,_RNvMs0_NtNtNtCscyNIIr1ochp_14auth_framework12auth_modular3mfa7sms_kitNtB5_13SmsKitManager3new
FN:275,_RNvMs0_NtNtNtCscyNIIr1ochp_14auth_framework12auth_modular3mfa7sms_kitNtB5_13SmsKitManager9send_code
FN:30,_RNvXNtNtNtCscyNIIr1ochp_14auth_framework12auth_modular3mfa7sms_kitNtB2_12SmsKitConfigNtNtCsf36jwlS2r7m_4core7default7Default7default
FN:92,_RNvXs_NtNtNtCscyNIIr1ochp_14auth_framework12auth_modular3mfa7sms_kitNtB4_15RateLimitConfigNtNtCsf36jwlS2r7m_4core7default7Default7default
FN:255,_RNCNCNvMs0_NtNtNtCscyNIIr1ochp_14auth_framework12auth_modular3mfa7sms_kitNtB9_13SmsKitManager11verify_code00Bf_
FN:379,_RNCNCNvMs0_NtNtNtCscyNIIr1ochp_14auth_framework12auth_modular3mfa7sms_kitNtB9_13SmsKitManager14get_user_phone00Bf_
FN:137,_RNCNCNvMs0_NtNtNtCscyNIIr1ochp_14auth_framework12auth_modular3mfa7sms_kitNtB9_13SmsKitManager21register_phone_number00Bf_
FN:281,_RNCNCNvMs0_NtNtNtCscyNIIr1ochp_14auth_framework12auth_modular3mfa7sms_kitNtB9_13SmsKitManager9send_code00Bf_
FN:241,_RNCNvMs0_NtNtNtCscyNIIr1ochp_14auth_framework12auth_modular3mfa7sms_kitNtB7_13SmsKitManager11verify_code0Bd_
FN:224,_RNCNvMs0_NtNtNtCscyNIIr1ochp_14auth_framework12auth_modular3mfa7sms_kitNtB7_13SmsKitManager13generate_code0Bd_
FN:213,_RNCNvMs0_NtNtNtCscyNIIr1ochp_14auth_framework12auth_modular3mfa7sms_kitNtB7_13SmsKitManager13get_sms_count0Bd_
FN:375,_RNCNvMs0_NtNtNtCscyNIIr1ochp_14auth_framework12auth_modular3mfa7sms_kitNtB7_13SmsKitManager14get_user_phone0Bd_
FN:388,_RNCNvMs0_NtNtNtCscyNIIr1ochp_14auth_framework12auth_modular3mfa7sms_kitNtB7_13SmsKitManager16has_phone_number0Bd_
FN:178,_RNCNvMs0_NtNtNtCscyNIIr1ochp_14auth_framework12auth_modular3mfa7sms_kitNtB7_13SmsKitManager17check_rate_limits0Bd_
FN:163,_RNCNvMs0_NtNtNtCscyNIIr1ochp_14auth_framework12auth_modular3mfa7sms_kitNtB7_13SmsKitManager18initiate_challenge0Bd_
FN:337,_RNCNvMs0_NtNtNtCscyNIIr1ochp_14auth_framework12auth_modular3mfa7sms_kitNtB7_13SmsKitManager18update_rate_limits0Bd_
FN:123,_RNCNvMs0_NtNtNtCscyNIIr1ochp_14auth_framework12auth_modular3mfa7sms_kitNtB7_13SmsKitManager21register_phone_number0Bd_
FN:309,_RNCNvMs0_NtNtNtCscyNIIr1ochp_14auth_framework12auth_modular3mfa7sms_kitNtB7_13SmsKitManager22send_sms_with_fallback0Bd_
FN:398,_RNCNvMs0_NtNtNtCscyNIIr1ochp_14auth_framework12auth_modular3mfa7sms_kitNtB7_13SmsKitManager22send_verification_code0Bd_
FN:275,_RNCNvMs0_NtNtNtCscyNIIr1ochp_14auth_framework12auth_modular3mfa7sms_kitNtB7_13SmsKitManager9send_code0Bd_
FNDA:0,_RNCNCNvMs0_NtNtNtCsawKQoipWOme_14auth_framework12auth_modular3mfa7sms_kitNtB9_13SmsKitManager11verify_code00Bf_
FNDA:0,_RNCNCNvMs0_NtNtNtCsawKQoipWOme_14auth_framework12auth_modular3mfa7sms_kitNtB9_13SmsKitManager14get_user_phone00Bf_
FNDA:0,_RNCNCNvMs0_NtNtNtCsawKQoipWOme_14auth_framework12auth_modular3mfa7sms_kitNtB9_13SmsKitManager21register_phone_number00Bf_
FNDA:0,_RNCNCNvMs0_NtNtNtCsawKQoipWOme_14auth_framework12auth_modular3mfa7sms_kitNtB9_13SmsKitManager9send_code00Bf_
FNDA:0,_RNCNvMs0_NtNtNtCsawKQoipWOme_14auth_framework12auth_modular3mfa7sms_kitNtB7_13SmsKitManager11verify_code0Bd_
FNDA:0,_RNCNvMs0_NtNtNtCsawKQoipWOme_14auth_framework12auth_modular3mfa7sms_kitNtB7_13SmsKitManager13generate_code0Bd_
FNDA:0,_RNCNvMs0_NtNtNtCsawKQoipWOme_14auth_framework12auth_modular3mfa7sms_kitNtB7_13SmsKitManager13get_sms_count0Bd_
FNDA:0,_RNCNvMs0_NtNtNtCsawKQoipWOme_14auth_framework12auth_modular3mfa7sms_kitNtB7_13SmsKitManager14get_user_phone0Bd_
FNDA:0,_RNCNvMs0_NtNtNtCsawKQoipWOme_14auth_framework12auth_modular3mfa7sms_kitNtB7_13SmsKitManager16has_phone_number0Bd_
FNDA:0,_RNCNvMs0_NtNtNtCsawKQoipWOme_14auth_framework12auth_modular3mfa7sms_kitNtB7_13SmsKitManager17check_rate_limits0Bd_
FNDA:0,_RNCNvMs0_NtNtNtCsawKQoipWOme_14auth_framework12auth_modular3mfa7sms_kitNtB7_13SmsKitManager18initiate_challenge0Bd_
FNDA:0,_RNCNvMs0_NtNtNtCsawKQoipWOme_14auth_framework12auth_modular3mfa7sms_kitNtB7_13SmsKitManager18update_rate_limits0Bd_
FNDA:0,_RNCNvMs0_NtNtNtCsawKQoipWOme_14auth_framework12auth_modular3mfa7sms_kitNtB7_13SmsKitManager21register_phone_number0Bd_
FNDA:0,_RNCNvMs0_NtNtNtCsawKQoipWOme_14auth_framework12auth_modular3mfa7sms_kitNtB7_13SmsKitManager22send_sms_with_fallback0Bd_
FNDA:0,_RNCNvMs0_NtNtNtCsawKQoipWOme_14auth_framework12auth_modular3mfa7sms_kitNtB7_13SmsKitManager22send_verification_code0Bd_
FNDA:0,_RNCNvMs0_NtNtNtCsawKQoipWOme_14auth_framework12auth_modular3mfa7sms_kitNtB7_13SmsKitManager9send_code0Bd_
FNDA:0,_RNvMs0_NtNtNtCsawKQoipWOme_14auth_framework12auth_modular3mfa7sms_kitNtB5_13SmsKitManager11verify_code
FNDA:0,_RNvMs0_NtNtNtCsawKQoipWOme_14auth_framework12auth_modular3mfa7sms_kitNtB5_13SmsKitManager13generate_code
FNDA:0,_RNvMs0_NtNtNtCsawKQoipWOme_14auth_framework12auth_modular3mfa7sms_kitNtB5_13SmsKitManager13get_sms_count
FNDA:0,_RNvMs0_NtNtNtCsawKQoipWOme_14auth_framework12auth_modular3mfa7sms_kitNtB5_13SmsKitManager14get_user_phone
FNDA:0,_RNvMs0_NtNtNtCsawKQoipWOme_14auth_framework12auth_modular3mfa7sms_kitNtB5_13SmsKitManager15new_with_config
FNDA:0,_RNvMs0_NtNtNtCsawKQoipWOme_14auth_framework12auth_modular3mfa7sms_kitNtB5_13SmsKitManager16has_phone_number
FNDA:0,_RNvMs0_NtNtNtCsawKQoipWOme_14auth_framework12auth_modular3mfa7sms_kitNtB5_13SmsKitManager17check_rate_limits
FNDA:0,_RNvMs0_NtNtNtCsawKQoipWOme_14auth_framework12auth_modular3mfa7sms_kitNtB5_13SmsKitManager18initiate_challenge
FNDA:0,_RNvMs0_NtNtNtCsawKQoipWOme_14auth_framework12auth_modular3mfa7sms_kitNtB5_13SmsKitManager18update_rate_limits
FNDA:0,_RNvMs0_NtNtNtCsawKQoipWOme_14auth_framework12auth_modular3mfa7sms_kitNtB5_13SmsKitManager21register_phone_number
FNDA:0,_RNvMs0_NtNtNtCsawKQoipWOme_14auth_framework12auth_modular3mfa7sms_kitNtB5_13SmsKitManager22send_sms_with_fallback
FNDA:0,_RNvMs0_NtNtNtCsawKQoipWOme_14auth_framework12auth_modular3mfa7sms_kitNtB5_13SmsKitManager22send_verification_code
FNDA:0,_RNvMs0_NtNtNtCsawKQoipWOme_14auth_framework12auth_modular3mfa7sms_kitNtB5_13SmsKitManager9send_code
FNDA:2,_RNvMs0_NtNtNtCsawKQoipWOme_14auth_framework12auth_modular3mfa7sms_kitNtB5_13SmsKitManager3new
FNDA:2,_RNvXNtNtNtCsawKQoipWOme_14auth_framework12auth_modular3mfa7sms_kitNtB2_12SmsKitConfigNtNtCsf36jwlS2r7m_4core7default7Default7default
FNDA:2,_RNvXs_NtNtNtCsawKQoipWOme_14auth_framework12auth_modular3mfa7sms_kitNtB4_15RateLimitConfigNtNtCsf36jwlS2r7m_4core7default7Default7default
FNDA:0,_RNvMs0_NtNtNtCscyNIIr1ochp_14auth_framework12auth_modular3mfa7sms_kitNtB5_13SmsKitManager11verify_code
FNDA:0,_RNvMs0_NtNtNtCscyNIIr1ochp_14auth_framework12auth_modular3mfa7sms_kitNtB5_13SmsKitManager13generate_code
FNDA:0,_RNvMs0_NtNtNtCscyNIIr1ochp_14auth_framework12auth_modular3mfa7sms_kitNtB5_13SmsKitManager13get_sms_count
FNDA:0,_RNvMs0_NtNtNtCscyNIIr1ochp_14auth_framework12auth_modular3mfa7sms_kitNtB5_13SmsKitManager14get_user_phone
FNDA:0,_RNvMs0_NtNtNtCscyNIIr1ochp_14auth_framework12auth_modular3mfa7sms_kitNtB5_13SmsKitManager15new_with_config
FNDA:0,_RNvMs0_NtNtNtCscyNIIr1ochp_14auth_framework12auth_modular3mfa7sms_kitNtB5_13SmsKitManager16has_phone_number
FNDA:0,_RNvMs0_NtNtNtCscyNIIr1ochp_14auth_framework12auth_modular3mfa7sms_kitNtB5_13SmsKitManager17check_rate_limits
FNDA:0,_RNvMs0_NtNtNtCscyNIIr1ochp_14auth_framework12auth_modular3mfa7sms_kitNtB5_13SmsKitManager18initiate_challenge
FNDA:0,_RNvMs0_NtNtNtCscyNIIr1ochp_14auth_framework12auth_modular3mfa7sms_kitNtB5_13SmsKitManager18update_rate_limits
FNDA:0,_RNvMs0_NtNtNtCscyNIIr1ochp_14auth_framework12auth_modular3mfa7sms_kitNtB5_13SmsKitManager21register_phone_number
FNDA:0,_RNvMs0_NtNtNtCscyNIIr1ochp_14auth_framework12auth_modular3mfa7sms_kitNtB5_13SmsKitManager22send_sms_with_fallback
FNDA:0,_RNvMs0_NtNtNtCscyNIIr1ochp_14auth_framework12auth_modular3mfa7sms_kitNtB5_13SmsKitManager22send_verification_code
FNDA:0,_RNvMs0_NtNtNtCscyNIIr1ochp_14auth_framework12auth_modular3mfa7sms_kitNtB5_13SmsKitManager3new
FNDA:0,_RNvMs0_NtNtNtCscyNIIr1ochp_14auth_framework12auth_modular3mfa7sms_kitNtB5_13SmsKitManager9send_code
FNDA:0,_RNvXNtNtNtCscyNIIr1ochp_14auth_framework12auth_modular3mfa7sms_kitNtB2_12SmsKitConfigNtNtCsf36jwlS2r7m_4core7default7Default7default
FNDA:0,_RNvXs_NtNtNtCscyNIIr1ochp_14auth_framework12auth_modular3mfa7sms_kitNtB4_15RateLimitConfigNtNtCsf36jwlS2r7m_4core7default7Default7default
FNDA:0,_RNCNCNvMs0_NtNtNtCscyNIIr1ochp_14auth_framework12auth_modular3mfa7sms_kitNtB9_13SmsKitManager11verify_code00Bf_
FNDA:0,_RNCNCNvMs0_NtNtNtCscyNIIr1ochp_14auth_framework12auth_modular3mfa7sms_kitNtB9_13SmsKitManager14get_user_phone00Bf_
FNDA:0,_RNCNCNvMs0_NtNtNtCscyNIIr1ochp_14auth_framework12auth_modular3mfa7sms_kitNtB9_13SmsKitManager21register_phone_number00Bf_
FNDA:0,_RNCNCNvMs0_NtNtNtCscyNIIr1ochp_14auth_framework12auth_modular3mfa7sms_kitNtB9_13SmsKitManager9send_code00Bf_
FNDA:0,_RNCNvMs0_NtNtNtCscyNIIr1ochp_14auth_framework12auth_modular3mfa7sms_kitNtB7_13SmsKitManager11verify_code0Bd_
FNDA:0,_RNCNvMs0_NtNtNtCscyNIIr1ochp_14auth_framework12auth_modular3mfa7sms_kitNtB7_13SmsKitManager13generate_code0Bd_
FNDA:0,_RNCNvMs0_NtNtNtCscyNIIr1ochp_14auth_framework12auth_modular3mfa7sms_kitNtB7_13SmsKitManager13get_sms_count0Bd_
FNDA:0,_RNCNvMs0_NtNtNtCscyNIIr1ochp_14auth_framework12auth_modular3mfa7sms_kitNtB7_13SmsKitManager14get_user_phone0Bd_
FNDA:0,_RNCNvMs0_NtNtNtCscyNIIr1ochp_14auth_framework12auth_modular3mfa7sms_kitNtB7_13SmsKitManager16has_phone_number0Bd_
FNDA:0,_RNCNvMs0_NtNtNtCscyNIIr1ochp_14auth_framework12auth_modular3mfa7sms_kitNtB7_13SmsKitManager17check_rate_limits0Bd_
FNDA:0,_RNCNvMs0_NtNtNtCscyNIIr1ochp_14auth_framework12auth_modular3mfa7sms_kitNtB7_13SmsKitManager18initiate_challenge0Bd_
FNDA:0,_RNCNvMs0_NtNtNtCscyNIIr1ochp_14auth_framework12auth_modular3mfa7sms_kitNtB7_13SmsKitManager18update_rate_limits0Bd_
FNDA:0,_RNCNvMs0_NtNtNtCscyNIIr1ochp_14auth_framework12auth_modular3mfa7sms_kitNtB7_13SmsKitManager21register_phone_number0Bd_
FNDA:0,_RNCNvMs0_NtNtNtCscyNIIr1ochp_14auth_framework12auth_modular3mfa7sms_kitNtB7_13SmsKitManager22send_sms_with_fallback0Bd_
FNDA:0,_RNCNvMs0_NtNtNtCscyNIIr1ochp_14auth_framework12auth_modular3mfa7sms_kitNtB7_13SmsKitManager22send_verification_code0Bd_
FNDA:0,_RNCNvMs0_NtNtNtCscyNIIr1ochp_14auth_framework12auth_modular3mfa7sms_kitNtB7_13SmsKitManager9send_code0Bd_
FNF:32
FNH:3
DA:30,2
DA:31,2
DA:32,2
DA:33,2
DA:34,2
DA:35,2
DA:36,2
DA:37,2
DA:38,2
DA:39,2
DA:92,2
DA:93,2
DA:94,2
DA:95,2
DA:96,2
DA:97,2
DA:98,2
DA:109,2
DA:110,2
DA:111,2
DA:112,2
DA:113,2
DA:114,2
DA:117,0
DA:118,0
DA:119,0
DA:120,0
DA:123,0
DA:124,0
DA:126,0
DA:127,0
DA:128,0
DA:130,0
DA:131,0
DA:132,0
DA:133,0
DA:134,0
DA:136,0
DA:137,0
DA:138,0
DA:139,0
DA:140,0
DA:141,0
DA:143,0
DA:144,0
DA:145,0
DA:146,0
DA:147,0
DA:149,0
DA:150,0
DA:151,0
DA:152,0
DA:154,0
DA:155,0
DA:159,0
DA:160,0
DA:163,0
DA:164,0
DA:166,0
DA:167,0
DA:168,0
DA:170,0
DA:172,0
DA:174,0
DA:175,0
DA:176,0
DA:178,0
DA:179,0
DA:180,0
DA:181,0
DA:183,0
DA:184,0
DA:185,0
DA:186,0
DA:187,0
DA:189,0
DA:190,0
DA:191,0
DA:192,0
DA:193,0
DA:195,0
DA:196,0
DA:197,0
DA:198,0
DA:200,0
DA:201,0
DA:202,0
DA:203,0
DA:204,0
DA:205,0
DA:206,0
DA:207,0
DA:208,0
DA:210,0
DA:211,0
DA:213,0
DA:214,0
DA:215,0
DA:216,0
DA:218,0
DA:219,0
DA:220,0
DA:221,0
DA:224,0
DA:225,0
DA:226,0
DA:230,0
DA:232,0
DA:233,0
DA:234,0
DA:235,0
DA:237,0
DA:238,0
DA:241,0
DA:242,0
DA:243,0
DA:247,0
DA:248,0
DA:249,0
DA:251,0
DA:252,0
DA:253,0
DA:255,0
DA:256,0
DA:257,0
DA:259,0
DA:260,0
DA:261,0
DA:262,0
DA:264,0
DA:265,0
DA:266,0
DA:268,0
DA:270,0
DA:272,0
DA:275,0
DA:276,0
DA:278,0
DA:279,0
DA:280,0
DA:281,0
DA:283,0
DA:286,0
DA:288,0
DA:289,0
DA:293,0
DA:294,0
DA:295,0
DA:296,0
DA:299,0
DA:300,0
DA:302,0
DA:303,0
DA:304,0
DA:307,0
DA:309,0
DA:310,0
DA:312,0
DA:315,0
DA:318,0
DA:321,0
DA:322,0
DA:325,0
DA:329,0
DA:330,0
DA:331,0
DA:333,0
DA:334,0
DA:335,0
DA:337,0
DA:338,0
DA:340,0
DA:341,0
DA:342,0
DA:343,0
DA:344,0
DA:345,0
DA:346,0
DA:347,0
DA:348,0
DA:350,0
DA:351,0
DA:352,0
DA:353,0
DA:354,0
DA:355,0
DA:356,0
DA:357,0
DA:358,0
DA:360,0
DA:361,0
DA:362,0
DA:363,0
DA:364,0
DA:365,0
DA:366,0
DA:367,0
DA:368,0
DA:369,0
DA:371,0
DA:372,0
DA:375,0
DA:376,0
DA:378,0
DA:379,0
DA:380,0
DA:381,0
DA:383,0
DA:385,0
DA:388,0
DA:389,0
DA:390,0
DA:391,0
DA:392,0
DA:393,0
DA:395,0
DA:398,0
DA:400,0
DA:403,0
DA:406,0
DA:407,0
DA:408,0
DA:409,0
DA:410,0
DA:411,0
DA:412,0
DA:413,0
DA:415,0
DA:416,0
BRF:0
BRH:0
LF:246
LH:23
end_of_record
SF:C:\Users\cires\OneDrive\Documents\projects\AuthFramework\src\auth_modular\mfa\totp.rs
FN:103,_RNCNCNvMNtNtNtCsawKQoipWOme_14auth_framework12auth_modular3mfa4totpNtB6_11TotpManager11verify_code00Bc_
FN:148,_RNCNCNvMNtNtNtCsawKQoipWOme_14auth_framework12auth_modular3mfa4totpNtB6_11TotpManager15get_user_secret00Bc_
FN:62,_RNCNCNvMNtNtNtCsawKQoipWOme_14auth_framework12auth_modular3mfa4totpNtB6_11TotpManager24generate_code_for_window00Bc_
FN:75,_RNCNCNvMNtNtNtCsawKQoipWOme_14auth_framework12auth_modular3mfa4totpNtB6_11TotpManager24generate_code_for_window0s_0Bc_
FN:100,_RNCNvMNtNtNtCsawKQoipWOme_14auth_framework12auth_modular3mfa4totpNtB4_11TotpManager11verify_code0Ba_
FN:48,_RNCNvMNtNtNtCsawKQoipWOme_14auth_framework12auth_modular3mfa4totpNtB4_11TotpManager13generate_code0Ba_
FN:20,_RNCNvMNtNtNtCsawKQoipWOme_14auth_framework12auth_modular3mfa4totpNtB4_11TotpManager15generate_secret0Ba_
FN:143,_RNCNvMNtNtNtCsawKQoipWOme_14auth_framework12auth_modular3mfa4totpNtB4_11TotpManager15get_user_secret0Ba_
FN:170,_RNCNvMNtNtNtCsawKQoipWOme_14auth_framework12auth_modular3mfa4totpNtB4_11TotpManager15has_totp_secret0Ba_
FN:39,_RNCNvMNtNtNtCsawKQoipWOme_14auth_framework12auth_modular3mfa4totpNtB4_11TotpManager16generate_qr_code0Ba_
FN:57,_RNCNvMNtNtNtCsawKQoipWOme_14auth_framework12auth_modular3mfa4totpNtB4_11TotpManager24generate_code_for_window0Ba_
FN:100,_RNvMNtNtNtCsawKQoipWOme_14auth_framework12auth_modular3mfa4totpNtB2_11TotpManager11verify_code
FN:48,_RNvMNtNtNtCsawKQoipWOme_14auth_framework12auth_modular3mfa4totpNtB2_11TotpManager13generate_code
FN:20,_RNvMNtNtNtCsawKQoipWOme_14auth_framework12auth_modular3mfa4totpNtB2_11TotpManager15generate_secret
FN:143,_RNvMNtNtNtCsawKQoipWOme_14auth_framework12auth_modular3mfa4totpNtB2_11TotpManager15get_user_secret
FN:170,_RNvMNtNtNtCsawKQoipWOme_14auth_framework12auth_modular3mfa4totpNtB2_11TotpManager15has_totp_secret
FN:34,_RNvMNtNtNtCsawKQoipWOme_14auth_framework12auth_modular3mfa4totpNtB2_11TotpManager16generate_qr_code
FN:53,_RNvMNtNtNtCsawKQoipWOme_14auth_framework12auth_modular3mfa4totpNtB2_11TotpManager24generate_code_for_window
FN:15,_RNvMNtNtNtCsawKQoipWOme_14auth_framework12auth_modular3mfa4totpNtB2_11TotpManager3new
FN:103,_RNCNCNvMNtNtNtCscyNIIr1ochp_14auth_framework12auth_modular3mfa4totpNtB6_11TotpManager11verify_code00Bc_
FN:148,_RNCNCNvMNtNtNtCscyNIIr1ochp_14auth_framework12auth_modular3mfa4totpNtB6_11TotpManager15get_user_secret00Bc_
FN:62,_RNCNCNvMNtNtNtCscyNIIr1ochp_14auth_framework12auth_modular3mfa4totpNtB6_11TotpManager24generate_code_for_window00Bc_
FN:75,_RNCNCNvMNtNtNtCscyNIIr1ochp_14auth_framework12auth_modular3mfa4totpNtB6_11TotpManager24generate_code_for_window0s_0Bc_
FN:100,_RNCNvMNtNtNtCscyNIIr1ochp_14auth_framework12auth_modular3mfa4totpNtB4_11TotpManager11verify_code0Ba_
FN:48,_RNCNvMNtNtNtCscyNIIr1ochp_14auth_framework12auth_modular3mfa4totpNtB4_11TotpManager13generate_code0Ba_
FN:20,_RNCNvMNtNtNtCscyNIIr1ochp_14auth_framework12auth_modular3mfa4totpNtB4_11TotpManager15generate_secret0Ba_
FN:143,_RNCNvMNtNtNtCscyNIIr1ochp_14auth_framework12auth_modular3mfa4totpNtB4_11TotpManager15get_user_secret0Ba_
FN:170,_RNCNvMNtNtNtCscyNIIr1ochp_14auth_framework12auth_modular3mfa4totpNtB4_11TotpManager15has_totp_secret0Ba_
FN:39,_RNCNvMNtNtNtCscyNIIr1ochp_14auth_framework12auth_modular3mfa4totpNtB4_11TotpManager16generate_qr_code0Ba_
FN:57,_RNCNvMNtNtNtCscyNIIr1ochp_14auth_framework12auth_modular3mfa4totpNtB4_11TotpManager24generate_code_for_window0Ba_
FN:100,_RNvMNtNtNtCscyNIIr1ochp_14auth_framework12auth_modular3mfa4totpNtB2_11TotpManager11verify_code
FN:48,_RNvMNtNtNtCscyNIIr1ochp_14auth_framework12auth_modular3mfa4totpNtB2_11TotpManager13generate_code
FN:20,_RNvMNtNtNtCscyNIIr1ochp_14auth_framework12auth_modular3mfa4totpNtB2_11TotpManager15generate_secret
FN:143,_RNvMNtNtNtCscyNIIr1ochp_14auth_framework12auth_modular3mfa4totpNtB2_11TotpManager15get_user_secret
FN:170,_RNvMNtNtNtCscyNIIr1ochp_14auth_framework12auth_modular3mfa4totpNtB2_11TotpManager15has_totp_secret
FN:34,_RNvMNtNtNtCscyNIIr1ochp_14auth_framework12auth_modular3mfa4totpNtB2_11TotpManager16generate_qr_code
FN:53,_RNvMNtNtNtCscyNIIr1ochp_14auth_framework12auth_modular3mfa4totpNtB2_11TotpManager24generate_code_for_window
FN:15,_RNvMNtNtNtCscyNIIr1ochp_14auth_framework12auth_modular3mfa4totpNtB2_11TotpManager3new
FNDA:0,_RNCNCNvMNtNtNtCsawKQoipWOme_14auth_framework12auth_modular3mfa4totpNtB6_11TotpManager11verify_code00Bc_
FNDA:0,_RNCNCNvMNtNtNtCsawKQoipWOme_14auth_framework12auth_modular3mfa4totpNtB6_11TotpManager15get_user_secret00Bc_
FNDA:0,_RNCNCNvMNtNtNtCsawKQoipWOme_14auth_framework12auth_modular3mfa4totpNtB6_11TotpManager24generate_code_for_window00Bc_
FNDA:0,_RNCNCNvMNtNtNtCsawKQoipWOme_14auth_framework12auth_modular3mfa4totpNtB6_11TotpManager24generate_code_for_window0s_0Bc_
FNDA:0,_RNCNvMNtNtNtCsawKQoipWOme_14auth_framework12auth_modular3mfa4totpNtB4_11TotpManager11verify_code0Ba_
FNDA:0,_RNCNvMNtNtNtCsawKQoipWOme_14auth_framework12auth_modular3mfa4totpNtB4_11TotpManager13generate_code0Ba_
FNDA:0,_RNCNvMNtNtNtCsawKQoipWOme_14auth_framework12auth_modular3mfa4totpNtB4_11TotpManager15generate_secret0Ba_
FNDA:0,_RNCNvMNtNtNtCsawKQoipWOme_14auth_framework12auth_modular3mfa4totpNtB4_11TotpManager15get_user_secret0Ba_
FNDA:0,_RNCNvMNtNtNtCsawKQoipWOme_14auth_framework12auth_modular3mfa4totpNtB4_11TotpManager15has_totp_secret0Ba_
FNDA:0,_RNCNvMNtNtNtCsawKQoipWOme_14auth_framework12auth_modular3mfa4totpNtB4_11TotpManager16generate_qr_code0Ba_
FNDA:0,_RNCNvMNtNtNtCsawKQoipWOme_14auth_framework12auth_modular3mfa4totpNtB4_11TotpManager24generate_code_for_window0Ba_
FNDA:0,_RNvMNtNtNtCsawKQoipWOme_14auth_framework12auth_modular3mfa4totpNtB2_11TotpManager11verify_code
FNDA:0,_RNvMNtNtNtCsawKQoipWOme_14auth_framework12auth_modular3mfa4totpNtB2_11TotpManager13generate_code
FNDA:0,_RNvMNtNtNtCsawKQoipWOme_14auth_framework12auth_modular3mfa4totpNtB2_11TotpManager15generate_secret
FNDA:0,_RNvMNtNtNtCsawKQoipWOme_14auth_framework12auth_modular3mfa4totpNtB2_11TotpManager15get_user_secret
FNDA:0,_RNvMNtNtNtCsawKQoipWOme_14auth_framework12auth_modular3mfa4totpNtB2_11TotpManager15has_totp_secret
FNDA:0,_RNvMNtNtNtCsawKQoipWOme_14auth_framework12auth_modular3mfa4totpNtB2_11TotpManager16generate_qr_code
FNDA:0,_RNvMNtNtNtCsawKQoipWOme_14auth_framework12auth_modular3mfa4totpNtB2_11TotpManager24generate_code_for_window
FNDA:2,_RNvMNtNtNtCsawKQoipWOme_14auth_framework12auth_modular3mfa4totpNtB2_11TotpManager3new
FNDA:0,_RNCNCNvMNtNtNtCscyNIIr1ochp_14auth_framework12auth_modular3mfa4totpNtB6_11TotpManager11verify_code00Bc_
FNDA:0,_RNCNCNvMNtNtNtCscyNIIr1ochp_14auth_framework12auth_modular3mfa4totpNtB6_11TotpManager15get_user_secret00Bc_
FNDA:0,_RNCNCNvMNtNtNtCscyNIIr1ochp_14auth_framework12auth_modular3mfa4totpNtB6_11TotpManager24generate_code_for_window00Bc_
FNDA:0,_RNCNCNvMNtNtNtCscyNIIr1ochp_14auth_framework12auth_modular3mfa4totpNtB6_11TotpManager24generate_code_for_window0s_0Bc_
FNDA:0,_RNCNvMNtNtNtCscyNIIr1ochp_14auth_framework12auth_modular3mfa4totpNtB4_11TotpManager11verify_code0Ba_
FNDA:0,_RNCNvMNtNtNtCscyNIIr1ochp_14auth_framework12auth_modular3mfa4totpNtB4_11TotpManager13generate_code0Ba_
FNDA:0,_RNCNvMNtNtNtCscyNIIr1ochp_14auth_framework12auth_modular3mfa4totpNtB4_11TotpManager15generate_secret0Ba_
FNDA:0,_RNCNvMNtNtNtCscyNIIr1ochp_14auth_framework12auth_modular3mfa4totpNtB4_11TotpManager15get_user_secret0Ba_
FNDA:0,_RNCNvMNtNtNtCscyNIIr1ochp_14auth_framework12auth_modular3mfa4totpNtB4_11TotpManager15has_totp_secret0Ba_
FNDA:0,_RNCNvMNtNtNtCscyNIIr1ochp_14auth_framework12auth_modular3mfa4totpNtB4_11TotpManager16generate_qr_code0Ba_
FNDA:0,_RNCNvMNtNtNtCscyNIIr1ochp_14auth_framework12auth_modular3mfa4totpNtB4_11TotpManager24generate_code_for_window0Ba_
FNDA:0,_RNvMNtNtNtCscyNIIr1ochp_14auth_framework12auth_modular3mfa4totpNtB2_11TotpManager11verify_code
FNDA:0,_RNvMNtNtNtCscyNIIr1ochp_14auth_framework12auth_modular3mfa4totpNtB2_11TotpManager13generate_code
FNDA:0,_RNvMNtNtNtCscyNIIr1ochp_14auth_framework12auth_modular3mfa4totpNtB2_11TotpManager15generate_secret
FNDA:0,_RNvMNtNtNtCscyNIIr1ochp_14auth_framework12auth_modular3mfa4totpNtB2_11TotpManager15get_user_secret
FNDA:0,_RNvMNtNtNtCscyNIIr1ochp_14auth_framework12auth_modular3mfa4totpNtB2_11TotpManager15has_totp_secret
FNDA:0,_RNvMNtNtNtCscyNIIr1ochp_14auth_framework12auth_modular3mfa4totpNtB2_11TotpManager16generate_qr_code
FNDA:0,_RNvMNtNtNtCscyNIIr1ochp_14auth_framework12auth_modular3mfa4totpNtB2_11TotpManager24generate_code_for_window
FNDA:0,_RNvMNtNtNtCscyNIIr1ochp_14auth_framework12auth_modular3mfa4totpNtB2_11TotpManager3new
FNF:19
FNH:1
DA:15,2
DA:16,2
DA:17,2
DA:20,0
DA:21,0
DA:23,0
DA:26,0
DA:27,0
DA:29,0
DA:30,0
DA:31,0
DA:34,0
DA:35,0
DA:36,0
DA:37,0
DA:38,0
DA:39,0
DA:40,0
DA:41,0
DA:43,0
DA:44,0
DA:45,0
DA:48,0
DA:49,0
DA:50,0
DA:53,0
DA:54,0
DA:55,0
DA:56,0
DA:57,0
DA:58,0
DA:59,0
DA:60,0
DA:62,0
DA:63,0
DA:64,0
DA:65,0
DA:66,0
DA:67,0
DA:68,0
DA:74,0
DA:75,0
DA:78,0
DA:81,0
DA:84,0
DA:85,0
DA:88,0
DA:89,0
DA:90,0
DA:91,0
DA:92,0
DA:95,0
DA:96,0
DA:97,0
DA:100,0
DA:101,0
DA:103,0
DA:104,0
DA:105,0
DA:108,0
DA:109,0
DA:111,0
DA:112,0
DA:117,0
DA:118,0
DA:119,0
DA:120,0
DA:123,0
DA:124,0
DA:127,0
DA:128,0
DA:129,0
DA:130,0
DA:131,0
DA:133,0
DA:134,0
DA:135,0
DA:138,0
DA:139,0
DA:140,0
DA:143,0
DA:144,0
DA:146,0
DA:147,0
DA:148,0
DA:152,0
DA:153,0
DA:154,0
DA:155,0
DA:158,0
DA:159,0
DA:160,0
DA:164,0
DA:165,0
DA:167,0
DA:170,0
DA:171,0
DA:172,0
DA:173,0
DA:174,0
DA:175,0
DA:177,0
BRF:0
BRH:0
LF:113
LH:3
end_of_record
SF:C:\Users\cires\OneDrive\Documents\projects\AuthFramework\src\auth_modular\mod.rs
FN:244,_RINvMNtCsawKQoipWOme_14auth_framework12auth_modularNtB3_13AuthFramework15register_methodpEB5_
FN:346,_RNCNCNvMNtCsawKQoipWOme_14auth_framework12auth_modularNtB6_13AuthFramework21authenticate_internal00B8_
FN:285,_RNCNvMNtCsawKQoipWOme_14auth_framework12auth_modularNtB4_13AuthFramework12authenticate0B6_
FN:412,_RNCNvMNtCsawKQoipWOme_14auth_framework12auth_modularNtB4_13AuthFramework12complete_mfa0B6_
FN:510,_RNCNvMNtCsawKQoipWOme_14auth_framework12auth_modularNtB4_13AuthFramework13get_user_info0B6_
FN:560,_RNCNvMNtCsawKQoipWOme_14auth_framework12auth_modularNtB4_13AuthFramework13send_sms_code0B6_
FN:483,_RNCNvMNtCsawKQoipWOme_14auth_framework12auth_modularNtB4_13AuthFramework14validate_token0B6_
FN:618,_RNCNvMNtCsawKQoipWOme_14auth_framework12auth_modularNtB4_13AuthFramework15log_audit_event0B6_
FN:573,_RNCNvMNtCsawKQoipWOme_14auth_framework12auth_modularNtB4_13AuthFramework15verify_sms_code0B6_
FN:524,_RNCNvMNtCsawKQoipWOme_14auth_framework12auth_modularNtB4_13AuthFramework16check_permission0B6_
FN:568,_RNCNvMNtCsawKQoipWOme_14auth_framework12auth_modularNtB4_13AuthFramework17generate_sms_code0B6_
FN:327,_RNCNvMNtCsawKQoipWOme_14auth_framework12auth_modularNtB4_13AuthFramework21authenticate_internal0B6_
FN:555,_RNCNvMNtCsawKQoipWOme_14auth_framework12auth_modularNtB4_13AuthFramework22initiate_sms_challenge0B6_
FN:296,_RNCNvMNtCsawKQoipWOme_14auth_framework12auth_modularNtB4_13AuthFramework26authenticate_with_metadata0B6_
FN:599,_RNCNvMNtCsawKQoipWOme_14auth_framework12auth_modularNtB4_13AuthFramework9get_stats0B6_
FN:281,_RNvMNtCsawKQoipWOme_14auth_framework12auth_modularNtB2_13AuthFramework12authenticate
FN:412,_RNvMNtCsawKQoipWOme_14auth_framework12auth_modularNtB2_13AuthFramework12complete_mfa
FN:510,_RNvMNtCsawKQoipWOme_14auth_framework12auth_modularNtB2_13AuthFramework13get_user_info
FN:560,_RNvMNtCsawKQoipWOme_14auth_framework12auth_modularNtB2_13AuthFramework13send_sms_code
FN:535,_RNvMNtCsawKQoipWOme_14auth_framework12auth_modularNtB2_13AuthFramework13token_manager
FN:483,_RNvMNtCsawKQoipWOme_14auth_framework12auth_modularNtB2_13AuthFramework14validate_token
FN:612,_RNvMNtCsawKQoipWOme_14auth_framework12auth_modularNtB2_13AuthFramework15log_audit_event
FN:208,_RNvMNtCsawKQoipWOme_14auth_framework12auth_modularNtB2_13AuthFramework15replace_storage
FN:573,_RNvMNtCsawKQoipWOme_14auth_framework12auth_modularNtB2_13AuthFramework15verify_sms_code
FN:519,_RNvMNtCsawKQoipWOme_14auth_framework12auth_modularNtB2_13AuthFramework16check_permission
FN:219,_RNvMNtCsawKQoipWOme_14auth_framework12auth_modularNtB2_13AuthFramework16new_with_storage
FN:568,_RNvMNtCsawKQoipWOme_14auth_framework12auth_modularNtB2_13AuthFramework17generate_sms_code
FN:322,_RNvMNtCsawKQoipWOme_14auth_framework12auth_modularNtB2_13AuthFramework21authenticate_internal
FN:555,_RNvMNtCsawKQoipWOme_14auth_framework12auth_modularNtB2_13AuthFramework22initiate_sms_challenge
FN:291,_RNvMNtCsawKQoipWOme_14auth_framework12auth_modularNtB2_13AuthFramework26authenticate_with_metadata
FN:599,_RNvMNtCsawKQoipWOme_14auth_framework12auth_modularNtB2_13AuthFramework9get_stats
FN:685,_RNCNvNtNtCsawKQoipWOme_14auth_framework12auth_modular5testss_23test_mfa_manager_access0B7_
FN:666,_RNCNvNtNtCsawKQoipWOme_14auth_framework12auth_modular5testss_37test_modular_framework_initialization0B7_
FN:258,_RNvMNtCsawKQoipWOme_14auth_framework12auth_modularNtB2_13AuthFramework10initialize
FN:540,_RNvMNtCsawKQoipWOme_14auth_framework12auth_modularNtB2_13AuthFramework11mfa_manager
FN:550,_RNvMNtCsawKQoipWOme_14auth_framework12auth_modularNtB2_13AuthFramework12user_manager
FN:545,_RNvMNtCsawKQoipWOme_14auth_framework12auth_modularNtB2_13AuthFramework15session_manager
FN:578,_RNvMNtCsawKQoipWOme_14auth_framework12auth_modularNtB2_13AuthFramework20cleanup_expired_data
FN:128,_RNvMNtCsawKQoipWOme_14auth_framework12auth_modularNtB2_13AuthFramework3new
FN:685,_RNvNtNtCsawKQoipWOme_14auth_framework12auth_modular5testss_23test_mfa_manager_access
FN:666,_RNvNtNtCsawKQoipWOme_14auth_framework12auth_modular5testss_37test_modular_framework_initialization
FN:258,_RNCNvMNtCsawKQoipWOme_14auth_framework12auth_modularNtB4_13AuthFramework10initialize0B6_
FN:578,_RNCNvMNtCsawKQoipWOme_14auth_framework12auth_modularNtB4_13AuthFramework20cleanup_expired_data0B6_
FN:244,_RINvMNtCscyNIIr1ochp_14auth_framework12auth_modularNtB3_13AuthFramework15register_methodpEB5_
FN:346,_RNCNCNvMNtCscyNIIr1ochp_14auth_framework12auth_modularNtB6_13AuthFramework21authenticate_internal00B8_
FN:258,_RNCNvMNtCscyNIIr1ochp_14auth_framework12auth_modularNtB4_13AuthFramework10initialize0B6_
FN:285,_RNCNvMNtCscyNIIr1ochp_14auth_framework12auth_modularNtB4_13AuthFramework12authenticate0B6_
FN:412,_RNCNvMNtCscyNIIr1ochp_14auth_framework12auth_modularNtB4_13AuthFramework12complete_mfa0B6_
FN:510,_RNCNvMNtCscyNIIr1ochp_14auth_framework12auth_modularNtB4_13AuthFramework13get_user_info0B6_
FN:560,_RNCNvMNtCscyNIIr1ochp_14auth_framework12auth_modularNtB4_13AuthFramework13send_sms_code0B6_
FN:483,_RNCNvMNtCscyNIIr1ochp_14auth_framework12auth_modularNtB4_13AuthFramework14validate_token0B6_
FN:618,_RNCNvMNtCscyNIIr1ochp_14auth_framework12auth_modularNtB4_13AuthFramework15log_audit_event0B6_
FN:573,_RNCNvMNtCscyNIIr1ochp_14auth_framework12auth_modularNtB4_13AuthFramework15verify_sms_code0B6_
FN:524,_RNCNvMNtCscyNIIr1ochp_14auth_framework12auth_modularNtB4_13AuthFramework16check_permission0B6_
FN:568,_RNCNvMNtCscyNIIr1ochp_14auth_framework12auth_modularNtB4_13AuthFramework17generate_sms_code0B6_
FN:578,_RNCNvMNtCscyNIIr1ochp_14auth_framework12auth_modularNtB4_13AuthFramework20cleanup_expired_data0B6_
FN:327,_RNCNvMNtCscyNIIr1ochp_14auth_framework12auth_modularNtB4_13AuthFramework21authenticate_internal0B6_
FN:555,_RNCNvMNtCscyNIIr1ochp_14auth_framework12auth_modularNtB4_13AuthFramework22initiate_sms_challenge0B6_
FN:296,_RNCNvMNtCscyNIIr1ochp_14auth_framework12auth_modularNtB4_13AuthFramework26authenticate_with_metadata0B6_
FN:599,_RNCNvMNtCscyNIIr1ochp_14auth_framework12auth_modularNtB4_13AuthFramework9get_stats0B6_
FN:258,_RNvMNtCscyNIIr1ochp_14auth_framework12auth_modularNtB2_13AuthFramework10initialize
FN:540,_RNvMNtCscyNIIr1ochp_14auth_framework12auth_modularNtB2_13AuthFramework11mfa_manager
FN:281,_RNvMNtCscyNIIr1ochp_14auth_framework12auth_modularNtB2_13AuthFramework12authenticate
FN:412,_RNvMNtCscyNIIr1ochp_14auth_framework12auth_modularNtB2_13AuthFramework12complete_mfa
FN:550,_RNvMNtCscyNIIr1ochp_14auth_framework12auth_modularNtB2_13AuthFramework12user_manager
FN:510,_RNvMNtCscyNIIr1ochp_14auth_framework12auth_modularNtB2_13AuthFramework13get_user_info
FN:560,_RNvMNtCscyNIIr1ochp_14auth_framework12auth_modularNtB2_13AuthFramework13send_sms_code
FN:535,_RNvMNtCscyNIIr1ochp_14auth_framework12auth_modularNtB2_13AuthFramework13token_manager
FN:483,_RNvMNtCscyNIIr1ochp_14auth_framework12auth_modularNtB2_13AuthFramework14validate_token
FN:612,_RNvMNtCscyNIIr1ochp_14auth_framework12auth_modularNtB2_13AuthFramework15log_audit_event
FN:208,_RNvMNtCscyNIIr1ochp_14auth_framework12auth_modularNtB2_13AuthFramework15replace_storage
FN:545,_RNvMNtCscyNIIr1ochp_14auth_framework12auth_modularNtB2_13AuthFramework15session_manager
FN:573,_RNvMNtCscyNIIr1ochp_14auth_framework12auth_modularNtB2_13AuthFramework15verify_sms_code
FN:519,_RNvMNtCscyNIIr1ochp_14auth_framework12auth_modularNtB2_13AuthFramework16check_permission
FN:219,_RNvMNtCscyNIIr1ochp_14auth_framework12auth_modularNtB2_13AuthFramework16new_with_storage
FN:568,_RNvMNtCscyNIIr1ochp_14auth_framework12auth_modularNtB2_13AuthFramework17generate_sms_code
FN:578,_RNvMNtCscyNIIr1ochp_14auth_framework12auth_modularNtB2_13AuthFramework20cleanup_expired_data
FN:322,_RNvMNtCscyNIIr1ochp_14auth_framework12auth_modularNtB2_13AuthFramework21authenticate_internal
FN:555,_RNvMNtCscyNIIr1ochp_14auth_framework12auth_modularNtB2_13AuthFramework22initiate_sms_challenge
FN:291,_RNvMNtCscyNIIr1ochp_14auth_framework12auth_modularNtB2_13AuthFramework26authenticate_with_metadata
FN:128,_RNvMNtCscyNIIr1ochp_14auth_framework12auth_modularNtB2_13AuthFramework3new
FN:599,_RNvMNtCscyNIIr1ochp_14auth_framework12auth_modularNtB2_13AuthFramework9get_stats
FNDA:0,_RINvMNtCsawKQoipWOme_14auth_framework12auth_modularNtB3_13AuthFramework15register_methodpEB5_
FNDA:0,_RNCNCNvMNtCsawKQoipWOme_14auth_framework12auth_modularNtB6_13AuthFramework21authenticate_internal00B8_
FNDA:0,_RNCNvMNtCsawKQoipWOme_14auth_framework12auth_modularNtB4_13AuthFramework12authenticate0B6_
FNDA:0,_RNCNvMNtCsawKQoipWOme_14auth_framework12auth_modularNtB4_13AuthFramework12complete_mfa0B6_
FNDA:0,_RNCNvMNtCsawKQoipWOme_14auth_framework12auth_modularNtB4_13AuthFramework13get_user_info0B6_
FNDA:0,_RNCNvMNtCsawKQoipWOme_14auth_framework12auth_modularNtB4_13AuthFramework13send_sms_code0B6_
FNDA:0,_RNCNvMNtCsawKQoipWOme_14auth_framework12auth_modularNtB4_13AuthFramework14validate_token0B6_
FNDA:0,_RNCNvMNtCsawKQoipWOme_14auth_framework12auth_modularNtB4_13AuthFramework15log_audit_event0B6_
FNDA:0,_RNCNvMNtCsawKQoipWOme_14auth_framework12auth_modularNtB4_13AuthFramework15verify_sms_code0B6_
FNDA:0,_RNCNvMNtCsawKQoipWOme_14auth_framework12auth_modularNtB4_13AuthFramework16check_permission0B6_
FNDA:0,_RNCNvMNtCsawKQoipWOme_14auth_framework12auth_modularNtB4_13AuthFramework17generate_sms_code0B6_
FNDA:0,_RNCNvMNtCsawKQoipWOme_14auth_framework12auth_modularNtB4_13AuthFramework21authenticate_internal0B6_
FNDA:0,_RNCNvMNtCsawKQoipWOme_14auth_framework12auth_modularNtB4_13AuthFramework22initiate_sms_challenge0B6_
FNDA:0,_RNCNvMNtCsawKQoipWOme_14auth_framework12auth_modularNtB4_13AuthFramework26authenticate_with_metadata0B6_
FNDA:0,_RNCNvMNtCsawKQoipWOme_14auth_framework12auth_modularNtB4_13AuthFramework9get_stats0B6_
FNDA:0,_RNvMNtCsawKQoipWOme_14auth_framework12auth_modularNtB2_13AuthFramework12authenticate
FNDA:0,_RNvMNtCsawKQoipWOme_14auth_framework12auth_modularNtB2_13AuthFramework12complete_mfa
FNDA:0,_RNvMNtCsawKQoipWOme_14auth_framework12auth_modularNtB2_13AuthFramework13get_user_info
FNDA:0,_RNvMNtCsawKQoipWOme_14auth_framework12auth_modularNtB2_13AuthFramework13send_sms_code
FNDA:0,_RNvMNtCsawKQoipWOme_14auth_framework12auth_modularNtB2_13AuthFramework13token_manager
FNDA:0,_RNvMNtCsawKQoipWOme_14auth_framework12auth_modularNtB2_13AuthFramework14validate_token
FNDA:0,_RNvMNtCsawKQoipWOme_14auth_framework12auth_modularNtB2_13AuthFramework15log_audit_event
FNDA:0,_RNvMNtCsawKQoipWOme_14auth_framework12auth_modularNtB2_13AuthFramework15replace_storage
FNDA:0,_RNvMNtCsawKQoipWOme_14auth_framework12auth_modularNtB2_13AuthFramework15verify_sms_code
FNDA:0,_RNvMNtCsawKQoipWOme_14auth_framework12auth_modularNtB2_13AuthFramework16check_permission
FNDA:0,_RNvMNtCsawKQoipWOme_14auth_framework12auth_modularNtB2_13AuthFramework16new_with_storage
FNDA:0,_RNvMNtCsawKQoipWOme_14auth_framework12auth_modularNtB2_13AuthFramework17generate_sms_code
FNDA:0,_RNvMNtCsawKQoipWOme_14auth_framework12auth_modularNtB2_13AuthFramework21authenticate_internal
FNDA:0,_RNvMNtCsawKQoipWOme_14auth_framework12auth_modularNtB2_13AuthFramework22initiate_sms_challenge
FNDA:0,_RNvMNtCsawKQoipWOme_14auth_framework12auth_modularNtB2_13AuthFramework26authenticate_with_metadata
FNDA:0,_RNvMNtCsawKQoipWOme_14auth_framework12auth_modularNtB2_13AuthFramework9get_stats
FNDA:1,_RNCNvNtNtCsawKQoipWOme_14auth_framework12auth_modular5testss_23test_mfa_manager_access0B7_
FNDA:1,_RNCNvNtNtCsawKQoipWOme_14auth_framework12auth_modular5testss_37test_modular_framework_initialization0B7_
FNDA:1,_RNvMNtCsawKQoipWOme_14auth_framework12auth_modularNtB2_13AuthFramework10initialize
FNDA:1,_RNvMNtCsawKQoipWOme_14auth_framework12auth_modularNtB2_13AuthFramework11mfa_manager
FNDA:1,_RNvMNtCsawKQoipWOme_14auth_framework12auth_modularNtB2_13AuthFramework12user_manager
FNDA:1,_RNvMNtCsawKQoipWOme_14auth_framework12auth_modularNtB2_13AuthFramework15session_manager
FNDA:1,_RNvMNtCsawKQoipWOme_14auth_framework12auth_modularNtB2_13AuthFramework20cleanup_expired_data
FNDA:2,_RNvMNtCsawKQoipWOme_14auth_framework12auth_modularNtB2_13AuthFramework3new
FNDA:1,_RNvNtNtCsawKQoipWOme_14auth_framework12auth_modular5testss_23test_mfa_manager_access
FNDA:1,_RNvNtNtCsawKQoipWOme_14auth_framework12auth_modular5testss_37test_modular_framework_initialization
FNDA:1,_RNCNvMNtCsawKQoipWOme_14auth_framework12auth_modularNtB4_13AuthFramework10initialize0B6_
FNDA:1,_RNCNvMNtCsawKQoipWOme_14auth_framework12auth_modularNtB4_13AuthFramework20cleanup_expired_data0B6_
FNDA:0,_RINvMNtCscyNIIr1ochp_14auth_framework12auth_modularNtB3_13AuthFramework15register_methodpEB5_
FNDA:0,_RNCNCNvMNtCscyNIIr1ochp_14auth_framework12auth_modularNtB6_13AuthFramework21authenticate_internal00B8_
FNDA:0,_RNCNvMNtCscyNIIr1ochp_14auth_framework12auth_modularNtB4_13AuthFramework10initialize0B6_
FNDA:0,_RNCNvMNtCscyNIIr1ochp_14auth_framework12auth_modularNtB4_13AuthFramework12authenticate0B6_
FNDA:0,_RNCNvMNtCscyNIIr1ochp_14auth_framework12auth_modularNtB4_13AuthFramework12complete_mfa0B6_
FNDA:0,_RNCNvMNtCscyNIIr1ochp_14auth_framework12auth_modularNtB4_13AuthFramework13get_user_info0B6_
FNDA:0,_RNCNvMNtCscyNIIr1ochp_14auth_framework12auth_modularNtB4_13AuthFramework13send_sms_code0B6_
FNDA:0,_RNCNvMNtCscyNIIr1ochp_14auth_framework12auth_modularNtB4_13AuthFramework14validate_token0B6_
FNDA:0,_RNCNvMNtCscyNIIr1ochp_14auth_framework12auth_modularNtB4_13AuthFramework15log_audit_event0B6_
FNDA:0,_RNCNvMNtCscyNIIr1ochp_14auth_framework12auth_modularNtB4_13AuthFramework15verify_sms_code0B6_
FNDA:0,_RNCNvMNtCscyNIIr1ochp_14auth_framework12auth_modularNtB4_13AuthFramework16check_permission0B6_
FNDA:0,_RNCNvMNtCscyNIIr1ochp_14auth_framework12auth_modularNtB4_13AuthFramework17generate_sms_code0B6_
FNDA:0,_RNCNvMNtCscyNIIr1ochp_14auth_framework12auth_modularNtB4_13AuthFramework20cleanup_expired_data0B6_
FNDA:0,_RNCNvMNtCscyNIIr1ochp_14auth_framework12auth_modularNtB4_13AuthFramework21authenticate_internal0B6_
FNDA:0,_RNCNvMNtCscyNIIr1ochp_14auth_framework12auth_modularNtB4_13AuthFramework22initiate_sms_challenge0B6_
FNDA:0,_RNCNvMNtCscyNIIr1ochp_14auth_framework12auth_modularNtB4_13AuthFramework26authenticate_with_metadata0B6_
FNDA:0,_RNCNvMNtCscyNIIr1ochp_14auth_framework12auth_modularNtB4_13AuthFramework9get_stats0B6_
FNDA:0,_RNvMNtCscyNIIr1ochp_14auth_framework12auth_modularNtB2_13AuthFramework10initialize
FNDA:0,_RNvMNtCscyNIIr1ochp_14auth_framework12auth_modularNtB2_13AuthFramework11mfa_manager
FNDA:0,_RNvMNtCscyNIIr1ochp_14auth_framework12auth_modularNtB2_13AuthFramework12authenticate
FNDA:0,_RNvMNtCscyNIIr1ochp_14auth_framework12auth_modularNtB2_13AuthFramework12complete_mfa
FNDA:0,_RNvMNtCscyNIIr1ochp_14auth_framework12auth_modularNtB2_13AuthFramework12user_manager
FNDA:0,_RNvMNtCscyNIIr1ochp_14auth_framework12auth_modularNtB2_13AuthFramework13get_user_info
FNDA:0,_RNvMNtCscyNIIr1ochp_14auth_framework12auth_modularNtB2_13AuthFramework13send_sms_code
FNDA:0,_RNvMNtCscyNIIr1ochp_14auth_framework12auth_modularNtB2_13AuthFramework13token_manager
FNDA:0,_RNvMNtCscyNIIr1ochp_14auth_framework12auth_modularNtB2_13AuthFramework14validate_token
FNDA:0,_RNvMNtCscyNIIr1ochp_14auth_framework12auth_modularNtB2_13AuthFramework15log_audit_event
FNDA:0,_RNvMNtCscyNIIr1ochp_14auth_framework12auth_modularNtB2_13AuthFramework15replace_storage
FNDA:0,_RNvMNtCscyNIIr1ochp_14auth_framework12auth_modularNtB2_13AuthFramework15session_manager
FNDA:0,_RNvMNtCscyNIIr1ochp_14auth_framework12auth_modularNtB2_13AuthFramework15verify_sms_code
FNDA:0,_RNvMNtCscyNIIr1ochp_14auth_framework12auth_modularNtB2_13AuthFramework16check_permission
FNDA:0,_RNvMNtCscyNIIr1ochp_14auth_framework12auth_modularNtB2_13AuthFramework16new_with_storage
FNDA:0,_RNvMNtCscyNIIr1ochp_14auth_framework12auth_modularNtB2_13AuthFramework17generate_sms_code
FNDA:0,_RNvMNtCscyNIIr1ochp_14auth_framework12auth_modularNtB2_13AuthFramework20cleanup_expired_data
FNDA:0,_RNvMNtCscyNIIr1ochp_14auth_framework12auth_modularNtB2_13AuthFramework21authenticate_internal
FNDA:0,_RNvMNtCscyNIIr1ochp_14auth_framework12auth_modularNtB2_13AuthFramework22initiate_sms_challenge
FNDA:0,_RNvMNtCscyNIIr1ochp_14auth_framework12auth_modularNtB2_13AuthFramework26authenticate_with_metadata
FNDA:0,_RNvMNtCscyNIIr1ochp_14auth_framework12auth_modularNtB2_13AuthFramework3new
FNDA:0,_RNvMNtCscyNIIr1ochp_14auth_framework12auth_modularNtB2_13AuthFramework9get_stats
FNF:43
FNH:12
DA:128,2
DA:130,2
DA:131,0
DA:132,2
DA:135,2
DA:136,2
DA:137,0
DA:138,0
DA:139,0
DA:140,2
DA:141,2
DA:142,0
DA:143,0
DA:144,0
DA:145,0
DA:146,0
DA:147,0
DA:148,0
DA:149,0
DA:150,0
DA:151,0
DA:152,0
DA:153,0
DA:154,0
DA:155,0
DA:157,0
DA:158,0
DA:159,0
DA:160,0
DA:165,2
DA:166,2
DA:167,2
DA:168,2
DA:169,2
DA:170,2
DA:171,2
DA:172,2
DA:173,2
DA:176,2
DA:177,2
DA:178,2
DA:179,2
DA:180,2
DA:182,0
DA:186,2
DA:187,2
DA:188,2
DA:190,2
DA:191,2
DA:192,2
DA:193,2
DA:194,2
DA:195,2
DA:196,2
DA:197,2
DA:198,2
DA:199,2
DA:200,2
DA:201,2
DA:202,2
DA:208,0
DA:210,0
DA:213,0
DA:214,0
DA:215,0
DA:216,0
DA:219,0
DA:220,0
DA:221,0
DA:222,0
DA:223,0
DA:244,0
DA:245,0
DA:246,0
DA:249,0
DA:250,0
DA:251,0
DA:252,0
DA:254,0
DA:255,0
DA:258,1
DA:259,1
DA:260,0
DA:261,1
DA:263,1
DA:267,1
DA:268,1
DA:272,1
DA:274,1
DA:275,1
DA:277,1
DA:278,1
DA:281,0
DA:282,0
DA:283,0
DA:284,0
DA:285,0
DA:286,0
DA:287,0
DA:288,0
DA:291,0
DA:292,0
DA:293,0
DA:294,0
DA:295,0
DA:296,0
DA:300,0
DA:302,0
DA:303,0
DA:304,0
DA:307,0
DA:308,0
DA:309,0
DA:312,0
DA:313,0
DA:314,0
DA:315,0
DA:316,0
DA:318,0
DA:319,0
DA:322,0
DA:323,0
DA:324,0
DA:325,0
DA:326,0
DA:327,0
DA:329,0
DA:330,0
DA:331,0
DA:333,0
DA:336,0
DA:337,0
DA:338,0
DA:341,0
DA:342,0
DA:343,0
DA:346,0
DA:347,0
DA:348,0
DA:351,0
DA:352,0
DA:354,0
DA:358,0
DA:361,0
DA:362,0
DA:363,0
DA:364,0
DA:369,0
DA:372,0
DA:373,0
DA:375,0
DA:378,0
DA:379,0
DA:380,0
DA:385,0
DA:386,0
DA:387,0
DA:390,0
DA:391,0
DA:393,0
DA:396,0
DA:397,0
DA:398,0
DA:403,0
DA:404,0
DA:406,0
DA:409,0
DA:412,0
DA:413,0
DA:416,0
DA:417,0
DA:418,0
DA:419,0
DA:420,0
DA:422,0
DA:423,0
DA:424,0
DA:425,0
DA:428,0
DA:430,0
DA:431,0
DA:432,0
DA:433,0
DA:436,0
DA:437,0
DA:438,0
DA:439,0
DA:442,0
DA:443,0
DA:444,0
DA:445,0
DA:448,0
DA:449,0
DA:450,0
DA:451,0
DA:453,0
DA:456,0
DA:457,0
DA:458,0
DA:461,0
DA:464,0
DA:465,0
DA:466,0
DA:468,0
DA:469,0
DA:472,0
DA:474,0
DA:475,0
DA:479,0
DA:480,0
DA:483,0
DA:484,0
DA:485,0
DA:486,0
DA:489,0
DA:490,0
DA:491,0
DA:494,0
DA:497,0
DA:499,0
DA:500,0
DA:501,0
DA:503,0
DA:505,0
DA:507,0
DA:510,0
DA:511,0
DA:512,0
DA:513,0
DA:515,0
DA:516,0
DA:519,0
DA:520,0
DA:521,0
DA:522,0
DA:523,0
DA:524,0
DA:525,0
DA:526,0
DA:527,0
DA:529,0
DA:530,0
DA:531,0
DA:532,0
DA:535,0
DA:536,0
DA:537,0
DA:540,1
DA:541,1
DA:542,1
DA:545,1
DA:546,1
DA:547,1
DA:550,1
DA:551,1
DA:552,1
DA:555,0
DA:556,0
DA:557,0
DA:560,0
DA:561,0
DA:562,0
DA:563,0
DA:564,0
DA:565,0
DA:568,0
DA:569,0
DA:570,0
DA:573,0
DA:574,0
DA:575,0
DA:578,1
DA:579,1
DA:582,1
DA:585,1
DA:588,1
DA:591,1
DA:592,1
DA:593,1
DA:595,1
DA:596,1
DA:599,0
DA:600,0
DA:602,0
DA:603,0
DA:604,0
DA:606,0
DA:608,0
DA:609,0
DA:612,0
DA:613,0
DA:614,0
DA:615,0
DA:616,0
DA:617,0
DA:618,0
DA:619,0
DA:620,0
DA:621,0
DA:622,0
DA:623,0
DA:624,0
DA:627,0
DA:628,0
DA:633,0
DA:634,0
DA:635,0
DA:636,0
DA:638,0
DA:639,0
DA:640,0
DA:666,1
DA:667,1
DA:668,1
DA:669,1
DA:670,1
DA:671,1
DA:672,1
DA:673,1
DA:674,1
DA:675,1
DA:676,1
DA:677,1
DA:678,1
DA:680,1
DA:681,1
DA:682,1
DA:685,1
DA:686,1
DA:687,1
DA:688,1
DA:689,1
DA:690,1
DA:691,1
DA:692,1
DA:693,1
DA:694,1
DA:695,1
DA:696,1
DA:697,1
DA:700,1
DA:701,1
DA:702,1
DA:703,1
BRF:0
BRH:0
LF:365
LH:106
end_of_record
SF:C:\Users\cires\OneDrive\Documents\projects\AuthFramework\src\auth_modular\session_manager.rs
FN:145,_RNCNCNvMNtNtCsawKQoipWOme_14auth_framework12auth_modular15session_managerNtB6_14SessionManager14extend_session00Ba_
FN:58,_RNCNvMNtNtCsawKQoipWOme_14auth_framework12auth_modular15session_managerNtB4_14SessionManager11get_session0B8_
FN:28,_RNCNvMNtNtCsawKQoipWOme_14auth_framework12auth_modular15session_managerNtB4_14SessionManager14create_session0B8_
FN:76,_RNCNvMNtNtCsawKQoipWOme_14auth_framework12auth_modular15session_managerNtB4_14SessionManager14delete_session0B8_
FN:137,_RNCNvMNtNtCsawKQoipWOme_14auth_framework12auth_modular15session_managerNtB4_14SessionManager14extend_session0B8_
FN:125,_RNCNvMNtNtCsawKQoipWOme_14auth_framework12auth_modular15session_managerNtB4_14SessionManager16validate_session0B8_
FN:94,_RNCNvMNtNtCsawKQoipWOme_14auth_framework12auth_modular15session_managerNtB4_14SessionManager17get_user_sessions0B8_
FN:102,_RNCNvMNtNtCsawKQoipWOme_14auth_framework12auth_modular15session_managerNtB4_14SessionManager20delete_user_sessions0B8_
FN:155,_RNCNvMNtNtCsawKQoipWOme_14auth_framework12auth_modular15session_managerNtB4_14SessionManager21count_active_sessions0B8_
FN:85,_RNCNvMNtNtCsawKQoipWOme_14auth_framework12auth_modular15session_managerNtB4_14SessionManager23update_session_activity0B8_
FN:166,_RNCNvMNtNtCsawKQoipWOme_14auth_framework12auth_modular15session_managerNtB4_14SessionManager28get_session_security_metrics0B8_
FN:58,_RNvMNtNtCsawKQoipWOme_14auth_framework12auth_modular15session_managerNtB2_14SessionManager11get_session
FN:22,_RNvMNtNtCsawKQoipWOme_14auth_framework12auth_modular15session_managerNtB2_14SessionManager14create_session
FN:76,_RNvMNtNtCsawKQoipWOme_14auth_framework12auth_modular15session_managerNtB2_14SessionManager14delete_session
FN:137,_RNvMNtNtCsawKQoipWOme_14auth_framework12auth_modular15session_managerNtB2_14SessionManager14extend_session
FN:125,_RNvMNtNtCsawKQoipWOme_14auth_framework12auth_modular15session_managerNtB2_14SessionManager16validate_session
FN:94,_RNvMNtNtCsawKQoipWOme_14auth_framework12auth_modular15session_managerNtB2_14SessionManager17get_user_sessions
FN:102,_RNvMNtNtCsawKQoipWOme_14auth_framework12auth_modular15session_managerNtB2_14SessionManager20delete_user_sessions
FN:155,_RNvMNtNtCsawKQoipWOme_14auth_framework12auth_modular15session_managerNtB2_14SessionManager21count_active_sessions
FN:85,_RNvMNtNtCsawKQoipWOme_14auth_framework12auth_modular15session_managerNtB2_14SessionManager23update_session_activity
FN:166,_RNvMNtNtCsawKQoipWOme_14auth_framework12auth_modular15session_managerNtB2_14SessionManager28get_session_security_metrics
FN:116,_RNvMNtNtCsawKQoipWOme_14auth_framework12auth_modular15session_managerNtB2_14SessionManager24cleanup_expired_sessions
FN:17,_RNvMNtNtCsawKQoipWOme_14auth_framework12auth_modular15session_managerNtB2_14SessionManager3new
FN:116,_RNCNvMNtNtCsawKQoipWOme_14auth_framework12auth_modular15session_managerNtB4_14SessionManager24cleanup_expired_sessions0B8_
FN:145,_RNCNCNvMNtNtCscyNIIr1ochp_14auth_framework12auth_modular15session_managerNtB6_14SessionManager14extend_session00Ba_
FN:58,_RNCNvMNtNtCscyNIIr1ochp_14auth_framework12auth_modular15session_managerNtB4_14SessionManager11get_session0B8_
FN:28,_RNCNvMNtNtCscyNIIr1ochp_14auth_framework12auth_modular15session_managerNtB4_14SessionManager14create_session0B8_
FN:76,_RNCNvMNtNtCscyNIIr1ochp_14auth_framework12auth_modular15session_managerNtB4_14SessionManager14delete_session0B8_
FN:137,_RNCNvMNtNtCscyNIIr1ochp_14auth_framework12auth_modular15session_managerNtB4_14SessionManager14extend_session0B8_
FN:125,_RNCNvMNtNtCscyNIIr1ochp_14auth_framework12auth_modular15session_managerNtB4_14SessionManager16validate_session0B8_
FN:94,_RNCNvMNtNtCscyNIIr1ochp_14auth_framework12auth_modular15session_managerNtB4_14SessionManager17get_user_sessions0B8_
FN:102,_RNCNvMNtNtCscyNIIr1ochp_14auth_framework12auth_modular15session_managerNtB4_14SessionManager20delete_user_sessions0B8_
FN:155,_RNCNvMNtNtCscyNIIr1ochp_14auth_framework12auth_modular15session_managerNtB4_14SessionManager21count_active_sessions0B8_
FN:85,_RNCNvMNtNtCscyNIIr1ochp_14auth_framework12auth_modular15session_managerNtB4_14SessionManager23update_session_activity0B8_
FN:116,_RNCNvMNtNtCscyNIIr1ochp_14auth_framework12auth_modular15session_managerNtB4_14SessionManager24cleanup_expired_sessions0B8_
FN:166,_RNCNvMNtNtCscyNIIr1ochp_14auth_framework12auth_modular15session_managerNtB4_14SessionManager28get_session_security_metrics0B8_
FN:58,_RNvMNtNtCscyNIIr1ochp_14auth_framework12auth_modular15session_managerNtB2_14SessionManager11get_session
FN:22,_RNvMNtNtCscyNIIr1ochp_14auth_framework12auth_modular15session_managerNtB2_14SessionManager14create_session
FN:76,_RNvMNtNtCscyNIIr1ochp_14auth_framework12auth_modular15session_managerNtB2_14SessionManager14delete_session
FN:137,_RNvMNtNtCscyNIIr1ochp_14auth_framework12auth_modular15session_managerNtB2_14SessionManager14extend_session
FN:125,_RNvMNtNtCscyNIIr1ochp_14auth_framework12auth_modular15session_managerNtB2_14SessionManager16validate_session
FN:94,_RNvMNtNtCscyNIIr1ochp_14auth_framework12auth_modular15session_managerNtB2_14SessionManager17get_user_sessions
FN:102,_RNvMNtNtCscyNIIr1ochp_14auth_framework12auth_modular15session_managerNtB2_14SessionManager20delete_user_sessions
FN:155,_RNvMNtNtCscyNIIr1ochp_14auth_framework12auth_modular15session_managerNtB2_14SessionManager21count_active_sessions
FN:85,_RNvMNtNtCscyNIIr1ochp_14auth_framework12auth_modular15session_managerNtB2_14SessionManager23update_session_activity
FN:116,_RNvMNtNtCscyNIIr1ochp_14auth_framework12auth_modular15session_managerNtB2_14SessionManager24cleanup_expired_sessions
FN:166,_RNvMNtNtCscyNIIr1ochp_14auth_framework12auth_modular15session_managerNtB2_14SessionManager28get_session_security_metrics
FN:17,_RNvMNtNtCscyNIIr1ochp_14auth_framework12auth_modular15session_managerNtB2_14SessionManager3new
FNDA:0,_RNCNCNvMNtNtCsawKQoipWOme_14auth_framework12auth_modular15session_managerNtB6_14SessionManager14extend_session00Ba_
FNDA:0,_RNCNvMNtNtCsawKQoipWOme_14auth_framework12auth_modular15session_managerNtB4_14SessionManager11get_session0B8_
FNDA:0,_RNCNvMNtNtCsawKQoipWOme_14auth_framework12auth_modular15session_managerNtB4_14SessionManager14create_session0B8_
FNDA:0,_RNCNvMNtNtCsawKQoipWOme_14auth_framework12auth_modular15session_managerNtB4_14SessionManager14delete_session0B8_
FNDA:0,_RNCNvMNtNtCsawKQoipWOme_14auth_framework12auth_modular15session_managerNtB4_14SessionManager14extend_session0B8_
FNDA:0,_RNCNvMNtNtCsawKQoipWOme_14auth_framework12auth_modular15session_managerNtB4_14SessionManager16validate_session0B8_
FNDA:0,_RNCNvMNtNtCsawKQoipWOme_14auth_framework12auth_modular15session_managerNtB4_14SessionManager17get_user_sessions0B8_
FNDA:0,_RNCNvMNtNtCsawKQoipWOme_14auth_framework12auth_modular15session_managerNtB4_14SessionManager20delete_user_sessions0B8_
FNDA:0,_RNCNvMNtNtCsawKQoipWOme_14auth_framework12auth_modular15session_managerNtB4_14SessionManager21count_active_sessions0B8_
FNDA:0,_RNCNvMNtNtCsawKQoipWOme_14auth_framework12auth_modular15session_managerNtB4_14SessionManager23update_session_activity0B8_
FNDA:0,_RNCNvMNtNtCsawKQoipWOme_14auth_framework12auth_modular15session_managerNtB4_14SessionManager28get_session_security_metrics0B8_
FNDA:0,_RNvMNtNtCsawKQoipWOme_14auth_framework12auth_modular15session_managerNtB2_14SessionManager11get_session
FNDA:0,_RNvMNtNtCsawKQoipWOme_14auth_framework12auth_modular15session_managerNtB2_14SessionManager14create_session
FNDA:0,_RNvMNtNtCsawKQoipWOme_14auth_framework12auth_modular15session_managerNtB2_14SessionManager14delete_session
FNDA:0,_RNvMNtNtCsawKQoipWOme_14auth_framework12auth_modular15session_managerNtB2_14SessionManager14extend_session
FNDA:0,_RNvMNtNtCsawKQoipWOme_14auth_framework12auth_modular15session_managerNtB2_14SessionManager16validate_session
FNDA:0,_RNvMNtNtCsawKQoipWOme_14auth_framework12auth_modular15session_managerNtB2_14SessionManager17get_user_sessions
FNDA:0,_RNvMNtNtCsawKQoipWOme_14auth_framework12auth_modular15session_managerNtB2_14SessionManager20delete_user_sessions
FNDA:0,_RNvMNtNtCsawKQoipWOme_14auth_framework12auth_modular15session_managerNtB2_14SessionManager21count_active_sessions
FNDA:0,_RNvMNtNtCsawKQoipWOme_14auth_framework12auth_modular15session_managerNtB2_14SessionManager23update_session_activity
FNDA:0,_RNvMNtNtCsawKQoipWOme_14auth_framework12auth_modular15session_managerNtB2_14SessionManager28get_session_security_metrics
FNDA:1,_RNvMNtNtCsawKQoipWOme_14auth_framework12auth_modular15session_managerNtB2_14SessionManager24cleanup_expired_sessions
FNDA:2,_RNvMNtNtCsawKQoipWOme_14auth_framework12auth_modular15session_managerNtB2_14SessionManager3new
FNDA:1,_RNCNvMNtNtCsawKQoipWOme_14auth_framework12auth_modular15session_managerNtB4_14SessionManager24cleanup_expired_sessions0B8_
FNDA:0,_RNCNCNvMNtNtCscyNIIr1ochp_14auth_framework12auth_modular15session_managerNtB6_14SessionManager14extend_session00Ba_
FNDA:0,_RNCNvMNtNtCscyNIIr1ochp_14auth_framework12auth_modular15session_managerNtB4_14SessionManager11get_session0B8_
FNDA:0,_RNCNvMNtNtCscyNIIr1ochp_14auth_framework12auth_modular15session_managerNtB4_14SessionManager14create_session0B8_
FNDA:0,_RNCNvMNtNtCscyNIIr1ochp_14auth_framework12auth_modular15session_managerNtB4_14SessionManager14delete_session0B8_
FNDA:0,_RNCNvMNtNtCscyNIIr1ochp_14auth_framework12auth_modular15session_managerNtB4_14SessionManager14extend_session0B8_
FNDA:0,_RNCNvMNtNtCscyNIIr1ochp_14auth_framework12auth_modular15session_managerNtB4_14SessionManager16validate_session0B8_
FNDA:0,_RNCNvMNtNtCscyNIIr1ochp_14auth_framework12auth_modular15session_managerNtB4_14SessionManager17get_user_sessions0B8_
FNDA:0,_RNCNvMNtNtCscyNIIr1ochp_14auth_framework12auth_modular15session_managerNtB4_14SessionManager20delete_user_sessions0B8_
FNDA:0,_RNCNvMNtNtCscyNIIr1ochp_14auth_framework12auth_modular15session_managerNtB4_14SessionManager21count_active_sessions0B8_
FNDA:0,_RNCNvMNtNtCscyNIIr1ochp_14auth_framework12auth_modular15session_managerNtB4_14SessionManager23update_session_activity0B8_
FNDA:0,_RNCNvMNtNtCscyNIIr1ochp_14auth_framework12auth_modular15session_managerNtB4_14SessionManager24cleanup_expired_sessions0B8_
FNDA:0,_RNCNvMNtNtCscyNIIr1ochp_14auth_framework12auth_modular15session_managerNtB4_14SessionManager28get_session_security_metrics0B8_
FNDA:0,_RNvMNtNtCscyNIIr1ochp_14auth_framework12auth_modular15session_managerNtB2_14SessionManager11get_session
FNDA:0,_RNvMNtNtCscyNIIr1ochp_14auth_framework12auth_modular15session_managerNtB2_14SessionManager14create_session
FNDA:0,_RNvMNtNtCscyNIIr1ochp_14auth_framework12auth_modular15session_managerNtB2_14SessionManager14delete_session
FNDA:0,_RNvMNtNtCscyNIIr1ochp_14auth_framework12auth_modular15session_managerNtB2_14SessionManager14extend_session
FNDA:0,_RNvMNtNtCscyNIIr1ochp_14auth_framework12auth_modular15session_managerNtB2_14SessionManager16validate_session
FNDA:0,_RNvMNtNtCscyNIIr1ochp_14auth_framework12auth_modular15session_managerNtB2_14SessionManager17get_user_sessions
FNDA:0,_RNvMNtNtCscyNIIr1ochp_14auth_framework12auth_modular15session_managerNtB2_14SessionManager20delete_user_sessions
FNDA:0,_RNvMNtNtCscyNIIr1ochp_14auth_framework12auth_modular15session_managerNtB2_14SessionManager21count_active_sessions
FNDA:0,_RNvMNtNtCscyNIIr1ochp_14auth_framework12auth_modular15session_managerNtB2_14SessionManager23update_session_activity
FNDA:0,_RNvMNtNtCscyNIIr1ochp_14auth_framework12auth_modular15session_managerNtB2_14SessionManager24cleanup_expired_sessions
FNDA:0,_RNvMNtNtCscyNIIr1ochp_14auth_framework12auth_modular15session_managerNtB2_14SessionManager28get_session_security_metrics
FNDA:0,_RNvMNtNtCscyNIIr1ochp_14auth_framework12auth_modular15session_managerNtB2_14SessionManager3new
FNF:24
FNH:3
DA:17,2
DA:18,2
DA:19,2
DA:22,0
DA:23,0
DA:24,0
DA:25,0
DA:26,0
DA:27,0
DA:28,0
DA:29,0
DA:32,0
DA:33,0
DA:34,0
DA:35,0
DA:36,0
DA:37,0
DA:39,0
DA:41,0
DA:42,0
DA:43,0
DA:44,0
DA:45,0
DA:47,0
DA:48,0
DA:49,0
DA:51,0
DA:53,0
DA:54,0
DA:55,0
DA:58,0
DA:59,0
DA:61,0
DA:64,0
DA:65,0
DA:68,0
DA:69,0
DA:70,0
DA:72,0
DA:73,0
DA:76,0
DA:77,0
DA:79,0
DA:80,0
DA:81,0
DA:82,0
DA:85,0
DA:86,0
DA:87,0
DA:88,0
DA:89,0
DA:90,0
DA:91,0
DA:94,0
DA:97,0
DA:98,0
DA:99,0
DA:102,0
DA:103,0
DA:106,0
DA:107,0
DA:108,0
DA:111,0
DA:112,0
DA:113,0
DA:116,1
DA:117,1
DA:121,1
DA:122,1
DA:125,0
DA:126,0
DA:127,0
DA:130,0
DA:131,0
DA:132,0
DA:133,0
DA:134,0
DA:137,0
DA:138,0
DA:139,0
DA:143,0
DA:144,0
DA:145,0
DA:146,0
DA:147,0
DA:148,0
DA:150,0
DA:151,0
DA:155,0
DA:156,0
DA:159,0
DA:161,0
DA:162,0
DA:163,0
DA:166,0
DA:167,0
DA:169,0
DA:170,0
DA:172,0
DA:173,0
DA:174,0
DA:176,0
DA:177,0
DA:178,0
DA:181,0
DA:182,0
BRF:0
BRH:0
LF:118
LH:8
end_of_record
SF:C:\Users\cires\OneDrive\Documents\projects\AuthFramework\src\auth_modular\user_manager.rs
FN:60,_RNCNCNvMNtNtCsawKQoipWOme_14auth_framework12auth_modular12user_managerNtB6_11UserManager14create_api_key0s_0Ba_
FN:85,_RNCNCNvMNtNtCsawKQoipWOme_14auth_framework12auth_modular12user_managerNtB6_11UserManager16validate_api_key00Ba_
FN:132,_RNCNCNvMNtNtCsawKQoipWOme_14auth_framework12auth_modular12user_managerNtB6_11UserManager17validate_username00Ba_
FN:227,_RNCNCNvMNtNtCsawKQoipWOme_14auth_framework12auth_modular12user_managerNtB6_11UserManager18get_user_attribute00Ba_
FN:259,_RNCNvMNtNtCsawKQoipWOme_14auth_framework12auth_modular12user_managerNtB4_11UserManager11user_exists0B8_
FN:242,_RNCNvMNtNtCsawKQoipWOme_14auth_framework12auth_modular12user_managerNtB4_11UserManager13get_user_info0B8_
FN:50,_RNCNvMNtNtCsawKQoipWOme_14auth_framework12auth_modular12user_managerNtB4_11UserManager14create_api_key0B8_
FN:111,_RNCNvMNtNtCsawKQoipWOme_14auth_framework12auth_modular12user_managerNtB4_11UserManager14revoke_api_key0B8_
FN:73,_RNCNvMNtNtCsawKQoipWOme_14auth_framework12auth_modular12user_managerNtB4_11UserManager16validate_api_key0B8_
FN:125,_RNCNvMNtNtCsawKQoipWOme_14auth_framework12auth_modular12user_managerNtB4_11UserManager17validate_username0B8_
FN:222,_RNCNvMNtNtCsawKQoipWOme_14auth_framework12auth_modular12user_managerNtB4_11UserManager18get_user_attribute0B8_
FN:204,_RNCNvMNtNtCsawKQoipWOme_14auth_framework12auth_modular12user_managerNtB4_11UserManager18map_user_attribute0B8_
FN:171,_RNCNvMNtNtCsawKQoipWOme_14auth_framework12auth_modular12user_managerNtB4_11UserManager19validate_user_input0B8_
FN:138,_RNCNvMNtNtCsawKQoipWOme_14auth_framework12auth_modular12user_managerNtB4_11UserManager21validate_display_name0B8_
FN:149,_RNCNvMNtNtCsawKQoipWOme_14auth_framework12auth_modular12user_managerNtB4_11UserManager26validate_password_strength0B8_
FN:259,_RNvMNtNtCsawKQoipWOme_14auth_framework12auth_modular12user_managerNtB2_11UserManager11user_exists
FN:242,_RNvMNtNtCsawKQoipWOme_14auth_framework12auth_modular12user_managerNtB2_11UserManager13get_user_info
FN:46,_RNvMNtNtCsawKQoipWOme_14auth_framework12auth_modular12user_managerNtB2_11UserManager14create_api_key
FN:111,_RNvMNtNtCsawKQoipWOme_14auth_framework12auth_modular12user_managerNtB2_11UserManager14revoke_api_key
FN:73,_RNvMNtNtCsawKQoipWOme_14auth_framework12auth_modular12user_managerNtB2_11UserManager16validate_api_key
FN:125,_RNvMNtNtCsawKQoipWOme_14auth_framework12auth_modular12user_managerNtB2_11UserManager17validate_username
FN:218,_RNvMNtNtCsawKQoipWOme_14auth_framework12auth_modular12user_managerNtB2_11UserManager18get_user_attribute
FN:199,_RNvMNtNtCsawKQoipWOme_14auth_framework12auth_modular12user_managerNtB2_11UserManager18map_user_attribute
FN:171,_RNvMNtNtCsawKQoipWOme_14auth_framework12auth_modular12user_managerNtB2_11UserManager19validate_user_input
FN:138,_RNvMNtNtCsawKQoipWOme_14auth_framework12auth_modular12user_managerNtB2_11UserManager21validate_display_name
FN:149,_RNvMNtNtCsawKQoipWOme_14auth_framework12auth_modular12user_managerNtB2_11UserManager26validate_password_strength
FN:41,_RNvMNtNtCsawKQoipWOme_14auth_framework12auth_modular12user_managerNtB2_11UserManager3new
FN:259,_RNvMNtNtCscyNIIr1ochp_14auth_framework12auth_modular12user_managerNtB2_11UserManager11user_exists
FN:242,_RNvMNtNtCscyNIIr1ochp_14auth_framework12auth_modular12user_managerNtB2_11UserManager13get_user_info
FN:46,_RNvMNtNtCscyNIIr1ochp_14auth_framework12auth_modular12user_managerNtB2_11UserManager14create_api_key
FN:111,_RNvMNtNtCscyNIIr1ochp_14auth_framework12auth_modular12user_managerNtB2_11UserManager14revoke_api_key
FN:73,_RNvMNtNtCscyNIIr1ochp_14auth_framework12auth_modular12user_managerNtB2_11UserManager16validate_api_key
FN:125,_RNvMNtNtCscyNIIr1ochp_14auth_framework12auth_modular12user_managerNtB2_11UserManager17validate_username
FN:218,_RNvMNtNtCscyNIIr1ochp_14auth_framework12auth_modular12user_managerNtB2_11UserManager18get_user_attribute
FN:199,_RNvMNtNtCscyNIIr1ochp_14auth_framework12auth_modular12user_managerNtB2_11UserManager18map_user_attribute
FN:171,_RNvMNtNtCscyNIIr1ochp_14auth_framework12auth_modular12user_managerNtB2_11UserManager19validate_user_input
FN:138,_RNvMNtNtCscyNIIr1ochp_14auth_framework12auth_modular12user_managerNtB2_11UserManager21validate_display_name
FN:149,_RNvMNtNtCscyNIIr1ochp_14auth_framework12auth_modular12user_managerNtB2_11UserManager26validate_password_strength
FN:41,_RNvMNtNtCscyNIIr1ochp_14auth_framework12auth_modular12user_managerNtB2_11UserManager3new
FN:60,_RNCNCNvMNtNtCscyNIIr1ochp_14auth_framework12auth_modular12user_managerNtB6_11UserManager14create_api_key0s_0Ba_
FN:85,_RNCNCNvMNtNtCscyNIIr1ochp_14auth_framework12auth_modular12user_managerNtB6_11UserManager16validate_api_key00Ba_
FN:132,_RNCNCNvMNtNtCscyNIIr1ochp_14auth_framework12auth_modular12user_managerNtB6_11UserManager17validate_username00Ba_
FN:227,_RNCNCNvMNtNtCscyNIIr1ochp_14auth_framework12auth_modular12user_managerNtB6_11UserManager18get_user_attribute00Ba_
FN:259,_RNCNvMNtNtCscyNIIr1ochp_14auth_framework12auth_modular12user_managerNtB4_11UserManager11user_exists0B8_
FN:242,_RNCNvMNtNtCscyNIIr1ochp_14auth_framework12auth_modular12user_managerNtB4_11UserManager13get_user_info0B8_
FN:50,_RNCNvMNtNtCscyNIIr1ochp_14auth_framework12auth_modular12user_managerNtB4_11UserManager14create_api_key0B8_
FN:111,_RNCNvMNtNtCscyNIIr1ochp_14auth_framework12auth_modular12user_managerNtB4_11UserManager14revoke_api_key0B8_
FN:73,_RNCNvMNtNtCscyNIIr1ochp_14auth_framework12auth_modular12user_managerNtB4_11UserManager16validate_api_key0B8_
FN:125,_RNCNvMNtNtCscyNIIr1ochp_14auth_framework12auth_modular12user_managerNtB4_11UserManager17validate_username0B8_
FN:222,_RNCNvMNtNtCscyNIIr1ochp_14auth_framework12auth_modular12user_managerNtB4_11UserManager18get_user_attribute0B8_
FN:204,_RNCNvMNtNtCscyNIIr1ochp_14auth_framework12auth_modular12user_managerNtB4_11UserManager18map_user_attribute0B8_
FN:171,_RNCNvMNtNtCscyNIIr1ochp_14auth_framework12auth_modular12user_managerNtB4_11UserManager19validate_user_input0B8_
FN:138,_RNCNvMNtNtCscyNIIr1ochp_14auth_framework12auth_modular12user_managerNtB4_11UserManager21validate_display_name0B8_
FN:149,_RNCNvMNtNtCscyNIIr1ochp_14auth_framework12auth_modular12user_managerNtB4_11UserManager26validate_password_strength0B8_
FNDA:0,_RNCNCNvMNtNtCsawKQoipWOme_14auth_framework12auth_modular12user_managerNtB6_11UserManager14create_api_key0s_0Ba_
FNDA:0,_RNCNCNvMNtNtCsawKQoipWOme_14auth_framework12auth_modular12user_managerNtB6_11UserManager16validate_api_key00Ba_
FNDA:0,_RNCNCNvMNtNtCsawKQoipWOme_14auth_framework12auth_modular12user_managerNtB6_11UserManager17validate_username00Ba_
FNDA:0,_RNCNCNvMNtNtCsawKQoipWOme_14auth_framework12auth_modular12user_managerNtB6_11UserManager18get_user_attribute00Ba_
FNDA:0,_RNCNvMNtNtCsawKQoipWOme_14auth_framework12auth_modular12user_managerNtB4_11UserManager11user_exists0B8_
FNDA:0,_RNCNvMNtNtCsawKQoipWOme_14auth_framework12auth_modular12user_managerNtB4_11UserManager13get_user_info0B8_
FNDA:0,_RNCNvMNtNtCsawKQoipWOme_14auth_framework12auth_modular12user_managerNtB4_11UserManager14create_api_key0B8_
FNDA:0,_RNCNvMNtNtCsawKQoipWOme_14auth_framework12auth_modular12user_managerNtB4_11UserManager14revoke_api_key0B8_
FNDA:0,_RNCNvMNtNtCsawKQoipWOme_14auth_framework12auth_modular12user_managerNtB4_11UserManager16validate_api_key0B8_
FNDA:0,_RNCNvMNtNtCsawKQoipWOme_14auth_framework12auth_modular12user_managerNtB4_11UserManager17validate_username0B8_
FNDA:0,_RNCNvMNtNtCsawKQoipWOme_14auth_framework12auth_modular12user_managerNtB4_11UserManager18get_user_attribute0B8_
FNDA:0,_RNCNvMNtNtCsawKQoipWOme_14auth_framework12auth_modular12user_managerNtB4_11UserManager18map_user_attribute0B8_
FNDA:0,_RNCNvMNtNtCsawKQoipWOme_14auth_framework12auth_modular12user_managerNtB4_11UserManager19validate_user_input0B8_
FNDA:0,_RNCNvMNtNtCsawKQoipWOme_14auth_framework12auth_modular12user_managerNtB4_11UserManager21validate_display_name0B8_
FNDA:0,_RNCNvMNtNtCsawKQoipWOme_14auth_framework12auth_modular12user_managerNtB4_11UserManager26validate_password_strength0B8_
FNDA:0,_RNvMNtNtCsawKQoipWOme_14auth_framework12auth_modular12user_managerNtB2_11UserManager11user_exists
FNDA:0,_RNvMNtNtCsawKQoipWOme_14auth_framework12auth_modular12user_managerNtB2_11UserManager13get_user_info
FNDA:0,_RNvMNtNtCsawKQoipWOme_14auth_framework12auth_modular12user_managerNtB2_11UserManager14create_api_key
FNDA:0,_RNvMNtNtCsawKQoipWOme_14auth_framework12auth_modular12user_managerNtB2_11UserManager14revoke_api_key
FNDA:0,_RNvMNtNtCsawKQoipWOme_14auth_framework12auth_modular12user_managerNtB2_11UserManager16validate_api_key
FNDA:0,_RNvMNtNtCsawKQoipWOme_14auth_framework12auth_modular12user_managerNtB2_11UserManager17validate_username
FNDA:0,_RNvMNtNtCsawKQoipWOme_14auth_framework12auth_modular12user_managerNtB2_11UserManager18get_user_attribute
FNDA:0,_RNvMNtNtCsawKQoipWOme_14auth_framework12auth_modular12user_managerNtB2_11UserManager18map_user_attribute
FNDA:0,_RNvMNtNtCsawKQoipWOme_14auth_framework12auth_modular12user_managerNtB2_11UserManager19validate_user_input
FNDA:0,_RNvMNtNtCsawKQoipWOme_14auth_framework12auth_modular12user_managerNtB2_11UserManager21validate_display_name
FNDA:0,_RNvMNtNtCsawKQoipWOme_14auth_framework12auth_modular12user_managerNtB2_11UserManager26validate_password_strength
FNDA:2,_RNvMNtNtCsawKQoipWOme_14auth_framework12auth_modular12user_managerNtB2_11UserManager3new
FNDA:0,_RNvMNtNtCscyNIIr1ochp_14auth_framework12auth_modular12user_managerNtB2_11UserManager11user_exists
FNDA:0,_RNvMNtNtCscyNIIr1ochp_14auth_framework12auth_modular12user_managerNtB2_11UserManager13get_user_info
FNDA:0,_RNvMNtNtCscyNIIr1ochp_14auth_framework12auth_modular12user_managerNtB2_11UserManager14create_api_key
FNDA:0,_RNvMNtNtCscyNIIr1ochp_14auth_framework12auth_modular12user_managerNtB2_11UserManager14revoke_api_key
FNDA:0,_RNvMNtNtCscyNIIr1ochp_14auth_framework12auth_modular12user_managerNtB2_11UserManager16validate_api_key
FNDA:0,_RNvMNtNtCscyNIIr1ochp_14auth_framework12auth_modular12user_managerNtB2_11UserManager17validate_username
FNDA:0,_RNvMNtNtCscyNIIr1ochp_14auth_framework12auth_modular12user_managerNtB2_11UserManager18get_user_attribute
FNDA:0,_RNvMNtNtCscyNIIr1ochp_14auth_framework12auth_modular12user_managerNtB2_11UserManager18map_user_attribute
FNDA:0,_RNvMNtNtCscyNIIr1ochp_14auth_framework12auth_modular12user_managerNtB2_11UserManager19validate_user_input
FNDA:0,_RNvMNtNtCscyNIIr1ochp_14auth_framework12auth_modular12user_managerNtB2_11UserManager21validate_display_name
FNDA:0,_RNvMNtNtCscyNIIr1ochp_14auth_framework12auth_modular12user_managerNtB2_11UserManager26validate_password_strength
FNDA:0,_RNvMNtNtCscyNIIr1ochp_14auth_framework12auth_modular12user_managerNtB2_11UserManager3new
FNDA:0,_RNCNCNvMNtNtCscyNIIr1ochp_14auth_framework12auth_modular12user_managerNtB6_11UserManager14create_api_key0s_0Ba_
FNDA:0,_RNCNCNvMNtNtCscyNIIr1ochp_14auth_framework12auth_modular12user_managerNtB6_11UserManager16validate_api_key00Ba_
FNDA:0,_RNCNCNvMNtNtCscyNIIr1ochp_14auth_framework12auth_modular12user_managerNtB6_11UserManager17validate_username00Ba_
FNDA:0,_RNCNCNvMNtNtCscyNIIr1ochp_14auth_framework12auth_modular12user_managerNtB6_11UserManager18get_user_attribute00Ba_
FNDA:0,_RNCNvMNtNtCscyNIIr1ochp_14auth_framework12auth_modular12user_managerNtB4_11UserManager11user_exists0B8_
FNDA:0,_RNCNvMNtNtCscyNIIr1ochp_14auth_framework12auth_modular12user_managerNtB4_11UserManager13get_user_info0B8_
FNDA:0,_RNCNvMNtNtCscyNIIr1ochp_14auth_framework12auth_modular12user_managerNtB4_11UserManager14create_api_key0B8_
FNDA:0,_RNCNvMNtNtCscyNIIr1ochp_14auth_framework12auth_modular12user_managerNtB4_11UserManager14revoke_api_key0B8_
FNDA:0,_RNCNvMNtNtCscyNIIr1ochp_14auth_framework12auth_modular12user_managerNtB4_11UserManager16validate_api_key0B8_
